ARM GAS  /var/folders/s6/2bsynnl15rj0bwtb9pgx4dc00000gn/T//ccK61phe.s 			page 1


   1              		.cpu cortex-m7
   2              		.arch armv7e-m
   3              		.fpu fpv5-d16
   4              		.eabi_attribute 28, 1
   5              		.eabi_attribute 20, 1
   6              		.eabi_attribute 21, 1
   7              		.eabi_attribute 23, 3
   8              		.eabi_attribute 24, 1
   9              		.eabi_attribute 25, 1
  10              		.eabi_attribute 26, 1
  11              		.eabi_attribute 30, 2
  12              		.eabi_attribute 34, 1
  13              		.eabi_attribute 18, 4
  14              		.file	"Sound.cpp"
  15              		.text
  16              	.Ltext0:
  17              		.cfi_sections	.debug_frame
  18              		.section	.text._ZN5Sound4InitEf,"ax",%progbits
  19              		.align	1
  20              		.p2align 2,,3
  21              		.global	_ZN5Sound4InitEf
  22              		.syntax unified
  23              		.thumb
  24              		.thumb_func
  26              	_ZN5Sound4InitEf:
  27              	.LVL0:
  28              	.LFB4697:
  29              		.file 1 "Sound.cpp"
   1:Sound.cpp     **** #include "Sound.h"
   2:Sound.cpp     **** 
   3:Sound.cpp     **** Sound::Sound() 
   4:Sound.cpp     ****     : attack(0.1f), decay(0.1f), sustain(0.5f), release(0.5f), cutoff(2000.0f), resonance(1.0f), lf
   5:Sound.cpp     **** {}
   6:Sound.cpp     **** 
   7:Sound.cpp     **** Sound::~Sound() {}
   8:Sound.cpp     **** 
   9:Sound.cpp     **** void Sound::Init(float sample_rate) {
  30              		.loc 1 9 37 view -0
  31              		.cfi_startproc
  32              		@ args = 0, pretend = 0, frame = 0
  33              		@ frame_needed = 0, uses_anonymous_args = 0
  34              		@ link register save eliminated.
  10:Sound.cpp     ****     sampleRate = sample_rate;
  35              		.loc 1 10 5 view .LVU1
  36              		.loc 1 10 16 is_stmt 0 view .LVU2
  37 0000 80ED090A 		vstr.32	s0, [r0, #36]
  11:Sound.cpp     **** }
  38              		.loc 1 11 1 view .LVU3
  39 0004 7047     		bx	lr
  40              		.cfi_endproc
  41              	.LFE4697:
  43 0006 00BF     		.section	.text._ZN5SoundC2Ev,"ax",%progbits
  44              		.align	1
  45              		.p2align 2,,3
  46              		.global	_ZN5SoundC2Ev
  47              		.syntax unified
  48              		.thumb
ARM GAS  /var/folders/s6/2bsynnl15rj0bwtb9pgx4dc00000gn/T//ccK61phe.s 			page 2


  49              		.thumb_func
  51              	_ZN5SoundC2Ev:
  52              	.LVL1:
  53              	.LFB4691:
   3:Sound.cpp     ****     : attack(0.1f), decay(0.1f), sustain(0.5f), release(0.5f), cutoff(2000.0f), resonance(1.0f), lf
  54              		.loc 1 3 1 is_stmt 1 view -0
  55              		.cfi_startproc
  56              		@ args = 0, pretend = 0, frame = 0
  57              		@ frame_needed = 0, uses_anonymous_args = 0
  58              		@ link register save eliminated.
  59              	.LBB5:
   4:Sound.cpp     **** {}
  60              		.loc 1 4 146 is_stmt 0 view .LVU5
  61 0000 0D49     		ldr	r1, .L5
  62 0002 4FF0010C 		mov	ip, #1
  63 0006 4FF07C52 		mov	r2, #1056964608
  64 000a 80F820C0 		strb	ip, [r0, #32]
  65 000e 4160     		str	r1, [r0, #4]	@ float
  66 0010 DFF82CC0 		ldr	ip, .L5+8
  67 0014 8160     		str	r1, [r0, #8]	@ float
  68 0016 0021     		movs	r1, #0
  69 0018 C260     		str	r2, [r0, #12]	@ float
  70 001a 0261     		str	r2, [r0, #16]	@ float
  71 001c C0F814C0 		str	ip, [r0, #20]	@ float
  72 0020 C261     		str	r2, [r0, #28]	@ float
  73 0022 4162     		str	r1, [r0, #36]	@ float
  74              	.LBE5:
   3:Sound.cpp     ****     : attack(0.1f), decay(0.1f), sustain(0.5f), release(0.5f), cutoff(2000.0f), resonance(1.0f), lf
  75              		.loc 1 3 1 view .LVU6
  76 0024 10B4     		push	{r4}
  77              		.cfi_def_cfa_offset 4
  78              		.cfi_offset 4, -4
  79              	.LBB6:
   4:Sound.cpp     **** {}
  80              		.loc 1 4 146 view .LVU7
  81 0026 4FF07E54 		mov	r4, #1065353216
  82 002a 8461     		str	r4, [r0, #24]	@ float
  83 002c 034C     		ldr	r4, .L5+4
  84 002e 0460     		str	r4, [r0]
  85              	.LBE6:
   5:Sound.cpp     **** 
  86              		.loc 1 5 2 view .LVU8
  87 0030 5DF8044B 		ldr	r4, [sp], #4
  88              		.cfi_restore 4
  89              		.cfi_def_cfa_offset 0
  90 0034 7047     		bx	lr
  91              	.L6:
  92 0036 00BF     		.align	2
  93              	.L5:
  94 0038 CDCCCC3D 		.word	1036831949
  95 003c 08000000 		.word	.LANCHOR0+8
  96 0040 0000FA44 		.word	1157234688
  97              		.cfi_endproc
  98              	.LFE4691:
 100              		.global	_ZN5SoundC1Ev
 101              		.thumb_set _ZN5SoundC1Ev,_ZN5SoundC2Ev
 102              		.section	.text._ZN5SoundD2Ev,"ax",%progbits
ARM GAS  /var/folders/s6/2bsynnl15rj0bwtb9pgx4dc00000gn/T//ccK61phe.s 			page 3


 103              		.align	1
 104              		.p2align 2,,3
 105              		.global	_ZN5SoundD2Ev
 106              		.syntax unified
 107              		.thumb
 108              		.thumb_func
 110              	_ZN5SoundD2Ev:
 111              	.LVL2:
 112              	.LFB4694:
   7:Sound.cpp     **** 
 113              		.loc 1 7 1 is_stmt 1 view -0
 114              		.cfi_startproc
 115              		@ args = 0, pretend = 0, frame = 0
 116              		@ frame_needed = 0, uses_anonymous_args = 0
 117              		@ link register save eliminated.
   7:Sound.cpp     **** 
 118              		.loc 1 7 18 is_stmt 0 view .LVU10
 119 0000 7047     		bx	lr
 120              		.cfi_endproc
 121              	.LFE4694:
 123              		.global	_ZN5SoundD1Ev
 124              		.thumb_set _ZN5SoundD1Ev,_ZN5SoundD2Ev
 125 0002 00BF     		.section	.text._ZN5SoundD0Ev,"ax",%progbits
 126              		.align	1
 127              		.p2align 2,,3
 128              		.global	_ZN5SoundD0Ev
 129              		.syntax unified
 130              		.thumb
 131              		.thumb_func
 133              	_ZN5SoundD0Ev:
 134              	.LVL3:
 135              	.LFB4696:
   7:Sound.cpp     **** 
 136              		.loc 1 7 1 is_stmt 1 view -0
 137              		.cfi_startproc
 138              		@ args = 0, pretend = 0, frame = 0
 139              		@ frame_needed = 0, uses_anonymous_args = 0
   7:Sound.cpp     **** 
 140              		.loc 1 7 1 is_stmt 0 view .LVU12
 141 0000 10B5     		push	{r4, lr}
 142              		.cfi_def_cfa_offset 8
 143              		.cfi_offset 4, -8
 144              		.cfi_offset 14, -4
   7:Sound.cpp     **** 
 145              		.loc 1 7 1 view .LVU13
 146 0002 0446     		mov	r4, r0
 147              	.LVL4:
 148              	.LBB7:
 149              	.LBI7:
   7:Sound.cpp     **** 
 150              		.loc 1 7 1 is_stmt 1 view .LVU14
   7:Sound.cpp     **** 
 151              		.loc 1 7 1 is_stmt 0 view .LVU15
 152              	.LBE7:
   7:Sound.cpp     **** 
 153              		.loc 1 7 18 view .LVU16
 154 0004 2821     		movs	r1, #40
ARM GAS  /var/folders/s6/2bsynnl15rj0bwtb9pgx4dc00000gn/T//ccK61phe.s 			page 4


 155 0006 FFF7FEFF 		bl	_ZdlPvj
 156              	.LVL5:
   7:Sound.cpp     **** 
 157              		.loc 1 7 18 view .LVU17
 158 000a 2046     		mov	r0, r4
 159 000c 10BD     		pop	{r4, pc}
   7:Sound.cpp     **** 
 160              		.loc 1 7 18 view .LVU18
 161              		.cfi_endproc
 162              	.LFE4696:
 164 000e 00BF     		.section	.text._ZN5Sound9SetAttackEf,"ax",%progbits
 165              		.align	1
 166              		.p2align 2,,3
 167              		.global	_ZN5Sound9SetAttackEf
 168              		.syntax unified
 169              		.thumb
 170              		.thumb_func
 172              	_ZN5Sound9SetAttackEf:
 173              	.LVL6:
 174              	.LFB4698:
  12:Sound.cpp     **** 
  13:Sound.cpp     **** void Sound::SetAttack(float value) {
 175              		.loc 1 13 36 is_stmt 1 view -0
 176              		.cfi_startproc
 177              		@ args = 0, pretend = 0, frame = 0
 178              		@ frame_needed = 0, uses_anonymous_args = 0
 179              		@ link register save eliminated.
  14:Sound.cpp     ****     attack = value;
 180              		.loc 1 14 5 view .LVU20
 181              		.loc 1 14 12 is_stmt 0 view .LVU21
 182 0000 80ED010A 		vstr.32	s0, [r0, #4]
  15:Sound.cpp     **** }
 183              		.loc 1 15 1 view .LVU22
 184 0004 7047     		bx	lr
 185              		.cfi_endproc
 186              	.LFE4698:
 188 0006 00BF     		.section	.text._ZN5Sound8SetDecayEf,"ax",%progbits
 189              		.align	1
 190              		.p2align 2,,3
 191              		.global	_ZN5Sound8SetDecayEf
 192              		.syntax unified
 193              		.thumb
 194              		.thumb_func
 196              	_ZN5Sound8SetDecayEf:
 197              	.LVL7:
 198              	.LFB4699:
  16:Sound.cpp     **** 
  17:Sound.cpp     **** void Sound::SetDecay(float value) {
 199              		.loc 1 17 35 is_stmt 1 view -0
 200              		.cfi_startproc
 201              		@ args = 0, pretend = 0, frame = 0
 202              		@ frame_needed = 0, uses_anonymous_args = 0
 203              		@ link register save eliminated.
  18:Sound.cpp     ****     decay = value;
 204              		.loc 1 18 5 view .LVU24
 205              		.loc 1 18 11 is_stmt 0 view .LVU25
 206 0000 80ED020A 		vstr.32	s0, [r0, #8]
ARM GAS  /var/folders/s6/2bsynnl15rj0bwtb9pgx4dc00000gn/T//ccK61phe.s 			page 5


  19:Sound.cpp     **** }
 207              		.loc 1 19 1 view .LVU26
 208 0004 7047     		bx	lr
 209              		.cfi_endproc
 210              	.LFE4699:
 212 0006 00BF     		.section	.text._ZN5Sound10SetSustainEf,"ax",%progbits
 213              		.align	1
 214              		.p2align 2,,3
 215              		.global	_ZN5Sound10SetSustainEf
 216              		.syntax unified
 217              		.thumb
 218              		.thumb_func
 220              	_ZN5Sound10SetSustainEf:
 221              	.LVL8:
 222              	.LFB4700:
  20:Sound.cpp     **** 
  21:Sound.cpp     **** void Sound::SetSustain(float value) {
 223              		.loc 1 21 37 is_stmt 1 view -0
 224              		.cfi_startproc
 225              		@ args = 0, pretend = 0, frame = 0
 226              		@ frame_needed = 0, uses_anonymous_args = 0
 227              		@ link register save eliminated.
  22:Sound.cpp     ****     sustain = value;
 228              		.loc 1 22 5 view .LVU28
 229              		.loc 1 22 13 is_stmt 0 view .LVU29
 230 0000 80ED030A 		vstr.32	s0, [r0, #12]
  23:Sound.cpp     **** }
 231              		.loc 1 23 1 view .LVU30
 232 0004 7047     		bx	lr
 233              		.cfi_endproc
 234              	.LFE4700:
 236 0006 00BF     		.section	.text._ZN5Sound10SetReleaseEf,"ax",%progbits
 237              		.align	1
 238              		.p2align 2,,3
 239              		.global	_ZN5Sound10SetReleaseEf
 240              		.syntax unified
 241              		.thumb
 242              		.thumb_func
 244              	_ZN5Sound10SetReleaseEf:
 245              	.LVL9:
 246              	.LFB4701:
  24:Sound.cpp     **** 
  25:Sound.cpp     **** void Sound::SetRelease(float value) {
 247              		.loc 1 25 37 is_stmt 1 view -0
 248              		.cfi_startproc
 249              		@ args = 0, pretend = 0, frame = 0
 250              		@ frame_needed = 0, uses_anonymous_args = 0
 251              		@ link register save eliminated.
  26:Sound.cpp     ****     release = value;
 252              		.loc 1 26 5 view .LVU32
 253              		.loc 1 26 13 is_stmt 0 view .LVU33
 254 0000 80ED040A 		vstr.32	s0, [r0, #16]
  27:Sound.cpp     **** }
 255              		.loc 1 27 1 view .LVU34
 256 0004 7047     		bx	lr
 257              		.cfi_endproc
 258              	.LFE4701:
ARM GAS  /var/folders/s6/2bsynnl15rj0bwtb9pgx4dc00000gn/T//ccK61phe.s 			page 6


 260 0006 00BF     		.section	.text._ZN5Sound9SetCutoffEf,"ax",%progbits
 261              		.align	1
 262              		.p2align 2,,3
 263              		.global	_ZN5Sound9SetCutoffEf
 264              		.syntax unified
 265              		.thumb
 266              		.thumb_func
 268              	_ZN5Sound9SetCutoffEf:
 269              	.LVL10:
 270              	.LFB4702:
  28:Sound.cpp     **** 
  29:Sound.cpp     **** void Sound::SetCutoff(float value) {
 271              		.loc 1 29 36 is_stmt 1 view -0
 272              		.cfi_startproc
 273              		@ args = 0, pretend = 0, frame = 0
 274              		@ frame_needed = 0, uses_anonymous_args = 0
 275              		@ link register save eliminated.
  30:Sound.cpp     ****     cutoff = value;
 276              		.loc 1 30 5 view .LVU36
 277              		.loc 1 30 12 is_stmt 0 view .LVU37
 278 0000 80ED050A 		vstr.32	s0, [r0, #20]
  31:Sound.cpp     **** }
 279              		.loc 1 31 1 view .LVU38
 280 0004 7047     		bx	lr
 281              		.cfi_endproc
 282              	.LFE4702:
 284 0006 00BF     		.section	.text._ZN5Sound12SetResonanceEf,"ax",%progbits
 285              		.align	1
 286              		.p2align 2,,3
 287              		.global	_ZN5Sound12SetResonanceEf
 288              		.syntax unified
 289              		.thumb
 290              		.thumb_func
 292              	_ZN5Sound12SetResonanceEf:
 293              	.LVL11:
 294              	.LFB4703:
  32:Sound.cpp     **** 
  33:Sound.cpp     **** void Sound::SetResonance(float value) {
 295              		.loc 1 33 39 is_stmt 1 view -0
 296              		.cfi_startproc
 297              		@ args = 0, pretend = 0, frame = 0
 298              		@ frame_needed = 0, uses_anonymous_args = 0
 299              		@ link register save eliminated.
  34:Sound.cpp     ****     resonance = value;
 300              		.loc 1 34 5 view .LVU40
 301              		.loc 1 34 15 is_stmt 0 view .LVU41
 302 0000 80ED060A 		vstr.32	s0, [r0, #24]
  35:Sound.cpp     **** }
 303              		.loc 1 35 1 view .LVU42
 304 0004 7047     		bx	lr
 305              		.cfi_endproc
 306              	.LFE4703:
 308 0006 00BF     		.section	.text._ZN5Sound15SetLfoIntensityEf,"ax",%progbits
 309              		.align	1
 310              		.p2align 2,,3
 311              		.global	_ZN5Sound15SetLfoIntensityEf
 312              		.syntax unified
ARM GAS  /var/folders/s6/2bsynnl15rj0bwtb9pgx4dc00000gn/T//ccK61phe.s 			page 7


 313              		.thumb
 314              		.thumb_func
 316              	_ZN5Sound15SetLfoIntensityEf:
 317              	.LVL12:
 318              	.LFB4704:
  36:Sound.cpp     **** 
  37:Sound.cpp     **** void Sound::SetLfoIntensity(float value) {
 319              		.loc 1 37 42 is_stmt 1 view -0
 320              		.cfi_startproc
 321              		@ args = 0, pretend = 0, frame = 0
 322              		@ frame_needed = 0, uses_anonymous_args = 0
 323              		@ link register save eliminated.
  38:Sound.cpp     ****     lfoIntensity = value;
 324              		.loc 1 38 5 view .LVU44
 325              		.loc 1 38 18 is_stmt 0 view .LVU45
 326 0000 80ED070A 		vstr.32	s0, [r0, #28]
  39:Sound.cpp     **** }
 327              		.loc 1 39 1 view .LVU46
 328 0004 7047     		bx	lr
 329              		.cfi_endproc
 330              	.LFE4704:
 332 0006 00BF     		.section	.text._ZN5Sound8SetLfoOnEb,"ax",%progbits
 333              		.align	1
 334              		.p2align 2,,3
 335              		.global	_ZN5Sound8SetLfoOnEb
 336              		.syntax unified
 337              		.thumb
 338              		.thumb_func
 340              	_ZN5Sound8SetLfoOnEb:
 341              	.LVL13:
 342              	.LFB4705:
  40:Sound.cpp     **** 
  41:Sound.cpp     **** void Sound::SetLfoOn(bool value) {
 343              		.loc 1 41 34 is_stmt 1 view -0
 344              		.cfi_startproc
 345              		@ args = 0, pretend = 0, frame = 0
 346              		@ frame_needed = 0, uses_anonymous_args = 0
 347              		@ link register save eliminated.
  42:Sound.cpp     ****     lfoOn = value;
 348              		.loc 1 42 5 view .LVU48
 349              		.loc 1 42 11 is_stmt 0 view .LVU49
 350 0000 80F82010 		strb	r1, [r0, #32]
  43:Sound.cpp     **** }
 351              		.loc 1 43 1 view .LVU50
 352 0004 7047     		bx	lr
 353              		.cfi_endproc
 354              	.LFE4705:
 356              		.global	_ZTV5Sound
 357 0006 00BF     		.section	.rodata._ZTV5Sound,"a"
 358              		.align	2
 359              		.set	.LANCHOR0,. + 0
 362              	_ZTV5Sound:
 363 0000 00000000 		.word	0
 364 0004 00000000 		.word	0
 365 0008 00000000 		.word	0
 366 000c 00000000 		.word	0
 367 0010 00000000 		.word	_ZN5Sound4InitEf
ARM GAS  /var/folders/s6/2bsynnl15rj0bwtb9pgx4dc00000gn/T//ccK61phe.s 			page 8


 368 0014 00000000 		.word	__cxa_pure_virtual
 369              		.text
 370              	.Letext0:
 371              		.file 2 "/Library/DaisyToolchain/0.2.0/arm/arm-none-eabi/include/machine/_default_types.h"
 372              		.file 3 "/Library/DaisyToolchain/0.2.0/arm/arm-none-eabi/include/sys/_stdint.h"
 373              		.file 4 "/Library/DaisyToolchain/0.2.0/arm/arm-none-eabi/include/stdint.h"
 374              		.file 5 "/Library/DaisyToolchain/0.2.0/arm/lib/gcc/arm-none-eabi/10.3.1/include/stddef.h"
 375              		.file 6 "/Library/DaisyToolchain/0.2.0/arm/arm-none-eabi/include/c++/10.3.1/cmath"
 376              		.file 7 "/Library/DaisyToolchain/0.2.0/arm/arm-none-eabi/include/c++/10.3.1/bits/std_abs.h"
 377              		.file 8 "/Library/DaisyToolchain/0.2.0/arm/arm-none-eabi/include/c++/10.3.1/cstdlib"
 378              		.file 9 "/Library/DaisyToolchain/0.2.0/arm/arm-none-eabi/include/c++/10.3.1/cstdint"
 379              		.file 10 "/Library/DaisyToolchain/0.2.0/arm/arm-none-eabi/include/c++/10.3.1/type_traits"
 380              		.file 11 "/Library/DaisyToolchain/0.2.0/arm/arm-none-eabi/include/c++/10.3.1/debug/debug.h"
 381              		.file 12 "/Library/DaisyToolchain/0.2.0/arm/arm-none-eabi/include/c++/10.3.1/arm-none-eabi/thumb/v
 382              		.file 13 "/Library/DaisyToolchain/0.2.0/arm/arm-none-eabi/include/c++/10.3.1/bits/algorithmfwd.h"
 383              		.file 14 "/Library/DaisyToolchain/0.2.0/arm/arm-none-eabi/include/c++/10.3.1/bits/stl_pair.h"
 384              		.file 15 "/Library/DaisyToolchain/0.2.0/arm/arm-none-eabi/include/c++/10.3.1/bits/exception_ptr.h"
 385              		.file 16 "/Library/DaisyToolchain/0.2.0/arm/arm-none-eabi/include/c++/10.3.1/cstdarg"
 386              		.file 17 "/Library/DaisyToolchain/0.2.0/arm/arm-none-eabi/include/c++/10.3.1/cstdio"
 387              		.file 18 "/Library/DaisyToolchain/0.2.0/arm/arm-none-eabi/include/c++/10.3.1/cstring"
 388              		.file 19 "/Library/DaisyToolchain/0.2.0/arm/arm-none-eabi/include/c++/10.3.1/cwchar"
 389              		.file 20 "/Library/DaisyToolchain/0.2.0/arm/arm-none-eabi/include/c++/10.3.1/clocale"
 390              		.file 21 "/Library/DaisyToolchain/0.2.0/arm/arm-none-eabi/include/c++/10.3.1/bits/basic_string.h"
 391              		.file 22 "/Library/DaisyToolchain/0.2.0/arm/arm-none-eabi/include/c++/10.3.1/bits/stl_iterator.h"
 392              		.file 23 "/Library/DaisyToolchain/0.2.0/arm/arm-none-eabi/include/c++/10.3.1/bits/predefined_ops.h
 393              		.file 24 "/Library/DaisyToolchain/0.2.0/arm/arm-none-eabi/include/sys/_types.h"
 394              		.file 25 "/Library/DaisyToolchain/0.2.0/arm/arm-none-eabi/include/sys/reent.h"
 395              		.file 26 "/Library/DaisyToolchain/0.2.0/arm/arm-none-eabi/include/sys/lock.h"
 396              		.file 27 "/Library/DaisyToolchain/0.2.0/arm/arm-none-eabi/include/math.h"
 397              		.file 28 "/Library/DaisyToolchain/0.2.0/arm/arm-none-eabi/include/stdlib.h"
 398              		.file 29 "/Library/DaisyToolchain/0.2.0/arm/arm-none-eabi/include/c++/10.3.1/math.h"
 399              		.file 30 "/Library/DaisyToolchain/0.2.0/arm/arm-none-eabi/include/c++/10.3.1/stdlib.h"
 400              		.file 31 "./libDaisy/src/daisy_core.h"
 401              		.file 32 "./libDaisy/src/util/wav_format.h"
 402              		.file 33 "./libDaisy/src/dev/max11300.h"
 403              		.file 34 "./libDaisy/src/daisy_seed.h"
 404              		.file 35 "/Library/DaisyToolchain/0.2.0/arm/lib/gcc/arm-none-eabi/10.3.1/include/stdarg.h"
 405              		.file 36 "/Library/DaisyToolchain/0.2.0/arm/arm-none-eabi/include/stdio.h"
 406              		.file 37 "/Library/DaisyToolchain/0.2.0/arm/arm-none-eabi/include/string.h"
 407              		.file 38 "./DaisySP/Source/Control/adenv.h"
 408              		.file 39 "./DaisySP/Source/Utility/dsp.h"
 409              		.file 40 "/Library/DaisyToolchain/0.2.0/arm/arm-none-eabi/include/wchar.h"
 410              		.file 41 "/Library/DaisyToolchain/0.2.0/arm/arm-none-eabi/include/locale.h"
 411              		.file 42 "Sound.h"
 412              		.file 43 "<built-in>"
 413              		.file 44 "./libDaisy/src/dev/sr_595.h"
 414              		.file 45 "/Library/DaisyToolchain/0.2.0/arm/arm-none-eabi/include/c++/10.3.1/new"
ARM GAS  /var/folders/s6/2bsynnl15rj0bwtb9pgx4dc00000gn/T//ccK61phe.s 			page 9

