ARM GAS  /var/folders/s6/2bsynnl15rj0bwtb9pgx4dc00000gn/T//cc9fWWk9.s 			page 1


   1              		.cpu cortex-m7
   2              		.arch armv7e-m
   3              		.fpu fpv5-d16
   4              		.eabi_attribute 28, 1
   5              		.eabi_attribute 20, 1
   6              		.eabi_attribute 21, 1
   7              		.eabi_attribute 23, 3
   8              		.eabi_attribute 24, 1
   9              		.eabi_attribute 25, 1
  10              		.eabi_attribute 26, 1
  11              		.eabi_attribute 30, 2
  12              		.eabi_attribute 34, 1
  13              		.eabi_attribute 18, 4
  14              		.file	"Spirits.cpp"
  15              		.text
  16              	.Ltext0:
  17              		.cfi_sections	.debug_frame
  18              		.section	.text._ZN7SpiritsD2Ev,"axG",%progbits,_ZN7SpiritsD5Ev,comdat
  19              		.align	1
  20              		.p2align 2,,3
  21              		.weak	_ZN7SpiritsD2Ev
  22              		.syntax unified
  23              		.thumb
  24              		.thumb_func
  26              	_ZN7SpiritsD2Ev:
  27              	.LVL0:
  28              	.LFB5331:
  29              		.file 1 "Spirits.h"
   1:Spirits.h     **** #pragma once
   2:Spirits.h     **** #include "Sound.h"
   3:Spirits.h     **** #include <array>
   4:Spirits.h     **** 
   5:Spirits.h     **** class Spirits : public Sound {
  30              		.loc 1 5 7 view -0
  31              		.cfi_startproc
  32              		@ args = 0, pretend = 0, frame = 0
  33              		@ frame_needed = 0, uses_anonymous_args = 0
  34              	.LBB138:
  35              		.loc 1 5 7 is_stmt 0 view .LVU1
  36 0000 034B     		ldr	r3, .L4
  37              	.LBE138:
  38 0002 10B5     		push	{r4, lr}
  39              		.cfi_def_cfa_offset 8
  40              		.cfi_offset 4, -8
  41              		.cfi_offset 14, -4
  42              		.loc 1 5 7 view .LVU2
  43 0004 0446     		mov	r4, r0
  44              	.LBB141:
  45 0006 0360     		str	r3, [r0]
  46              	.LVL1:
  47              	.LBB139:
  48              	.LBI139:
  49              		.file 2 "./DaisySP/Source/Control/adenv.h"
   1:./DaisySP/Source/Control/adenv.h **** /*
   2:./DaisySP/Source/Control/adenv.h **** Copyright (c) 2020 Electrosmith, Corp
   3:./DaisySP/Source/Control/adenv.h **** 
   4:./DaisySP/Source/Control/adenv.h **** Use of this source code is governed by an MIT-style
ARM GAS  /var/folders/s6/2bsynnl15rj0bwtb9pgx4dc00000gn/T//cc9fWWk9.s 			page 2


   5:./DaisySP/Source/Control/adenv.h **** license that can be found in the LICENSE file or at
   6:./DaisySP/Source/Control/adenv.h **** https://opensource.org/licenses/MIT.
   7:./DaisySP/Source/Control/adenv.h **** */
   8:./DaisySP/Source/Control/adenv.h **** 
   9:./DaisySP/Source/Control/adenv.h **** #pragma once
  10:./DaisySP/Source/Control/adenv.h **** #ifndef ADENV_H
  11:./DaisySP/Source/Control/adenv.h **** #define ADENV_H
  12:./DaisySP/Source/Control/adenv.h **** #include <stdint.h>
  13:./DaisySP/Source/Control/adenv.h **** #ifdef __cplusplus
  14:./DaisySP/Source/Control/adenv.h **** 
  15:./DaisySP/Source/Control/adenv.h **** namespace daisysp
  16:./DaisySP/Source/Control/adenv.h **** {
  17:./DaisySP/Source/Control/adenv.h **** /** Distinct stages that the phase of the envelope can be located in.
  18:./DaisySP/Source/Control/adenv.h ****     @see AdEnv
  19:./DaisySP/Source/Control/adenv.h **** */
  20:./DaisySP/Source/Control/adenv.h **** enum AdEnvSegment
  21:./DaisySP/Source/Control/adenv.h **** {
  22:./DaisySP/Source/Control/adenv.h ****     /** located at phase location 0, and not currently running */
  23:./DaisySP/Source/Control/adenv.h ****     ADENV_SEG_IDLE,
  24:./DaisySP/Source/Control/adenv.h ****     /** First segment of envelope where phase moves from MIN value to MAX value */
  25:./DaisySP/Source/Control/adenv.h ****     ADENV_SEG_ATTACK,
  26:./DaisySP/Source/Control/adenv.h ****     /** Second segment of envelope where phase moves from MAX to MIN value */
  27:./DaisySP/Source/Control/adenv.h ****     ADENV_SEG_DECAY,
  28:./DaisySP/Source/Control/adenv.h ****     /** The final segment of the envelope (currently decay) */
  29:./DaisySP/Source/Control/adenv.h ****     ADENV_SEG_LAST,
  30:./DaisySP/Source/Control/adenv.h **** };
  31:./DaisySP/Source/Control/adenv.h **** 
  32:./DaisySP/Source/Control/adenv.h **** /** Trigger-able envelope with adjustable min/max, and independent per-segment time control.
  33:./DaisySP/Source/Control/adenv.h **** 
  34:./DaisySP/Source/Control/adenv.h ****     \author shensley
  35:./DaisySP/Source/Control/adenv.h ****     \todo - Add Cycling
  36:./DaisySP/Source/Control/adenv.h ****     \todo - Implement Curve (its only linear for now).
  37:./DaisySP/Source/Control/adenv.h ****     \todo - Maybe make this an ADsr_ that has AD/AR/Asr_ modes.
  38:./DaisySP/Source/Control/adenv.h ****  */
  39:./DaisySP/Source/Control/adenv.h **** class AdEnv
  40:./DaisySP/Source/Control/adenv.h **** {
  41:./DaisySP/Source/Control/adenv.h ****   public:
  42:./DaisySP/Source/Control/adenv.h ****     AdEnv() {}
  43:./DaisySP/Source/Control/adenv.h ****     ~AdEnv() {}
  50              		.loc 2 43 5 is_stmt 1 view .LVU3
  51              		.loc 2 43 5 is_stmt 0 view .LVU4
  52              	.LBE139:
  53              	.LBB140:
  54              	.LBI140:
  55              		.file 3 "/Library/DaisyToolchain/0.2.0/arm/arm-none-eabi/include/c++/10.3.1/array"
   1:/Library/DaisyToolchain/0.2.0/arm/arm-none-eabi/include/c++/10.3.1/array **** // <array> -*- C++ -*-
   2:/Library/DaisyToolchain/0.2.0/arm/arm-none-eabi/include/c++/10.3.1/array **** 
   3:/Library/DaisyToolchain/0.2.0/arm/arm-none-eabi/include/c++/10.3.1/array **** // Copyright (C) 2007-2020 Free Software Foundation, Inc.
   4:/Library/DaisyToolchain/0.2.0/arm/arm-none-eabi/include/c++/10.3.1/array **** //
   5:/Library/DaisyToolchain/0.2.0/arm/arm-none-eabi/include/c++/10.3.1/array **** // This file is part of the GNU ISO C++ Library.  This library is free
   6:/Library/DaisyToolchain/0.2.0/arm/arm-none-eabi/include/c++/10.3.1/array **** // software; you can redistribute it and/or modify it under the
   7:/Library/DaisyToolchain/0.2.0/arm/arm-none-eabi/include/c++/10.3.1/array **** // terms of the GNU General Public License as published by the
   8:/Library/DaisyToolchain/0.2.0/arm/arm-none-eabi/include/c++/10.3.1/array **** // Free Software Foundation; either version 3, or (at your option)
   9:/Library/DaisyToolchain/0.2.0/arm/arm-none-eabi/include/c++/10.3.1/array **** // any later version.
  10:/Library/DaisyToolchain/0.2.0/arm/arm-none-eabi/include/c++/10.3.1/array **** 
  11:/Library/DaisyToolchain/0.2.0/arm/arm-none-eabi/include/c++/10.3.1/array **** // This library is distributed in the hope that it will be useful,
  12:/Library/DaisyToolchain/0.2.0/arm/arm-none-eabi/include/c++/10.3.1/array **** // but WITHOUT ANY WARRANTY; without even the implied warranty of
ARM GAS  /var/folders/s6/2bsynnl15rj0bwtb9pgx4dc00000gn/T//cc9fWWk9.s 			page 3


  13:/Library/DaisyToolchain/0.2.0/arm/arm-none-eabi/include/c++/10.3.1/array **** // MERCHANTABILITY or FITNESS FOR A PARTICULAR PURPOSE.  See the
  14:/Library/DaisyToolchain/0.2.0/arm/arm-none-eabi/include/c++/10.3.1/array **** // GNU General Public License for more details.
  15:/Library/DaisyToolchain/0.2.0/arm/arm-none-eabi/include/c++/10.3.1/array **** 
  16:/Library/DaisyToolchain/0.2.0/arm/arm-none-eabi/include/c++/10.3.1/array **** // Under Section 7 of GPL version 3, you are granted additional
  17:/Library/DaisyToolchain/0.2.0/arm/arm-none-eabi/include/c++/10.3.1/array **** // permissions described in the GCC Runtime Library Exception, version
  18:/Library/DaisyToolchain/0.2.0/arm/arm-none-eabi/include/c++/10.3.1/array **** // 3.1, as published by the Free Software Foundation.
  19:/Library/DaisyToolchain/0.2.0/arm/arm-none-eabi/include/c++/10.3.1/array **** 
  20:/Library/DaisyToolchain/0.2.0/arm/arm-none-eabi/include/c++/10.3.1/array **** // You should have received a copy of the GNU General Public License and
  21:/Library/DaisyToolchain/0.2.0/arm/arm-none-eabi/include/c++/10.3.1/array **** // a copy of the GCC Runtime Library Exception along with this program;
  22:/Library/DaisyToolchain/0.2.0/arm/arm-none-eabi/include/c++/10.3.1/array **** // see the files COPYING3 and COPYING.RUNTIME respectively.  If not, see
  23:/Library/DaisyToolchain/0.2.0/arm/arm-none-eabi/include/c++/10.3.1/array **** // <http://www.gnu.org/licenses/>.
  24:/Library/DaisyToolchain/0.2.0/arm/arm-none-eabi/include/c++/10.3.1/array **** 
  25:/Library/DaisyToolchain/0.2.0/arm/arm-none-eabi/include/c++/10.3.1/array **** /** @file include/array
  26:/Library/DaisyToolchain/0.2.0/arm/arm-none-eabi/include/c++/10.3.1/array ****  *  This is a Standard C++ Library header.
  27:/Library/DaisyToolchain/0.2.0/arm/arm-none-eabi/include/c++/10.3.1/array ****  */
  28:/Library/DaisyToolchain/0.2.0/arm/arm-none-eabi/include/c++/10.3.1/array **** 
  29:/Library/DaisyToolchain/0.2.0/arm/arm-none-eabi/include/c++/10.3.1/array **** #ifndef _GLIBCXX_ARRAY
  30:/Library/DaisyToolchain/0.2.0/arm/arm-none-eabi/include/c++/10.3.1/array **** #define _GLIBCXX_ARRAY 1
  31:/Library/DaisyToolchain/0.2.0/arm/arm-none-eabi/include/c++/10.3.1/array **** 
  32:/Library/DaisyToolchain/0.2.0/arm/arm-none-eabi/include/c++/10.3.1/array **** #pragma GCC system_header
  33:/Library/DaisyToolchain/0.2.0/arm/arm-none-eabi/include/c++/10.3.1/array **** 
  34:/Library/DaisyToolchain/0.2.0/arm/arm-none-eabi/include/c++/10.3.1/array **** #if __cplusplus < 201103L
  35:/Library/DaisyToolchain/0.2.0/arm/arm-none-eabi/include/c++/10.3.1/array **** # include <bits/c++0x_warning.h>
  36:/Library/DaisyToolchain/0.2.0/arm/arm-none-eabi/include/c++/10.3.1/array **** #else
  37:/Library/DaisyToolchain/0.2.0/arm/arm-none-eabi/include/c++/10.3.1/array **** 
  38:/Library/DaisyToolchain/0.2.0/arm/arm-none-eabi/include/c++/10.3.1/array **** #include <utility>
  39:/Library/DaisyToolchain/0.2.0/arm/arm-none-eabi/include/c++/10.3.1/array **** #include <bits/functexcept.h>
  40:/Library/DaisyToolchain/0.2.0/arm/arm-none-eabi/include/c++/10.3.1/array **** #include <bits/stl_algobase.h>
  41:/Library/DaisyToolchain/0.2.0/arm/arm-none-eabi/include/c++/10.3.1/array **** #include <bits/range_access.h>
  42:/Library/DaisyToolchain/0.2.0/arm/arm-none-eabi/include/c++/10.3.1/array **** 
  43:/Library/DaisyToolchain/0.2.0/arm/arm-none-eabi/include/c++/10.3.1/array **** namespace std _GLIBCXX_VISIBILITY(default)
  44:/Library/DaisyToolchain/0.2.0/arm/arm-none-eabi/include/c++/10.3.1/array **** {
  45:/Library/DaisyToolchain/0.2.0/arm/arm-none-eabi/include/c++/10.3.1/array **** _GLIBCXX_BEGIN_NAMESPACE_CONTAINER
  46:/Library/DaisyToolchain/0.2.0/arm/arm-none-eabi/include/c++/10.3.1/array **** 
  47:/Library/DaisyToolchain/0.2.0/arm/arm-none-eabi/include/c++/10.3.1/array ****   template<typename _Tp, std::size_t _Nm>
  48:/Library/DaisyToolchain/0.2.0/arm/arm-none-eabi/include/c++/10.3.1/array ****     struct __array_traits
  49:/Library/DaisyToolchain/0.2.0/arm/arm-none-eabi/include/c++/10.3.1/array ****     {
  50:/Library/DaisyToolchain/0.2.0/arm/arm-none-eabi/include/c++/10.3.1/array ****       typedef _Tp _Type[_Nm];
  51:/Library/DaisyToolchain/0.2.0/arm/arm-none-eabi/include/c++/10.3.1/array ****       typedef __is_swappable<_Tp> _Is_swappable;
  52:/Library/DaisyToolchain/0.2.0/arm/arm-none-eabi/include/c++/10.3.1/array ****       typedef __is_nothrow_swappable<_Tp> _Is_nothrow_swappable;
  53:/Library/DaisyToolchain/0.2.0/arm/arm-none-eabi/include/c++/10.3.1/array **** 
  54:/Library/DaisyToolchain/0.2.0/arm/arm-none-eabi/include/c++/10.3.1/array ****       static constexpr _Tp&
  55:/Library/DaisyToolchain/0.2.0/arm/arm-none-eabi/include/c++/10.3.1/array ****       _S_ref(const _Type& __t, std::size_t __n) noexcept
  56:/Library/DaisyToolchain/0.2.0/arm/arm-none-eabi/include/c++/10.3.1/array ****       { return const_cast<_Tp&>(__t[__n]); }
  57:/Library/DaisyToolchain/0.2.0/arm/arm-none-eabi/include/c++/10.3.1/array **** 
  58:/Library/DaisyToolchain/0.2.0/arm/arm-none-eabi/include/c++/10.3.1/array ****       static constexpr _Tp*
  59:/Library/DaisyToolchain/0.2.0/arm/arm-none-eabi/include/c++/10.3.1/array ****       _S_ptr(const _Type& __t) noexcept
  60:/Library/DaisyToolchain/0.2.0/arm/arm-none-eabi/include/c++/10.3.1/array ****       { return const_cast<_Tp*>(__t); }
  61:/Library/DaisyToolchain/0.2.0/arm/arm-none-eabi/include/c++/10.3.1/array ****     };
  62:/Library/DaisyToolchain/0.2.0/arm/arm-none-eabi/include/c++/10.3.1/array **** 
  63:/Library/DaisyToolchain/0.2.0/arm/arm-none-eabi/include/c++/10.3.1/array ****  template<typename _Tp>
  64:/Library/DaisyToolchain/0.2.0/arm/arm-none-eabi/include/c++/10.3.1/array ****    struct __array_traits<_Tp, 0>
  65:/Library/DaisyToolchain/0.2.0/arm/arm-none-eabi/include/c++/10.3.1/array ****    {
  66:/Library/DaisyToolchain/0.2.0/arm/arm-none-eabi/include/c++/10.3.1/array ****      struct _Type { };
  67:/Library/DaisyToolchain/0.2.0/arm/arm-none-eabi/include/c++/10.3.1/array ****      typedef true_type _Is_swappable;
  68:/Library/DaisyToolchain/0.2.0/arm/arm-none-eabi/include/c++/10.3.1/array ****      typedef true_type _Is_nothrow_swappable;
  69:/Library/DaisyToolchain/0.2.0/arm/arm-none-eabi/include/c++/10.3.1/array **** 
ARM GAS  /var/folders/s6/2bsynnl15rj0bwtb9pgx4dc00000gn/T//cc9fWWk9.s 			page 4


  70:/Library/DaisyToolchain/0.2.0/arm/arm-none-eabi/include/c++/10.3.1/array ****      static constexpr _Tp&
  71:/Library/DaisyToolchain/0.2.0/arm/arm-none-eabi/include/c++/10.3.1/array ****      _S_ref(const _Type&, std::size_t) noexcept
  72:/Library/DaisyToolchain/0.2.0/arm/arm-none-eabi/include/c++/10.3.1/array ****      { return *static_cast<_Tp*>(nullptr); }
  73:/Library/DaisyToolchain/0.2.0/arm/arm-none-eabi/include/c++/10.3.1/array **** 
  74:/Library/DaisyToolchain/0.2.0/arm/arm-none-eabi/include/c++/10.3.1/array ****      static constexpr _Tp*
  75:/Library/DaisyToolchain/0.2.0/arm/arm-none-eabi/include/c++/10.3.1/array ****      _S_ptr(const _Type&) noexcept
  76:/Library/DaisyToolchain/0.2.0/arm/arm-none-eabi/include/c++/10.3.1/array ****      { return nullptr; }
  77:/Library/DaisyToolchain/0.2.0/arm/arm-none-eabi/include/c++/10.3.1/array ****    };
  78:/Library/DaisyToolchain/0.2.0/arm/arm-none-eabi/include/c++/10.3.1/array **** 
  79:/Library/DaisyToolchain/0.2.0/arm/arm-none-eabi/include/c++/10.3.1/array ****   /**
  80:/Library/DaisyToolchain/0.2.0/arm/arm-none-eabi/include/c++/10.3.1/array ****    *  @brief A standard container for storing a fixed size sequence of elements.
  81:/Library/DaisyToolchain/0.2.0/arm/arm-none-eabi/include/c++/10.3.1/array ****    *
  82:/Library/DaisyToolchain/0.2.0/arm/arm-none-eabi/include/c++/10.3.1/array ****    *  @ingroup sequences
  83:/Library/DaisyToolchain/0.2.0/arm/arm-none-eabi/include/c++/10.3.1/array ****    *
  84:/Library/DaisyToolchain/0.2.0/arm/arm-none-eabi/include/c++/10.3.1/array ****    *  Meets the requirements of a <a href="tables.html#65">container</a>, a
  85:/Library/DaisyToolchain/0.2.0/arm/arm-none-eabi/include/c++/10.3.1/array ****    *  <a href="tables.html#66">reversible container</a>, and a
  86:/Library/DaisyToolchain/0.2.0/arm/arm-none-eabi/include/c++/10.3.1/array ****    *  <a href="tables.html#67">sequence</a>.
  87:/Library/DaisyToolchain/0.2.0/arm/arm-none-eabi/include/c++/10.3.1/array ****    *
  88:/Library/DaisyToolchain/0.2.0/arm/arm-none-eabi/include/c++/10.3.1/array ****    *  Sets support random access iterators.
  89:/Library/DaisyToolchain/0.2.0/arm/arm-none-eabi/include/c++/10.3.1/array ****    *
  90:/Library/DaisyToolchain/0.2.0/arm/arm-none-eabi/include/c++/10.3.1/array ****    *  @tparam  Tp  Type of element. Required to be a complete type.
  91:/Library/DaisyToolchain/0.2.0/arm/arm-none-eabi/include/c++/10.3.1/array ****    *  @tparam  Nm  Number of elements.
  92:/Library/DaisyToolchain/0.2.0/arm/arm-none-eabi/include/c++/10.3.1/array ****   */
  93:/Library/DaisyToolchain/0.2.0/arm/arm-none-eabi/include/c++/10.3.1/array ****   template<typename _Tp, std::size_t _Nm>
  94:/Library/DaisyToolchain/0.2.0/arm/arm-none-eabi/include/c++/10.3.1/array ****     struct array
  56              		.loc 3 94 12 is_stmt 1 view .LVU5
  57              		.loc 3 94 12 is_stmt 0 view .LVU6
  58              	.LBE140:
  59              		.loc 1 5 7 view .LVU7
  60 0008 FFF7FEFF 		bl	_ZN5SoundD2Ev
  61              	.LVL2:
  62              		.loc 1 5 7 view .LVU8
  63              	.LBE141:
  64 000c 2046     		mov	r0, r4
  65 000e 10BD     		pop	{r4, pc}
  66              	.LVL3:
  67              	.L5:
  68              		.loc 1 5 7 view .LVU9
  69              		.align	2
  70              	.L4:
  71 0010 08000000 		.word	.LANCHOR0+8
  72              		.cfi_endproc
  73              	.LFE5331:
  75              		.weak	_ZN7SpiritsD1Ev
  76              		.thumb_set _ZN7SpiritsD1Ev,_ZN7SpiritsD2Ev
  77              		.section	.text._ZN7SpiritsD0Ev,"axG",%progbits,_ZN7SpiritsD5Ev,comdat
  78              		.align	1
  79              		.p2align 2,,3
  80              		.weak	_ZN7SpiritsD0Ev
  81              		.syntax unified
  82              		.thumb
  83              		.thumb_func
  85              	_ZN7SpiritsD0Ev:
  86              	.LVL4:
  87              	.LFB5333:
  88              		.loc 1 5 7 is_stmt 1 view -0
  89              		.cfi_startproc
ARM GAS  /var/folders/s6/2bsynnl15rj0bwtb9pgx4dc00000gn/T//cc9fWWk9.s 			page 5


  90              		@ args = 0, pretend = 0, frame = 0
  91              		@ frame_needed = 0, uses_anonymous_args = 0
  92              	.LBB142:
  93              	.LBB143:
  94              		.loc 1 5 7 is_stmt 0 view .LVU11
  95 0000 064B     		ldr	r3, .L8
  96              	.LBE143:
  97              	.LBE142:
  98 0002 10B5     		push	{r4, lr}
  99              		.cfi_def_cfa_offset 8
 100              		.cfi_offset 4, -8
 101              		.cfi_offset 14, -4
 102              		.loc 1 5 7 view .LVU12
 103 0004 0446     		mov	r4, r0
 104              	.LVL5:
 105              	.LBB147:
 106              	.LBI142:
 107              		.loc 1 5 7 is_stmt 1 view .LVU13
 108              	.LBB146:
 109 0006 0360     		str	r3, [r0]
 110              	.LVL6:
 111              	.LBB144:
 112              	.LBI144:
 113              		.loc 2 43 5 view .LVU14
 114              		.loc 2 43 5 is_stmt 0 view .LVU15
 115              	.LBE144:
 116              	.LBB145:
 117              	.LBI145:
 118              		.loc 3 94 12 is_stmt 1 view .LVU16
 119              		.loc 3 94 12 is_stmt 0 view .LVU17
 120              	.LBE145:
 121              		.loc 1 5 7 view .LVU18
 122 0008 FFF7FEFF 		bl	_ZN5SoundD2Ev
 123              	.LVL7:
 124              		.loc 1 5 7 view .LVU19
 125              	.LBE146:
 126              	.LBE147:
 127 000c 40F20441 		movw	r1, #1028
 128 0010 2046     		mov	r0, r4
 129 0012 FFF7FEFF 		bl	_ZdlPvj
 130              	.LVL8:
 131 0016 2046     		mov	r0, r4
 132 0018 10BD     		pop	{r4, pc}
 133              	.LVL9:
 134              	.L9:
 135              		.loc 1 5 7 view .LVU20
 136 001a 00BF     		.align	2
 137              	.L8:
 138 001c 08000000 		.word	.LANCHOR0+8
 139              		.cfi_endproc
 140              	.LFE5333:
 142              		.section	.text._ZN7Spirits7ProcessEv,"ax",%progbits
 143              		.align	1
 144              		.p2align 2,,3
 145              		.global	_ZN7Spirits7ProcessEv
 146              		.syntax unified
 147              		.thumb
ARM GAS  /var/folders/s6/2bsynnl15rj0bwtb9pgx4dc00000gn/T//cc9fWWk9.s 			page 6


 148              		.thumb_func
 150              	_ZN7Spirits7ProcessEv:
 151              	.LVL10:
 152              	.LFB4748:
 153              		.file 4 "Spirits.cpp"
   1:Spirits.cpp   **** #include "Spirits.h"
   2:Spirits.cpp   **** #include <cmath>
   3:Spirits.cpp   **** 
   4:Spirits.cpp   **** using namespace daisysp;
   5:Spirits.cpp   **** extern daisy::DaisySeed hw;
   6:Spirits.cpp   **** 
   7:Spirits.cpp   **** // Assuming you have a macro for DSY_SDRAM_BSS
   8:Spirits.cpp   **** #define DSY_SDRAM_BSS __attribute__((section(".sdram_bss")))
   9:Spirits.cpp   **** 
  10:Spirits.cpp   **** // Define the chords array and place it in a different SDRAM section
  11:Spirits.cpp   **** const std::array<float, Spirits::NUM_OSCILLATORS> Spirits::chords[NUM_CHORDS] __attribute__((sectio
  12:Spirits.cpp   ****     {261.63f, 329.63f, 392.00f},  // C major: C4, E4, G4
  13:Spirits.cpp   ****     {293.66f, 349.23f, 440.00f},  // D minor: D4, F4, A4
  14:Spirits.cpp   ****     {329.63f, 392.00f, 493.88f},  // E minor: E4, G4, B4
  15:Spirits.cpp   ****     {349.23f, 440.00f, 523.25f},  // F major: F4, A4, C5
  16:Spirits.cpp   ****     {392.00f, 493.88f, 587.33f},  // G major: G4, B4, D5
  17:Spirits.cpp   ****     {440.00f, 523.25f, 659.25f},  // A minor: A4, C5, E5
  18:Spirits.cpp   ****     {493.88f, 587.33f, 698.46f}   // B diminished: B4, D5, F5
  19:Spirits.cpp   **** };
  20:Spirits.cpp   **** 
  21:Spirits.cpp   **** // Define the huge array in SDRAM
  22:Spirits.cpp   **** float hugeArray[1024 * 1024] DSY_SDRAM_BSS;  // 1 million floats
  23:Spirits.cpp   **** 
  24:Spirits.cpp   **** Spirits::Spirits() : isPlaying(false), currentChord(0) {}
  25:Spirits.cpp   **** 
  26:Spirits.cpp   **** void Spirits::Init(float sample_rate) {
  27:Spirits.cpp   ****     Sound::Init(sample_rate);  // Call base class Init
  28:Spirits.cpp   ****     sampleRate = sample_rate;
  29:Spirits.cpp   ****     for (auto& chord : oscs) {
  30:Spirits.cpp   ****         for (auto& osc : chord) {
  31:Spirits.cpp   ****             osc.Init(sampleRate);
  32:Spirits.cpp   ****             osc.SetWaveform(Oscillator::WAVE_RAMP);
  33:Spirits.cpp   ****             osc.SetAmp(0.6f / NUM_OSCILLATORS);
  34:Spirits.cpp   ****         }
  35:Spirits.cpp   ****     }
  36:Spirits.cpp   **** 
  37:Spirits.cpp   ****     // Set up chords for C major
  38:Spirits.cpp   ****     for (int i = 0; i < NUM_CHORDS; ++i) {
  39:Spirits.cpp   ****         SetChord(i, chords[i]);
  40:Spirits.cpp   ****     }
  41:Spirits.cpp   **** 
  42:Spirits.cpp   ****     env.Init(sampleRate);
  43:Spirits.cpp   ****     env.SetTime(ADENV_SEG_ATTACK, attack);
  44:Spirits.cpp   ****     env.SetTime(ADENV_SEG_DECAY, decay);
  45:Spirits.cpp   ****     env.SetMin(0.0);
  46:Spirits.cpp   ****     env.SetMax(sustain);
  47:Spirits.cpp   ****     env.SetCurve(0.0f);  // Linear curve
  48:Spirits.cpp   **** 
  49:Spirits.cpp   ****     // Initialize the huge array with some values
  50:Spirits.cpp   ****     for (int i = 0; i < 1024 * 1024; ++i) {
  51:Spirits.cpp   ****         hugeArray[i] = static_cast<float>(i) / (1024 * 1024);
  52:Spirits.cpp   ****     }
ARM GAS  /var/folders/s6/2bsynnl15rj0bwtb9pgx4dc00000gn/T//cc9fWWk9.s 			page 7


  53:Spirits.cpp   **** }
  54:Spirits.cpp   **** 
  55:Spirits.cpp   **** float Spirits::Process() {
 154              		.loc 4 55 26 is_stmt 1 view -0
 155              		.cfi_startproc
 156              		@ args = 0, pretend = 0, frame = 0
 157              		@ frame_needed = 0, uses_anonymous_args = 0
  56:Spirits.cpp   ****     if (!isPlaying) return 0.0f;
 158              		.loc 4 56 5 view .LVU22
 159 0000 90F8FC33 		ldrb	r3, [r0, #1020]	@ zero_extendqisi2
 160 0004 13B9     		cbnz	r3, .L23
 161              		.loc 4 56 28 is_stmt 0 view .LVU23
 162 0006 9FED240A 		vldr.32	s0, .L25
  57:Spirits.cpp   **** 
  58:Spirits.cpp   ****     float env_out = env.Process();
  59:Spirits.cpp   ****     if (env_out < 0.001f) {
  60:Spirits.cpp   ****         isPlaying = false;
  61:Spirits.cpp   ****         return 0.0f;
  62:Spirits.cpp   ****     }
  63:Spirits.cpp   **** 
  64:Spirits.cpp   ****     float output = 0.0f;
  65:Spirits.cpp   ****     for (auto& osc : oscs[currentChord]) {
  66:Spirits.cpp   ****         output += osc.Process() * env_out;
  67:Spirits.cpp   ****     }
  68:Spirits.cpp   **** 
  69:Spirits.cpp   ****     // Apply low-pass filter (simple first-order)
  70:Spirits.cpp   ****     static float lastOutput = 0.0f;
  71:Spirits.cpp   ****     float alpha = cutoff / (cutoff + sampleRate);
  72:Spirits.cpp   ****     output = alpha * output + (1.0f - alpha) * lastOutput;
  73:Spirits.cpp   ****     lastOutput = output;
  74:Spirits.cpp   **** 
  75:Spirits.cpp   ****     return output;
  76:Spirits.cpp   **** }
 163              		.loc 4 76 1 view .LVU24
 164 000a 7047     		bx	lr
 165              	.L23:
 166              	.LVL11:
 167              	.LBB159:
 168              	.LBI159:
  55:Spirits.cpp   ****     if (!isPlaying) return 0.0f;
 169              		.loc 4 55 7 is_stmt 1 view .LVU25
 170              	.LBB160:
  58:Spirits.cpp   ****     if (env_out < 0.001f) {
 171              		.loc 4 58 5 view .LVU26
 172              	.LBE160:
 173              	.LBE159:
  55:Spirits.cpp   ****     if (!isPlaying) return 0.0f;
 174              		.loc 4 55 26 is_stmt 0 view .LVU27
 175 000c 70B5     		push	{r4, r5, r6, lr}
 176              		.cfi_def_cfa_offset 16
 177              		.cfi_offset 4, -16
 178              		.cfi_offset 5, -12
 179              		.cfi_offset 6, -8
 180              		.cfi_offset 14, -4
 181 000e 0546     		mov	r5, r0
 182              	.LBB176:
 183              	.LBB171:
ARM GAS  /var/folders/s6/2bsynnl15rj0bwtb9pgx4dc00000gn/T//cc9fWWk9.s 			page 8


  58:Spirits.cpp   ****     if (env_out < 0.001f) {
 184              		.loc 4 58 32 view .LVU28
 185 0010 00F57170 		add	r0, r0, #964
 186              	.LVL12:
  58:Spirits.cpp   ****     if (env_out < 0.001f) {
 187              		.loc 4 58 32 view .LVU29
 188              	.LBE171:
 189              	.LBE176:
  55:Spirits.cpp   ****     if (!isPlaying) return 0.0f;
 190              		.loc 4 55 26 view .LVU30
 191 0014 2DED028B 		vpush.64	{d8}
 192              		.cfi_def_cfa_offset 24
 193              		.cfi_offset 80, -24
 194              		.cfi_offset 81, -20
 195              	.LBB177:
 196              	.LBB172:
  58:Spirits.cpp   ****     if (env_out < 0.001f) {
 197              		.loc 4 58 32 view .LVU31
 198 0018 FFF7FEFF 		bl	_ZN7daisysp5AdEnv7ProcessEv
 199              	.LVL13:
  59:Spirits.cpp   ****         isPlaying = false;
 200              		.loc 4 59 5 view .LVU32
 201 001c DFED1F7A 		vldr.32	s15, .L25+4
  58:Spirits.cpp   ****     if (env_out < 0.001f) {
 202              		.loc 4 58 32 view .LVU33
 203 0020 F0EE408A 		vmov.f32	s17, s0
 204              	.LVL14:
  59:Spirits.cpp   ****         isPlaying = false;
 205              		.loc 4 59 5 is_stmt 1 view .LVU34
 206 0024 B4EEE70A 		vcmpe.f32	s0, s15
 207 0028 F1EE10FA 		vmrs	APSR_nzcv, FPSCR
 208 002c 2BD4     		bmi	.L24
  64:Spirits.cpp   ****     for (auto& osc : oscs[currentChord]) {
 209              		.loc 4 64 5 view .LVU35
 210              	.LVL15:
  65:Spirits.cpp   ****         output += osc.Process() * env_out;
 211              		.loc 4 65 5 view .LVU36
 212              	.LBB161:
 213              	.LBB162:
 214              	.LBI162:
  95:/Library/DaisyToolchain/0.2.0/arm/arm-none-eabi/include/c++/10.3.1/array ****     {
  96:/Library/DaisyToolchain/0.2.0/arm/arm-none-eabi/include/c++/10.3.1/array ****       typedef _Tp 	    			      value_type;
  97:/Library/DaisyToolchain/0.2.0/arm/arm-none-eabi/include/c++/10.3.1/array ****       typedef value_type*			      pointer;
  98:/Library/DaisyToolchain/0.2.0/arm/arm-none-eabi/include/c++/10.3.1/array ****       typedef const value_type*                       const_pointer;
  99:/Library/DaisyToolchain/0.2.0/arm/arm-none-eabi/include/c++/10.3.1/array ****       typedef value_type&                   	      reference;
 100:/Library/DaisyToolchain/0.2.0/arm/arm-none-eabi/include/c++/10.3.1/array ****       typedef const value_type&             	      const_reference;
 101:/Library/DaisyToolchain/0.2.0/arm/arm-none-eabi/include/c++/10.3.1/array ****       typedef value_type*          		      iterator;
 102:/Library/DaisyToolchain/0.2.0/arm/arm-none-eabi/include/c++/10.3.1/array ****       typedef const value_type*			      const_iterator;
 103:/Library/DaisyToolchain/0.2.0/arm/arm-none-eabi/include/c++/10.3.1/array ****       typedef std::size_t                    	      size_type;
 104:/Library/DaisyToolchain/0.2.0/arm/arm-none-eabi/include/c++/10.3.1/array ****       typedef std::ptrdiff_t                   	      difference_type;
 105:/Library/DaisyToolchain/0.2.0/arm/arm-none-eabi/include/c++/10.3.1/array ****       typedef std::reverse_iterator<iterator>	      reverse_iterator;
 106:/Library/DaisyToolchain/0.2.0/arm/arm-none-eabi/include/c++/10.3.1/array ****       typedef std::reverse_iterator<const_iterator>   const_reverse_iterator;
 107:/Library/DaisyToolchain/0.2.0/arm/arm-none-eabi/include/c++/10.3.1/array **** 
 108:/Library/DaisyToolchain/0.2.0/arm/arm-none-eabi/include/c++/10.3.1/array ****       // Support for zero-sized arrays mandatory.
 109:/Library/DaisyToolchain/0.2.0/arm/arm-none-eabi/include/c++/10.3.1/array ****       typedef _GLIBCXX_STD_C::__array_traits<_Tp, _Nm> _AT_Type;
 110:/Library/DaisyToolchain/0.2.0/arm/arm-none-eabi/include/c++/10.3.1/array ****       typename _AT_Type::_Type                         _M_elems;
 111:/Library/DaisyToolchain/0.2.0/arm/arm-none-eabi/include/c++/10.3.1/array **** 
ARM GAS  /var/folders/s6/2bsynnl15rj0bwtb9pgx4dc00000gn/T//cc9fWWk9.s 			page 9


 112:/Library/DaisyToolchain/0.2.0/arm/arm-none-eabi/include/c++/10.3.1/array ****       // No explicit construct/copy/destroy for aggregate type.
 113:/Library/DaisyToolchain/0.2.0/arm/arm-none-eabi/include/c++/10.3.1/array **** 
 114:/Library/DaisyToolchain/0.2.0/arm/arm-none-eabi/include/c++/10.3.1/array ****       // DR 776.
 115:/Library/DaisyToolchain/0.2.0/arm/arm-none-eabi/include/c++/10.3.1/array ****       _GLIBCXX20_CONSTEXPR void
 116:/Library/DaisyToolchain/0.2.0/arm/arm-none-eabi/include/c++/10.3.1/array ****       fill(const value_type& __u)
 117:/Library/DaisyToolchain/0.2.0/arm/arm-none-eabi/include/c++/10.3.1/array ****       { std::fill_n(begin(), size(), __u); }
 118:/Library/DaisyToolchain/0.2.0/arm/arm-none-eabi/include/c++/10.3.1/array **** 
 119:/Library/DaisyToolchain/0.2.0/arm/arm-none-eabi/include/c++/10.3.1/array ****       _GLIBCXX20_CONSTEXPR void
 120:/Library/DaisyToolchain/0.2.0/arm/arm-none-eabi/include/c++/10.3.1/array ****       swap(array& __other)
 121:/Library/DaisyToolchain/0.2.0/arm/arm-none-eabi/include/c++/10.3.1/array ****       noexcept(_AT_Type::_Is_nothrow_swappable::value)
 122:/Library/DaisyToolchain/0.2.0/arm/arm-none-eabi/include/c++/10.3.1/array ****       { std::swap_ranges(begin(), end(), __other.begin()); }
 123:/Library/DaisyToolchain/0.2.0/arm/arm-none-eabi/include/c++/10.3.1/array **** 
 124:/Library/DaisyToolchain/0.2.0/arm/arm-none-eabi/include/c++/10.3.1/array ****       // Iterators.
 125:/Library/DaisyToolchain/0.2.0/arm/arm-none-eabi/include/c++/10.3.1/array ****       _GLIBCXX17_CONSTEXPR iterator
 126:/Library/DaisyToolchain/0.2.0/arm/arm-none-eabi/include/c++/10.3.1/array ****       begin() noexcept
 127:/Library/DaisyToolchain/0.2.0/arm/arm-none-eabi/include/c++/10.3.1/array ****       { return iterator(data()); }
 128:/Library/DaisyToolchain/0.2.0/arm/arm-none-eabi/include/c++/10.3.1/array **** 
 129:/Library/DaisyToolchain/0.2.0/arm/arm-none-eabi/include/c++/10.3.1/array ****       _GLIBCXX17_CONSTEXPR const_iterator
 130:/Library/DaisyToolchain/0.2.0/arm/arm-none-eabi/include/c++/10.3.1/array ****       begin() const noexcept
 131:/Library/DaisyToolchain/0.2.0/arm/arm-none-eabi/include/c++/10.3.1/array ****       { return const_iterator(data()); }
 132:/Library/DaisyToolchain/0.2.0/arm/arm-none-eabi/include/c++/10.3.1/array **** 
 133:/Library/DaisyToolchain/0.2.0/arm/arm-none-eabi/include/c++/10.3.1/array ****       _GLIBCXX17_CONSTEXPR iterator
 134:/Library/DaisyToolchain/0.2.0/arm/arm-none-eabi/include/c++/10.3.1/array ****       end() noexcept
 135:/Library/DaisyToolchain/0.2.0/arm/arm-none-eabi/include/c++/10.3.1/array ****       { return iterator(data() + _Nm); }
 136:/Library/DaisyToolchain/0.2.0/arm/arm-none-eabi/include/c++/10.3.1/array **** 
 137:/Library/DaisyToolchain/0.2.0/arm/arm-none-eabi/include/c++/10.3.1/array ****       _GLIBCXX17_CONSTEXPR const_iterator
 138:/Library/DaisyToolchain/0.2.0/arm/arm-none-eabi/include/c++/10.3.1/array ****       end() const noexcept
 139:/Library/DaisyToolchain/0.2.0/arm/arm-none-eabi/include/c++/10.3.1/array ****       { return const_iterator(data() + _Nm); }
 140:/Library/DaisyToolchain/0.2.0/arm/arm-none-eabi/include/c++/10.3.1/array **** 
 141:/Library/DaisyToolchain/0.2.0/arm/arm-none-eabi/include/c++/10.3.1/array ****       _GLIBCXX17_CONSTEXPR reverse_iterator
 142:/Library/DaisyToolchain/0.2.0/arm/arm-none-eabi/include/c++/10.3.1/array ****       rbegin() noexcept
 143:/Library/DaisyToolchain/0.2.0/arm/arm-none-eabi/include/c++/10.3.1/array ****       { return reverse_iterator(end()); }
 144:/Library/DaisyToolchain/0.2.0/arm/arm-none-eabi/include/c++/10.3.1/array **** 
 145:/Library/DaisyToolchain/0.2.0/arm/arm-none-eabi/include/c++/10.3.1/array ****       _GLIBCXX17_CONSTEXPR const_reverse_iterator
 146:/Library/DaisyToolchain/0.2.0/arm/arm-none-eabi/include/c++/10.3.1/array ****       rbegin() const noexcept
 147:/Library/DaisyToolchain/0.2.0/arm/arm-none-eabi/include/c++/10.3.1/array ****       { return const_reverse_iterator(end()); }
 148:/Library/DaisyToolchain/0.2.0/arm/arm-none-eabi/include/c++/10.3.1/array **** 
 149:/Library/DaisyToolchain/0.2.0/arm/arm-none-eabi/include/c++/10.3.1/array ****       _GLIBCXX17_CONSTEXPR reverse_iterator
 150:/Library/DaisyToolchain/0.2.0/arm/arm-none-eabi/include/c++/10.3.1/array ****       rend() noexcept
 151:/Library/DaisyToolchain/0.2.0/arm/arm-none-eabi/include/c++/10.3.1/array ****       { return reverse_iterator(begin()); }
 152:/Library/DaisyToolchain/0.2.0/arm/arm-none-eabi/include/c++/10.3.1/array **** 
 153:/Library/DaisyToolchain/0.2.0/arm/arm-none-eabi/include/c++/10.3.1/array ****       _GLIBCXX17_CONSTEXPR const_reverse_iterator
 154:/Library/DaisyToolchain/0.2.0/arm/arm-none-eabi/include/c++/10.3.1/array ****       rend() const noexcept
 155:/Library/DaisyToolchain/0.2.0/arm/arm-none-eabi/include/c++/10.3.1/array ****       { return const_reverse_iterator(begin()); }
 156:/Library/DaisyToolchain/0.2.0/arm/arm-none-eabi/include/c++/10.3.1/array **** 
 157:/Library/DaisyToolchain/0.2.0/arm/arm-none-eabi/include/c++/10.3.1/array ****       _GLIBCXX17_CONSTEXPR const_iterator
 158:/Library/DaisyToolchain/0.2.0/arm/arm-none-eabi/include/c++/10.3.1/array ****       cbegin() const noexcept
 159:/Library/DaisyToolchain/0.2.0/arm/arm-none-eabi/include/c++/10.3.1/array ****       { return const_iterator(data()); }
 160:/Library/DaisyToolchain/0.2.0/arm/arm-none-eabi/include/c++/10.3.1/array **** 
 161:/Library/DaisyToolchain/0.2.0/arm/arm-none-eabi/include/c++/10.3.1/array ****       _GLIBCXX17_CONSTEXPR const_iterator
 162:/Library/DaisyToolchain/0.2.0/arm/arm-none-eabi/include/c++/10.3.1/array ****       cend() const noexcept
 163:/Library/DaisyToolchain/0.2.0/arm/arm-none-eabi/include/c++/10.3.1/array ****       { return const_iterator(data() + _Nm); }
 164:/Library/DaisyToolchain/0.2.0/arm/arm-none-eabi/include/c++/10.3.1/array **** 
 165:/Library/DaisyToolchain/0.2.0/arm/arm-none-eabi/include/c++/10.3.1/array ****       _GLIBCXX17_CONSTEXPR const_reverse_iterator
 166:/Library/DaisyToolchain/0.2.0/arm/arm-none-eabi/include/c++/10.3.1/array ****       crbegin() const noexcept
 167:/Library/DaisyToolchain/0.2.0/arm/arm-none-eabi/include/c++/10.3.1/array ****       { return const_reverse_iterator(end()); }
 168:/Library/DaisyToolchain/0.2.0/arm/arm-none-eabi/include/c++/10.3.1/array **** 
ARM GAS  /var/folders/s6/2bsynnl15rj0bwtb9pgx4dc00000gn/T//cc9fWWk9.s 			page 10


 169:/Library/DaisyToolchain/0.2.0/arm/arm-none-eabi/include/c++/10.3.1/array ****       _GLIBCXX17_CONSTEXPR const_reverse_iterator
 170:/Library/DaisyToolchain/0.2.0/arm/arm-none-eabi/include/c++/10.3.1/array ****       crend() const noexcept
 171:/Library/DaisyToolchain/0.2.0/arm/arm-none-eabi/include/c++/10.3.1/array ****       { return const_reverse_iterator(begin()); }
 172:/Library/DaisyToolchain/0.2.0/arm/arm-none-eabi/include/c++/10.3.1/array **** 
 173:/Library/DaisyToolchain/0.2.0/arm/arm-none-eabi/include/c++/10.3.1/array ****       // Capacity.
 174:/Library/DaisyToolchain/0.2.0/arm/arm-none-eabi/include/c++/10.3.1/array ****       constexpr size_type
 175:/Library/DaisyToolchain/0.2.0/arm/arm-none-eabi/include/c++/10.3.1/array ****       size() const noexcept { return _Nm; }
 176:/Library/DaisyToolchain/0.2.0/arm/arm-none-eabi/include/c++/10.3.1/array **** 
 177:/Library/DaisyToolchain/0.2.0/arm/arm-none-eabi/include/c++/10.3.1/array ****       constexpr size_type
 178:/Library/DaisyToolchain/0.2.0/arm/arm-none-eabi/include/c++/10.3.1/array ****       max_size() const noexcept { return _Nm; }
 179:/Library/DaisyToolchain/0.2.0/arm/arm-none-eabi/include/c++/10.3.1/array **** 
 180:/Library/DaisyToolchain/0.2.0/arm/arm-none-eabi/include/c++/10.3.1/array ****       _GLIBCXX_NODISCARD constexpr bool
 181:/Library/DaisyToolchain/0.2.0/arm/arm-none-eabi/include/c++/10.3.1/array ****       empty() const noexcept { return size() == 0; }
 182:/Library/DaisyToolchain/0.2.0/arm/arm-none-eabi/include/c++/10.3.1/array **** 
 183:/Library/DaisyToolchain/0.2.0/arm/arm-none-eabi/include/c++/10.3.1/array ****       // Element access.
 184:/Library/DaisyToolchain/0.2.0/arm/arm-none-eabi/include/c++/10.3.1/array ****       _GLIBCXX17_CONSTEXPR reference
 185:/Library/DaisyToolchain/0.2.0/arm/arm-none-eabi/include/c++/10.3.1/array ****       operator[](size_type __n) noexcept
 215              		.loc 3 185 7 view .LVU37
 216              	.LBB163:
 217              	.LBI163:
  55:/Library/DaisyToolchain/0.2.0/arm/arm-none-eabi/include/c++/10.3.1/array ****       { return const_cast<_Tp&>(__t[__n]); }
 218              		.loc 3 55 7 view .LVU38
  55:/Library/DaisyToolchain/0.2.0/arm/arm-none-eabi/include/c++/10.3.1/array ****       { return const_cast<_Tp&>(__t[__n]); }
 219              		.loc 3 55 7 is_stmt 0 view .LVU39
 220              	.LBE163:
 221              	.LBE162:
  65:Spirits.cpp   ****         output += osc.Process() * env_out;
 222              		.loc 4 65 39 is_stmt 1 view .LVU40
 223              	.LBB168:
 224              	.LBB166:
 225              	.LBB164:
  56:/Library/DaisyToolchain/0.2.0/arm/arm-none-eabi/include/c++/10.3.1/array **** 
 226              		.loc 3 56 41 is_stmt 0 view .LVU41
 227 002e D5F80034 		ldr	r3, [r5, #1024]
 228 0032 05F12804 		add	r4, r5, #40
 229              	.LBE164:
 230              	.LBE166:
 231              	.LBE168:
 232              	.LBE161:
  64:Spirits.cpp   ****     for (auto& osc : oscs[currentChord]) {
 233              		.loc 4 64 11 view .LVU42
 234 0036 9FED188A 		vldr.32	s16, .L25
 235              	.LBB170:
 236              	.LBB169:
 237              	.LBB167:
 238              	.LBB165:
  56:/Library/DaisyToolchain/0.2.0/arm/arm-none-eabi/include/c++/10.3.1/array **** 
 239              		.loc 3 56 41 view .LVU43
 240 003a 03EB4313 		add	r3, r3, r3, lsl #5
 241 003e 04EB8304 		add	r4, r4, r3, lsl #2
 242 0042 04F18406 		add	r6, r4, #132
 243              	.LVL16:
 244              	.L14:
  56:/Library/DaisyToolchain/0.2.0/arm/arm-none-eabi/include/c++/10.3.1/array **** 
 245              		.loc 3 56 41 view .LVU44
 246              	.LBE165:
 247              	.LBE167:
ARM GAS  /var/folders/s6/2bsynnl15rj0bwtb9pgx4dc00000gn/T//cc9fWWk9.s 			page 11


 248              	.LBE169:
  66:Spirits.cpp   ****     }
 249              		.loc 4 66 9 is_stmt 1 view .LVU45
  66:Spirits.cpp   ****     }
 250              		.loc 4 66 30 is_stmt 0 view .LVU46
 251 0046 2046     		mov	r0, r4
  65:Spirits.cpp   ****         output += osc.Process() * env_out;
 252              		.loc 4 65 39 view .LVU47
 253 0048 2C34     		adds	r4, r4, #44
 254              	.LVL17:
  66:Spirits.cpp   ****     }
 255              		.loc 4 66 30 view .LVU48
 256 004a FFF7FEFF 		bl	_ZN7daisysp10Oscillator7ProcessEv
 257              	.LVL18:
  66:Spirits.cpp   ****     }
 258              		.loc 4 66 16 view .LVU49
 259 004e A8EE808A 		vfma.f32	s16, s17, s0
 260              	.LVL19:
  65:Spirits.cpp   ****         output += osc.Process() * env_out;
 261              		.loc 4 65 5 is_stmt 1 view .LVU50
  65:Spirits.cpp   ****         output += osc.Process() * env_out;
 262              		.loc 4 65 39 view .LVU51
 263 0052 B442     		cmp	r4, r6
 264 0054 F7D1     		bne	.L14
 265              	.LBE170:
  70:Spirits.cpp   ****     float alpha = cutoff / (cutoff + sampleRate);
 266              		.loc 4 70 5 view .LVU52
  71:Spirits.cpp   ****     output = alpha * output + (1.0f - alpha) * lastOutput;
 267              		.loc 4 71 5 view .LVU53
  71:Spirits.cpp   ****     output = alpha * output + (1.0f - alpha) * lastOutput;
 268              		.loc 4 71 19 is_stmt 0 view .LVU54
 269 0056 D5ED056A 		vldr.32	s13, [r5, #20]
  72:Spirits.cpp   ****     lastOutput = output;
 270              		.loc 4 72 37 view .LVU55
 271 005a B7EE000A 		vmov.f32	s0, #1.0e+0
  71:Spirits.cpp   ****     output = alpha * output + (1.0f - alpha) * lastOutput;
 272              		.loc 4 71 36 view .LVU56
 273 005e D5ED097A 		vldr.32	s15, [r5, #36]
  72:Spirits.cpp   ****     lastOutput = output;
 274              		.loc 4 72 46 view .LVU57
 275 0062 0F4B     		ldr	r3, .L25+8
  71:Spirits.cpp   ****     output = alpha * output + (1.0f - alpha) * lastOutput;
 276              		.loc 4 71 36 view .LVU58
 277 0064 76EEA77A 		vadd.f32	s15, s13, s15
  72:Spirits.cpp   ****     lastOutput = output;
 278              		.loc 4 72 46 view .LVU59
 279 0068 93ED006A 		vldr.32	s12, [r3]
  71:Spirits.cpp   ****     output = alpha * output + (1.0f - alpha) * lastOutput;
 280              		.loc 4 71 11 view .LVU60
 281 006c 86EEA77A 		vdiv.f32	s14, s13, s15
 282              	.LVL20:
  72:Spirits.cpp   ****     lastOutput = output;
 283              		.loc 4 72 5 is_stmt 1 view .LVU61
  72:Spirits.cpp   ****     lastOutput = output;
 284              		.loc 4 72 37 is_stmt 0 view .LVU62
 285 0070 30EE470A 		vsub.f32	s0, s0, s14
  72:Spirits.cpp   ****     lastOutput = output;
ARM GAS  /var/folders/s6/2bsynnl15rj0bwtb9pgx4dc00000gn/T//cc9fWWk9.s 			page 12


 286              		.loc 4 72 46 view .LVU63
 287 0074 20EE060A 		vmul.f32	s0, s0, s12
  72:Spirits.cpp   ****     lastOutput = output;
 288              		.loc 4 72 12 view .LVU64
 289 0078 A8EE070A 		vfma.f32	s0, s16, s14
 290              	.LVL21:
  73:Spirits.cpp   **** 
 291              		.loc 4 73 5 is_stmt 1 view .LVU65
 292              	.LBE172:
 293              	.LBE177:
 294              		.loc 4 76 1 is_stmt 0 view .LVU66
 295 007c BDEC028B 		vldm	sp!, {d8}
 296              		.cfi_remember_state
 297              		.cfi_restore 80
 298              		.cfi_restore 81
 299              		.cfi_def_cfa_offset 16
 300              	.LBB178:
 301              	.LBB173:
  73:Spirits.cpp   **** 
 302              		.loc 4 73 16 view .LVU67
 303 0080 83ED000A 		vstr.32	s0, [r3]
  75:Spirits.cpp   **** }
 304              		.loc 4 75 5 is_stmt 1 view .LVU68
 305              	.LBE173:
 306              	.LBE178:
 307              		.loc 4 76 1 is_stmt 0 view .LVU69
 308 0084 70BD     		pop	{r4, r5, r6, pc}
 309              	.LVL22:
 310              	.L24:
 311              		.cfi_restore_state
 312              	.LBB179:
 313              	.LBB174:
  60:Spirits.cpp   ****         return 0.0f;
 314              		.loc 4 60 9 is_stmt 1 view .LVU70
  60:Spirits.cpp   ****         return 0.0f;
 315              		.loc 4 60 19 is_stmt 0 view .LVU71
 316 0086 0023     		movs	r3, #0
  61:Spirits.cpp   ****     }
 317              		.loc 4 61 16 view .LVU72
 318 0088 9FED030A 		vldr.32	s0, .L25
 319              	.LVL23:
  61:Spirits.cpp   ****     }
 320              		.loc 4 61 16 view .LVU73
 321              	.LBE174:
 322              	.LBE179:
 323              		.loc 4 76 1 view .LVU74
 324 008c BDEC028B 		vldm	sp!, {d8}
 325              		.cfi_restore 80
 326              		.cfi_restore 81
 327              		.cfi_def_cfa_offset 16
 328              	.LBB180:
 329              	.LBB175:
  60:Spirits.cpp   ****         return 0.0f;
 330              		.loc 4 60 19 view .LVU75
 331 0090 85F8FC33 		strb	r3, [r5, #1020]
  61:Spirits.cpp   ****     }
 332              		.loc 4 61 9 is_stmt 1 view .LVU76
ARM GAS  /var/folders/s6/2bsynnl15rj0bwtb9pgx4dc00000gn/T//cc9fWWk9.s 			page 13


 333              	.LBE175:
 334              	.LBE180:
 335              		.loc 4 76 1 is_stmt 0 view .LVU77
 336 0094 70BD     		pop	{r4, r5, r6, pc}
 337              	.LVL24:
 338              	.L26:
 339              		.loc 4 76 1 view .LVU78
 340 0096 00BF     		.align	2
 341              	.L25:
 342 0098 00000000 		.word	0
 343 009c 6F12833A 		.word	981668463
 344 00a0 00000000 		.word	.LANCHOR1
 345              		.cfi_endproc
 346              	.LFE4748:
 348              		.section	.text._ZN7SpiritsC2Ev,"ax",%progbits
 349              		.align	1
 350              		.p2align 2,,3
 351              		.global	_ZN7SpiritsC2Ev
 352              		.syntax unified
 353              		.thumb
 354              		.thumb_func
 356              	_ZN7SpiritsC2Ev:
 357              	.LVL25:
 358              	.LFB4745:
  24:Spirits.cpp   **** 
 359              		.loc 4 24 1 is_stmt 1 view -0
 360              		.cfi_startproc
 361              		@ args = 0, pretend = 0, frame = 0
 362              		@ frame_needed = 0, uses_anonymous_args = 0
  24:Spirits.cpp   **** 
 363              		.loc 4 24 1 is_stmt 0 view .LVU80
 364 0000 10B5     		push	{r4, lr}
 365              		.cfi_def_cfa_offset 8
 366              		.cfi_offset 4, -8
 367              		.cfi_offset 14, -4
  24:Spirits.cpp   **** 
 368              		.loc 4 24 1 view .LVU81
 369 0002 0446     		mov	r4, r0
 370              	.LBB181:
  24:Spirits.cpp   **** 
 371              		.loc 4 24 54 view .LVU82
 372 0004 FFF7FEFF 		bl	_ZN5SoundC2Ev
 373              	.LVL26:
  24:Spirits.cpp   **** 
 374              		.loc 4 24 54 view .LVU83
 375 0008 0023     		movs	r3, #0
 376 000a 044A     		ldr	r2, .L29
 377              	.LBE181:
  24:Spirits.cpp   **** 
 378              		.loc 4 24 57 view .LVU84
 379 000c 2046     		mov	r0, r4
 380              	.LBB184:
  24:Spirits.cpp   **** 
 381              		.loc 4 24 54 view .LVU85
 382 000e 2260     		str	r2, [r4]
 383              	.LVL27:
 384              	.LBB182:
ARM GAS  /var/folders/s6/2bsynnl15rj0bwtb9pgx4dc00000gn/T//cc9fWWk9.s 			page 14


 385              	.LBI182:
  94:/Library/DaisyToolchain/0.2.0/arm/arm-none-eabi/include/c++/10.3.1/array ****     {
 386              		.loc 3 94 12 is_stmt 1 view .LVU86
 387              	.LBE182:
 388              	.LBE184:
  94:/Library/DaisyToolchain/0.2.0/arm/arm-none-eabi/include/c++/10.3.1/array ****     {
 389              		.loc 3 94 12 view .LVU87
 390              	.LBB185:
 391              	.LBB183:
 392              	.LBI183:
  42:./DaisySP/Source/Control/adenv.h ****     ~AdEnv() {}
 393              		.loc 2 42 5 view .LVU88
  42:./DaisySP/Source/Control/adenv.h ****     ~AdEnv() {}
 394              		.loc 2 42 5 is_stmt 0 view .LVU89
 395              	.LBE183:
  24:Spirits.cpp   **** 
 396              		.loc 4 24 54 view .LVU90
 397 0010 84F8FC33 		strb	r3, [r4, #1020]
 398 0014 C4F80034 		str	r3, [r4, #1024]
 399              	.LBE185:
  24:Spirits.cpp   **** 
 400              		.loc 4 24 57 view .LVU91
 401 0018 10BD     		pop	{r4, pc}
 402              	.LVL28:
 403              	.L30:
  24:Spirits.cpp   **** 
 404              		.loc 4 24 57 view .LVU92
 405 001a 00BF     		.align	2
 406              	.L29:
 407 001c 08000000 		.word	.LANCHOR0+8
 408              		.cfi_endproc
 409              	.LFE4745:
 411              		.global	_ZN7SpiritsC1Ev
 412              		.thumb_set _ZN7SpiritsC1Ev,_ZN7SpiritsC2Ev
 413              		.section	.text._ZN7Spirits8SetChordEiRKSt5arrayIfLj3EE,"ax",%progbits
 414              		.align	1
 415              		.p2align 2,,3
 416              		.global	_ZN7Spirits8SetChordEiRKSt5arrayIfLj3EE
 417              		.syntax unified
 418              		.thumb
 419              		.thumb_func
 421              	_ZN7Spirits8SetChordEiRKSt5arrayIfLj3EE:
 422              	.LVL29:
 423              	.LFB4749:
  77:Spirits.cpp   **** 
  78:Spirits.cpp   **** void Spirits::SetChord(int chordIndex, const std::array<float, NUM_OSCILLATORS>& freqs) {
 424              		.loc 4 78 89 is_stmt 1 view -0
 425              		.cfi_startproc
 426              		@ args = 0, pretend = 0, frame = 0
 427              		@ frame_needed = 0, uses_anonymous_args = 0
  79:Spirits.cpp   ****     for (size_t i = 0; i < NUM_OSCILLATORS; ++i) {
 428              		.loc 4 79 5 view .LVU94
 429              	.LBB197:
 430              		.loc 4 79 26 view .LVU95
 431              	.LBB198:
 432              	.LBB199:
 433              	.LBB200:
ARM GAS  /var/folders/s6/2bsynnl15rj0bwtb9pgx4dc00000gn/T//cc9fWWk9.s 			page 15


  56:/Library/DaisyToolchain/0.2.0/arm/arm-none-eabi/include/c++/10.3.1/array **** 
 434              		.loc 3 56 41 is_stmt 0 view .LVU96
 435 0000 2830     		adds	r0, r0, #40
 436              	.LVL30:
  56:/Library/DaisyToolchain/0.2.0/arm/arm-none-eabi/include/c++/10.3.1/array **** 
 437              		.loc 3 56 41 view .LVU97
 438 0002 01EB4111 		add	r1, r1, r1, lsl #5
 439              	.LVL31:
  56:/Library/DaisyToolchain/0.2.0/arm/arm-none-eabi/include/c++/10.3.1/array **** 
 440              		.loc 3 56 41 view .LVU98
 441              	.LBE200:
 442              	.LBE199:
 443              	.LBE198:
 444              	.LBE197:
  78:Spirits.cpp   ****     for (size_t i = 0; i < NUM_OSCILLATORS; ++i) {
 445              		.loc 4 78 89 view .LVU99
 446 0006 70B5     		push	{r4, r5, r6, lr}
 447              		.cfi_def_cfa_offset 16
 448              		.cfi_offset 4, -16
 449              		.cfi_offset 5, -12
 450              		.cfi_offset 6, -8
 451              		.cfi_offset 14, -4
  78:Spirits.cpp   ****     for (size_t i = 0; i < NUM_OSCILLATORS; ++i) {
 452              		.loc 4 78 89 view .LVU100
 453 0008 1546     		mov	r5, r2
 454              	.LBB216:
 455              	.LBB204:
 456              	.LBB202:
 457              	.LBB201:
  56:/Library/DaisyToolchain/0.2.0/arm/arm-none-eabi/include/c++/10.3.1/array **** 
 458              		.loc 3 56 41 view .LVU101
 459 000a 00EB8104 		add	r4, r0, r1, lsl #2
 460 000e 02F10C06 		add	r6, r2, #12
 461              	.LVL32:
 462              	.L32:
  56:/Library/DaisyToolchain/0.2.0/arm/arm-none-eabi/include/c++/10.3.1/array **** 
 463              		.loc 3 56 41 view .LVU102
 464              	.LBE201:
 465              	.LBE202:
 466              	.LBE204:
  80:Spirits.cpp   ****         oscs[chordIndex][i].SetFreq(freqs[i]);
 467              		.loc 4 80 9 is_stmt 1 discriminator 2 view .LVU103
 468              	.LBB205:
 469              	.LBI198:
 470              		.loc 3 185 7 discriminator 2 view .LVU104
 471              	.LBB203:
 472              	.LBI199:
  55:/Library/DaisyToolchain/0.2.0/arm/arm-none-eabi/include/c++/10.3.1/array ****       { return const_cast<_Tp&>(__t[__n]); }
 473              		.loc 3 55 7 discriminator 2 view .LVU105
  55:/Library/DaisyToolchain/0.2.0/arm/arm-none-eabi/include/c++/10.3.1/array ****       { return const_cast<_Tp&>(__t[__n]); }
 474              		.loc 3 55 7 is_stmt 0 discriminator 2 view .LVU106
 475              	.LBE203:
 476              	.LBE205:
 477              	.LBB206:
 478              	.LBI206:
 479              		.loc 3 185 7 is_stmt 1 discriminator 2 view .LVU107
 480              	.LBB207:
ARM GAS  /var/folders/s6/2bsynnl15rj0bwtb9pgx4dc00000gn/T//cc9fWWk9.s 			page 16


 481              	.LBI207:
  55:/Library/DaisyToolchain/0.2.0/arm/arm-none-eabi/include/c++/10.3.1/array ****       { return const_cast<_Tp&>(__t[__n]); }
 482              		.loc 3 55 7 discriminator 2 view .LVU108
  55:/Library/DaisyToolchain/0.2.0/arm/arm-none-eabi/include/c++/10.3.1/array ****       { return const_cast<_Tp&>(__t[__n]); }
 483              		.loc 3 55 7 is_stmt 0 discriminator 2 view .LVU109
 484              	.LBE207:
 485              	.LBE206:
 486              	.LBB208:
 487              	.LBB209:
 488              		.file 5 "./DaisySP/Source/Synthesis/oscillator.h"
   1:./DaisySP/Source/Synthesis/oscillator.h **** /*
   2:./DaisySP/Source/Synthesis/oscillator.h **** Copyright (c) 2020 Electrosmith, Corp
   3:./DaisySP/Source/Synthesis/oscillator.h **** 
   4:./DaisySP/Source/Synthesis/oscillator.h **** Use of this source code is governed by an MIT-style
   5:./DaisySP/Source/Synthesis/oscillator.h **** license that can be found in the LICENSE file or at
   6:./DaisySP/Source/Synthesis/oscillator.h **** https://opensource.org/licenses/MIT.
   7:./DaisySP/Source/Synthesis/oscillator.h **** */
   8:./DaisySP/Source/Synthesis/oscillator.h **** 
   9:./DaisySP/Source/Synthesis/oscillator.h **** #pragma once
  10:./DaisySP/Source/Synthesis/oscillator.h **** #ifndef DSY_OSCILLATOR_H
  11:./DaisySP/Source/Synthesis/oscillator.h **** #define DSY_OSCILLATOR_H
  12:./DaisySP/Source/Synthesis/oscillator.h **** #include <stdint.h>
  13:./DaisySP/Source/Synthesis/oscillator.h **** #include "Utility/dsp.h"
  14:./DaisySP/Source/Synthesis/oscillator.h **** #ifdef __cplusplus
  15:./DaisySP/Source/Synthesis/oscillator.h **** 
  16:./DaisySP/Source/Synthesis/oscillator.h **** namespace daisysp
  17:./DaisySP/Source/Synthesis/oscillator.h **** {
  18:./DaisySP/Source/Synthesis/oscillator.h **** /** Synthesis of several waveforms, including polyBLEP bandlimited waveforms.
  19:./DaisySP/Source/Synthesis/oscillator.h **** */
  20:./DaisySP/Source/Synthesis/oscillator.h **** class Oscillator
  21:./DaisySP/Source/Synthesis/oscillator.h **** {
  22:./DaisySP/Source/Synthesis/oscillator.h ****   public:
  23:./DaisySP/Source/Synthesis/oscillator.h ****     Oscillator() {}
  24:./DaisySP/Source/Synthesis/oscillator.h ****     ~Oscillator() {}
  25:./DaisySP/Source/Synthesis/oscillator.h ****     /** Choices for output waveforms, POLYBLEP are appropriately labeled. Others are naive forms.
  26:./DaisySP/Source/Synthesis/oscillator.h ****     */
  27:./DaisySP/Source/Synthesis/oscillator.h ****     enum
  28:./DaisySP/Source/Synthesis/oscillator.h ****     {
  29:./DaisySP/Source/Synthesis/oscillator.h ****         WAVE_SIN,
  30:./DaisySP/Source/Synthesis/oscillator.h ****         WAVE_TRI,
  31:./DaisySP/Source/Synthesis/oscillator.h ****         WAVE_SAW,
  32:./DaisySP/Source/Synthesis/oscillator.h ****         WAVE_RAMP,
  33:./DaisySP/Source/Synthesis/oscillator.h ****         WAVE_SQUARE,
  34:./DaisySP/Source/Synthesis/oscillator.h ****         WAVE_POLYBLEP_TRI,
  35:./DaisySP/Source/Synthesis/oscillator.h ****         WAVE_POLYBLEP_SAW,
  36:./DaisySP/Source/Synthesis/oscillator.h ****         WAVE_POLYBLEP_SQUARE,
  37:./DaisySP/Source/Synthesis/oscillator.h ****         WAVE_LAST,
  38:./DaisySP/Source/Synthesis/oscillator.h ****     };
  39:./DaisySP/Source/Synthesis/oscillator.h **** 
  40:./DaisySP/Source/Synthesis/oscillator.h **** 
  41:./DaisySP/Source/Synthesis/oscillator.h ****     /** Initializes the Oscillator
  42:./DaisySP/Source/Synthesis/oscillator.h **** 
  43:./DaisySP/Source/Synthesis/oscillator.h ****         \param sample_rate - sample rate of the audio engine being run, and the frequency that the 
  44:./DaisySP/Source/Synthesis/oscillator.h **** 
  45:./DaisySP/Source/Synthesis/oscillator.h ****         Defaults:
  46:./DaisySP/Source/Synthesis/oscillator.h ****         - freq_ = 100 Hz
  47:./DaisySP/Source/Synthesis/oscillator.h ****         - amp_ = 0.5
ARM GAS  /var/folders/s6/2bsynnl15rj0bwtb9pgx4dc00000gn/T//cc9fWWk9.s 			page 17


  48:./DaisySP/Source/Synthesis/oscillator.h ****         - waveform_ = sine wave.
  49:./DaisySP/Source/Synthesis/oscillator.h ****     */
  50:./DaisySP/Source/Synthesis/oscillator.h ****     void Init(float sample_rate)
  51:./DaisySP/Source/Synthesis/oscillator.h ****     {
  52:./DaisySP/Source/Synthesis/oscillator.h ****         sr_        = sample_rate;
  53:./DaisySP/Source/Synthesis/oscillator.h ****         sr_recip_  = 1.0f / sample_rate;
  54:./DaisySP/Source/Synthesis/oscillator.h ****         freq_      = 100.0f;
  55:./DaisySP/Source/Synthesis/oscillator.h ****         amp_       = 0.5f;
  56:./DaisySP/Source/Synthesis/oscillator.h ****         pw_        = 0.5f;
  57:./DaisySP/Source/Synthesis/oscillator.h ****         phase_     = 0.0f;
  58:./DaisySP/Source/Synthesis/oscillator.h ****         phase_inc_ = CalcPhaseInc(freq_);
  59:./DaisySP/Source/Synthesis/oscillator.h ****         waveform_  = WAVE_SIN;
  60:./DaisySP/Source/Synthesis/oscillator.h ****         eoc_       = true;
  61:./DaisySP/Source/Synthesis/oscillator.h ****         eor_       = true;
  62:./DaisySP/Source/Synthesis/oscillator.h ****     }
  63:./DaisySP/Source/Synthesis/oscillator.h **** 
  64:./DaisySP/Source/Synthesis/oscillator.h **** 
  65:./DaisySP/Source/Synthesis/oscillator.h ****     /** Changes the frequency of the Oscillator, and recalculates phase increment.
  66:./DaisySP/Source/Synthesis/oscillator.h ****     */
  67:./DaisySP/Source/Synthesis/oscillator.h ****     inline void SetFreq(const float f)
  68:./DaisySP/Source/Synthesis/oscillator.h ****     {
  69:./DaisySP/Source/Synthesis/oscillator.h ****         freq_      = f;
  70:./DaisySP/Source/Synthesis/oscillator.h ****         phase_inc_ = CalcPhaseInc(f);
 489              		.loc 5 70 34 discriminator 2 view .LVU110
 490 0012 2046     		mov	r0, r4
 491              	.LBE209:
 492              	.LBE208:
 493              		.loc 4 80 36 discriminator 2 view .LVU111
 494 0014 B5EC010A 		vldmia.32	r5!, {s0}
 495              	.LVL33:
 496              	.LBB213:
 497              	.LBI208:
  67:./DaisySP/Source/Synthesis/oscillator.h ****     {
 498              		.loc 5 67 17 is_stmt 1 discriminator 2 view .LVU112
 499              	.LBB210:
  69:./DaisySP/Source/Synthesis/oscillator.h ****         phase_inc_ = CalcPhaseInc(f);
 500              		.loc 5 69 9 discriminator 2 view .LVU113
 501              	.LBE210:
 502              	.LBE213:
  79:Spirits.cpp   ****         oscs[chordIndex][i].SetFreq(freqs[i]);
 503              		.loc 4 79 26 is_stmt 0 discriminator 2 view .LVU114
 504 0018 2C34     		adds	r4, r4, #44
 505              	.LBB214:
 506              	.LBB211:
  69:./DaisySP/Source/Synthesis/oscillator.h ****         phase_inc_ = CalcPhaseInc(f);
 507              		.loc 5 69 20 discriminator 2 view .LVU115
 508 001a 04ED090A 		vstr.32	s0, [r4, #-36]
 509              		.loc 5 70 9 is_stmt 1 discriminator 2 view .LVU116
 510              		.loc 5 70 34 is_stmt 0 discriminator 2 view .LVU117
 511 001e FFF7FEFF 		bl	_ZN7daisysp10Oscillator12CalcPhaseIncEf
 512              	.LVL34:
 513              		.loc 5 70 34 discriminator 2 view .LVU118
 514              	.LBE211:
 515              	.LBE214:
  79:Spirits.cpp   ****         oscs[chordIndex][i].SetFreq(freqs[i]);
 516              		.loc 4 79 26 discriminator 2 view .LVU119
 517 0022 B542     		cmp	r5, r6
ARM GAS  /var/folders/s6/2bsynnl15rj0bwtb9pgx4dc00000gn/T//cc9fWWk9.s 			page 18


 518              	.LBB215:
 519              	.LBB212:
 520              		.loc 5 70 20 discriminator 2 view .LVU120
 521 0024 04ED040A 		vstr.32	s0, [r4, #-16]
 522              	.LVL35:
 523              		.loc 5 70 20 discriminator 2 view .LVU121
 524              	.LBE212:
 525              	.LBE215:
  79:Spirits.cpp   ****         oscs[chordIndex][i].SetFreq(freqs[i]);
 526              		.loc 4 79 5 is_stmt 1 discriminator 2 view .LVU122
  79:Spirits.cpp   ****         oscs[chordIndex][i].SetFreq(freqs[i]);
 527              		.loc 4 79 26 discriminator 2 view .LVU123
 528 0028 F3D1     		bne	.L32
 529              	.LBE216:
  81:Spirits.cpp   ****     }
  82:Spirits.cpp   **** }
 530              		.loc 4 82 1 is_stmt 0 view .LVU124
 531 002a 70BD     		pop	{r4, r5, r6, pc}
 532              		.loc 4 82 1 view .LVU125
 533              		.cfi_endproc
 534              	.LFE4749:
 536              		.section	.rodata._ZN7Spirits7TriggerEi.str1.4,"aMS",%progbits,1
 537              		.align	2
 538              	.LC0:
 539 0000 53706972 		.ascii	"Spirits chord %d triggered\000"
 539      69747320 
 539      63686F72 
 539      64202564 
 539      20747269 
 540 001b 00       		.align	2
 541              	.LC1:
 542 001c 496E7661 		.ascii	"Invalid chord index: %d\000"
 542      6C696420 
 542      63686F72 
 542      6420696E 
 542      6465783A 
 543              		.section	.text._ZN7Spirits7TriggerEi,"ax",%progbits
 544              		.align	1
 545              		.p2align 2,,3
 546              		.global	_ZN7Spirits7TriggerEi
 547              		.syntax unified
 548              		.thumb
 549              		.thumb_func
 551              	_ZN7Spirits7TriggerEi:
 552              	.LVL36:
 553              	.LFB4750:
  83:Spirits.cpp   **** 
  84:Spirits.cpp   **** void Spirits::Trigger(int chordIndex) {
 554              		.loc 4 84 39 is_stmt 1 view -0
 555              		.cfi_startproc
 556              		@ args = 0, pretend = 0, frame = 0
 557              		@ frame_needed = 0, uses_anonymous_args = 0
 558              		@ link register save eliminated.
  85:Spirits.cpp   ****     if (chordIndex >= 0 && chordIndex < NUM_CHORDS) {
 559              		.loc 4 85 5 view .LVU127
 560 0000 0629     		cmp	r1, #6
  84:Spirits.cpp   ****     if (chordIndex >= 0 && chordIndex < NUM_CHORDS) {
ARM GAS  /var/folders/s6/2bsynnl15rj0bwtb9pgx4dc00000gn/T//cc9fWWk9.s 			page 19


 561              		.loc 4 84 39 is_stmt 0 view .LVU128
 562 0002 0346     		mov	r3, r0
 563              		.loc 4 85 5 view .LVU129
 564 0004 0AD8     		bhi	.L36
  86:Spirits.cpp   ****         env.Trigger();
 565              		.loc 4 86 9 is_stmt 1 view .LVU130
 566              	.LVL37:
 567              	.LBB217:
 568              	.LBI217:
  44:./DaisySP/Source/Control/adenv.h ****     /** Initializes the ad envelope.
  45:./DaisySP/Source/Control/adenv.h **** 
  46:./DaisySP/Source/Control/adenv.h ****         Defaults:
  47:./DaisySP/Source/Control/adenv.h ****             - current segment = idle
  48:./DaisySP/Source/Control/adenv.h ****             - curve = linear
  49:./DaisySP/Source/Control/adenv.h ****             - phase = 0
  50:./DaisySP/Source/Control/adenv.h ****             - min = 0
  51:./DaisySP/Source/Control/adenv.h ****             - max = 1
  52:./DaisySP/Source/Control/adenv.h **** 
  53:./DaisySP/Source/Control/adenv.h ****         \param sample_rate      sample rate of the audio engine being run
  54:./DaisySP/Source/Control/adenv.h ****     */
  55:./DaisySP/Source/Control/adenv.h ****     void Init(float sample_rate);
  56:./DaisySP/Source/Control/adenv.h **** 
  57:./DaisySP/Source/Control/adenv.h ****     /** Processes the current sample of the envelope. This should be called once
  58:./DaisySP/Source/Control/adenv.h ****         per sample period.
  59:./DaisySP/Source/Control/adenv.h ****         \return the current envelope value.
  60:./DaisySP/Source/Control/adenv.h ****     */
  61:./DaisySP/Source/Control/adenv.h ****     float Process();
  62:./DaisySP/Source/Control/adenv.h **** 
  63:./DaisySP/Source/Control/adenv.h ****     /** Starts or retriggers the envelope.*/
  64:./DaisySP/Source/Control/adenv.h ****     inline void Trigger() { trigger_ = 1; }
 569              		.loc 2 64 17 view .LVU131
 570              	.LBB218:
 571              		.loc 2 64 29 view .LVU132
 572              		.loc 2 64 38 is_stmt 0 view .LVU133
 573 0006 4FF0010C 		mov	ip, #1
 574              	.LBE218:
 575              	.LBE217:
 576              	.LBB220:
 577              	.LBB221:
 578              		.file 6 "./libDaisy/src/daisy_seed.h"
   1:./libDaisy/src/daisy_seed.h **** #pragma once
   2:./libDaisy/src/daisy_seed.h **** #ifndef DSY_SEED_H
   3:./libDaisy/src/daisy_seed.h **** #define DSY_SEED_H
   4:./libDaisy/src/daisy_seed.h **** 
   5:./libDaisy/src/daisy_seed.h **** #include "daisy.h"
   6:./libDaisy/src/daisy_seed.h **** 
   7:./libDaisy/src/daisy_seed.h **** //Uncomment this out if you're still using the rev2 hardware
   8:./libDaisy/src/daisy_seed.h **** //#define SEED_REV2
   9:./libDaisy/src/daisy_seed.h **** 
  10:./libDaisy/src/daisy_seed.h **** namespace daisy
  11:./libDaisy/src/daisy_seed.h **** {
  12:./libDaisy/src/daisy_seed.h **** /**
  13:./libDaisy/src/daisy_seed.h ****    @brief This is the higher-level interface for the Daisy board. \n 
  14:./libDaisy/src/daisy_seed.h ****     All basic peripheral configuration/initialization is setup here. \n
  15:./libDaisy/src/daisy_seed.h **** 
  16:./libDaisy/src/daisy_seed.h ****    @ingroup boards
  17:./libDaisy/src/daisy_seed.h **** */
ARM GAS  /var/folders/s6/2bsynnl15rj0bwtb9pgx4dc00000gn/T//cc9fWWk9.s 			page 20


  18:./libDaisy/src/daisy_seed.h **** class DaisySeed
  19:./libDaisy/src/daisy_seed.h **** {
  20:./libDaisy/src/daisy_seed.h ****   public:
  21:./libDaisy/src/daisy_seed.h ****     DaisySeed() {}
  22:./libDaisy/src/daisy_seed.h ****     ~DaisySeed() {}
  23:./libDaisy/src/daisy_seed.h **** 
  24:./libDaisy/src/daisy_seed.h ****     /** This function used to provide a pre-initialization configuraiton 
  25:./libDaisy/src/daisy_seed.h ****      *  it has since been deprecated, and does nothing.
  26:./libDaisy/src/daisy_seed.h ****      */
  27:./libDaisy/src/daisy_seed.h ****     void Configure();
  28:./libDaisy/src/daisy_seed.h **** 
  29:./libDaisy/src/daisy_seed.h ****     /** 
  30:./libDaisy/src/daisy_seed.h ****     Initializes the Daisy Seed and the following peripherals:
  31:./libDaisy/src/daisy_seed.h ****     SDRAM, QSPI, 24-bit 48kHz Audio via AK4556, Internal USB,
  32:./libDaisy/src/daisy_seed.h ****     as well as the built-in LED and Testpoint.
  33:./libDaisy/src/daisy_seed.h **** 
  34:./libDaisy/src/daisy_seed.h ****     ADCs, DACs, and other special peripherals (such as I2C, SPI, etc.)
  35:./libDaisy/src/daisy_seed.h ****     can be initialized using their specific initializers within libdaisy
  36:./libDaisy/src/daisy_seed.h ****     for a specific application.
  37:./libDaisy/src/daisy_seed.h ****     */
  38:./libDaisy/src/daisy_seed.h ****     void Init(bool boost = false);
  39:./libDaisy/src/daisy_seed.h **** 
  40:./libDaisy/src/daisy_seed.h ****     /** 
  41:./libDaisy/src/daisy_seed.h ****     Deinitializes all peripherals automatically handled by `Init`.
  42:./libDaisy/src/daisy_seed.h ****     */
  43:./libDaisy/src/daisy_seed.h ****     void DeInit();
  44:./libDaisy/src/daisy_seed.h **** 
  45:./libDaisy/src/daisy_seed.h ****     /** 
  46:./libDaisy/src/daisy_seed.h ****     Wait some ms before going on.
  47:./libDaisy/src/daisy_seed.h ****     \param del Delay time in ms.
  48:./libDaisy/src/daisy_seed.h ****     */
  49:./libDaisy/src/daisy_seed.h ****     void DelayMs(size_t del);
  50:./libDaisy/src/daisy_seed.h **** 
  51:./libDaisy/src/daisy_seed.h ****     /** 
  52:./libDaisy/src/daisy_seed.h ****     Returns the gpio_pin corresponding to the index 0-31.
  53:./libDaisy/src/daisy_seed.h ****     For the given GPIO on the Daisy Seed (labeled 1-32 in docs).
  54:./libDaisy/src/daisy_seed.h ****     */
  55:./libDaisy/src/daisy_seed.h ****     static dsy_gpio_pin GetPin(uint8_t pin_idx);
  56:./libDaisy/src/daisy_seed.h **** 
  57:./libDaisy/src/daisy_seed.h ****     /** Begins the audio for the seeds builtin audio.
  58:./libDaisy/src/daisy_seed.h ****     the specified callback will get called whenever
  59:./libDaisy/src/daisy_seed.h ****     new data is ready to be prepared.
  60:./libDaisy/src/daisy_seed.h ****     */
  61:./libDaisy/src/daisy_seed.h ****     void StartAudio(AudioHandle::InterleavingAudioCallback cb);
  62:./libDaisy/src/daisy_seed.h **** 
  63:./libDaisy/src/daisy_seed.h ****     /** Begins the audio for the seeds builtin audio.
  64:./libDaisy/src/daisy_seed.h ****     the specified callback will get called whenever
  65:./libDaisy/src/daisy_seed.h ****     new data is ready to be prepared.
  66:./libDaisy/src/daisy_seed.h ****     This will use the newer non-interleaved callback.
  67:./libDaisy/src/daisy_seed.h ****     */
  68:./libDaisy/src/daisy_seed.h ****     void StartAudio(AudioHandle::AudioCallback cb);
  69:./libDaisy/src/daisy_seed.h **** 
  70:./libDaisy/src/daisy_seed.h ****     /** Changes to a new interleaved callback
  71:./libDaisy/src/daisy_seed.h ****      */
  72:./libDaisy/src/daisy_seed.h ****     void ChangeAudioCallback(AudioHandle::InterleavingAudioCallback cb);
  73:./libDaisy/src/daisy_seed.h **** 
  74:./libDaisy/src/daisy_seed.h ****     /** Changes to a new multichannel callback
ARM GAS  /var/folders/s6/2bsynnl15rj0bwtb9pgx4dc00000gn/T//cc9fWWk9.s 			page 21


  75:./libDaisy/src/daisy_seed.h ****      */
  76:./libDaisy/src/daisy_seed.h ****     void ChangeAudioCallback(AudioHandle::AudioCallback cb);
  77:./libDaisy/src/daisy_seed.h **** 
  78:./libDaisy/src/daisy_seed.h ****     /** Stops the audio if it is running. */
  79:./libDaisy/src/daisy_seed.h ****     void StopAudio();
  80:./libDaisy/src/daisy_seed.h **** 
  81:./libDaisy/src/daisy_seed.h ****     /** Updates the Audio Sample Rate, and reinitializes.
  82:./libDaisy/src/daisy_seed.h ****      ** Audio must be stopped for this to work.
  83:./libDaisy/src/daisy_seed.h ****      */
  84:./libDaisy/src/daisy_seed.h ****     void SetAudioSampleRate(SaiHandle::Config::SampleRate samplerate);
  85:./libDaisy/src/daisy_seed.h **** 
  86:./libDaisy/src/daisy_seed.h ****     /** Returns the audio sample rate in Hz as a floating point number.
  87:./libDaisy/src/daisy_seed.h ****      */
  88:./libDaisy/src/daisy_seed.h ****     float AudioSampleRate();
  89:./libDaisy/src/daisy_seed.h **** 
  90:./libDaisy/src/daisy_seed.h ****     /** Sets the number of samples processed per channel by the audio callback.
  91:./libDaisy/src/daisy_seed.h ****      */
  92:./libDaisy/src/daisy_seed.h ****     void SetAudioBlockSize(size_t blocksize);
  93:./libDaisy/src/daisy_seed.h **** 
  94:./libDaisy/src/daisy_seed.h ****     /** Returns the number of samples per channel in a block of audio. */
  95:./libDaisy/src/daisy_seed.h ****     size_t AudioBlockSize();
  96:./libDaisy/src/daisy_seed.h **** 
  97:./libDaisy/src/daisy_seed.h ****     /** Returns the rate in Hz that the Audio callback is called */
  98:./libDaisy/src/daisy_seed.h ****     float AudioCallbackRate() const;
  99:./libDaisy/src/daisy_seed.h **** 
 100:./libDaisy/src/daisy_seed.h ****     /** Returns the SAI Handle for the Daisy Seed 
 101:./libDaisy/src/daisy_seed.h ****      *  This can be useful when adding a secondary codec,
 102:./libDaisy/src/daisy_seed.h ****      *  the result of this function can be passed to the audio reinit 
 103:./libDaisy/src/daisy_seed.h ****      *  with an SAI2 configuration
 104:./libDaisy/src/daisy_seed.h ****      */
 105:./libDaisy/src/daisy_seed.h ****     const SaiHandle& AudioSaiHandle() const;
 106:./libDaisy/src/daisy_seed.h **** 
 107:./libDaisy/src/daisy_seed.h ****     /** Sets the state of the built in LED
 108:./libDaisy/src/daisy_seed.h ****      */
 109:./libDaisy/src/daisy_seed.h ****     void SetLed(bool state);
 110:./libDaisy/src/daisy_seed.h **** 
 111:./libDaisy/src/daisy_seed.h ****     /** Sets the state of the test point near pin 10
 112:./libDaisy/src/daisy_seed.h ****      */
 113:./libDaisy/src/daisy_seed.h ****     void SetTestPoint(bool state);
 114:./libDaisy/src/daisy_seed.h **** 
 115:./libDaisy/src/daisy_seed.h ****     /** Print formatted debug log message
 116:./libDaisy/src/daisy_seed.h ****      */
 117:./libDaisy/src/daisy_seed.h ****     template <typename... VA>
 118:./libDaisy/src/daisy_seed.h ****     static void Print(const char* format, VA... va)
 119:./libDaisy/src/daisy_seed.h ****     {
 120:./libDaisy/src/daisy_seed.h ****         Log::Print(format, va...);
 121:./libDaisy/src/daisy_seed.h ****     }
 122:./libDaisy/src/daisy_seed.h **** 
 123:./libDaisy/src/daisy_seed.h ****     /** Print formatted debug log message with automatic line termination
 124:./libDaisy/src/daisy_seed.h ****     */
 125:./libDaisy/src/daisy_seed.h ****     template <typename... VA>
 126:./libDaisy/src/daisy_seed.h ****     static void PrintLine(const char* format, VA... va)
 127:./libDaisy/src/daisy_seed.h ****     {
 128:./libDaisy/src/daisy_seed.h ****         Log::PrintLine(format, va...);
 579              		.loc 6 128 23 view .LVU134
 580 000a 0648     		ldr	r0, .L37
 581              	.LVL38:
ARM GAS  /var/folders/s6/2bsynnl15rj0bwtb9pgx4dc00000gn/T//cc9fWWk9.s 			page 22


 582              		.loc 6 128 23 view .LVU135
 583              	.LBE221:
 584              	.LBE220:
  87:Spirits.cpp   ****         isPlaying = true;
  88:Spirits.cpp   ****         currentChord = chordIndex;
 585              		.loc 4 88 22 view .LVU136
 586 000c C3F80014 		str	r1, [r3, #1024]
 587              	.LBB223:
 588              	.LBB219:
 589              		.loc 2 64 38 view .LVU137
 590 0010 83F8F8C3 		strb	ip, [r3, #1016]
 591              	.LVL39:
 592              		.loc 2 64 38 view .LVU138
 593              	.LBE219:
 594              	.LBE223:
  87:Spirits.cpp   ****         isPlaying = true;
 595              		.loc 4 87 9 is_stmt 1 view .LVU139
  87:Spirits.cpp   ****         isPlaying = true;
 596              		.loc 4 87 19 is_stmt 0 view .LVU140
 597 0014 83F8FCC3 		strb	ip, [r3, #1020]
 598              		.loc 4 88 9 is_stmt 1 view .LVU141
  89:Spirits.cpp   ****         hw.PrintLine("Spirits chord %d triggered", chordIndex);
 599              		.loc 4 89 9 view .LVU142
 600              	.LVL40:
 601              	.LBB224:
 602              	.LBI220:
 126:./libDaisy/src/daisy_seed.h ****     {
 603              		.loc 6 126 17 view .LVU143
 604              	.LBB222:
 605              		.loc 6 128 23 is_stmt 0 view .LVU144
 606 0018 FFF7FEBF 		b	_ZN5daisy6LoggerILNS_17LoggerDestinationE1EE9PrintLineEPKcz
 607              	.LVL41:
 608              	.L36:
 609              		.loc 6 128 23 view .LVU145
 610              	.LBE222:
 611              	.LBE224:
  90:Spirits.cpp   ****     } else {
  91:Spirits.cpp   ****         hw.PrintLine("Invalid chord index: %d", chordIndex);
 612              		.loc 4 91 9 is_stmt 1 view .LVU146
 613              	.LBB225:
 614              	.LBI225:
 126:./libDaisy/src/daisy_seed.h ****     {
 615              		.loc 6 126 17 view .LVU147
 616              	.LBB226:
 617              		.loc 6 128 23 is_stmt 0 view .LVU148
 618 001c 0248     		ldr	r0, .L37+4
 619              	.LVL42:
 620              		.loc 6 128 23 view .LVU149
 621 001e FFF7FEBF 		b	_ZN5daisy6LoggerILNS_17LoggerDestinationE1EE9PrintLineEPKcz
 622              	.LVL43:
 623              	.L38:
 624              		.loc 6 128 23 view .LVU150
 625 0022 00BF     		.align	2
 626              	.L37:
 627 0024 00000000 		.word	.LC0
 628 0028 1C000000 		.word	.LC1
 629              	.LBE226:
ARM GAS  /var/folders/s6/2bsynnl15rj0bwtb9pgx4dc00000gn/T//cc9fWWk9.s 			page 23


 630              	.LBE225:
 631              		.cfi_endproc
 632              	.LFE4750:
 634              		.section	.rodata._ZN7Spirits13TestHugeArrayEv.str1.4,"aMS",%progbits,1
 635              		.align	2
 636              	.LC2:
 637 0000 54657374 		.ascii	"Testing huge array in SDRAM...\000"
 637      696E6720 
 637      68756765 
 637      20617272 
 637      61792069 
 638 001f 00       		.align	2
 639              	.LC3:
 640 0020 68756765 		.ascii	"hugeArray[%d] = %f\000"
 640      41727261 
 640      795B2564 
 640      5D203D20 
 640      256600
 641              		.section	.text._ZN7Spirits13TestHugeArrayEv,"ax",%progbits
 642              		.align	1
 643              		.p2align 2,,3
 644              		.global	_ZN7Spirits13TestHugeArrayEv
 645              		.syntax unified
 646              		.thumb
 647              		.thumb_func
 649              	_ZN7Spirits13TestHugeArrayEv:
 650              	.LVL44:
 651              	.LFB4751:
  92:Spirits.cpp   ****     }
  93:Spirits.cpp   **** }
  94:Spirits.cpp   **** 
  95:Spirits.cpp   **** void Spirits::TestHugeArray() {
 652              		.loc 4 95 31 is_stmt 1 view -0
 653              		.cfi_startproc
 654              		@ args = 0, pretend = 0, frame = 0
 655              		@ frame_needed = 0, uses_anonymous_args = 0
  96:Spirits.cpp   ****     hw.PrintLine("Testing huge array in SDRAM...");
 656              		.loc 4 96 5 view .LVU152
 657              	.LBB227:
 658              	.LBI227:
 126:./libDaisy/src/daisy_seed.h ****     {
 659              		.loc 6 126 17 view .LVU153
 660              	.LBE227:
  95:Spirits.cpp   ****     hw.PrintLine("Testing huge array in SDRAM...");
 661              		.loc 4 95 31 is_stmt 0 view .LVU154
 662 0000 38B5     		push	{r3, r4, r5, lr}
 663              		.cfi_def_cfa_offset 16
 664              		.cfi_offset 3, -16
 665              		.cfi_offset 4, -12
 666              		.cfi_offset 5, -8
 667              		.cfi_offset 14, -4
 668              	.LBB230:
 669              	.LBB228:
 670              		.loc 6 128 23 view .LVU155
 671 0002 0948     		ldr	r0, .L43
 672              	.LVL45:
 673              		.loc 6 128 23 view .LVU156
ARM GAS  /var/folders/s6/2bsynnl15rj0bwtb9pgx4dc00000gn/T//cc9fWWk9.s 			page 24


 674              	.LBE228:
 675              	.LBE230:
 676              	.LBB231:
  97:Spirits.cpp   ****     for (int i = 0; i < 10; ++i) {  // Print first 10 elements as a test
 677              		.loc 4 97 14 view .LVU157
 678 0004 0024     		movs	r4, #0
 679 0006 094D     		ldr	r5, .L43+4
 680              	.LBE231:
 681              	.LBB236:
 682              	.LBB229:
 683              		.loc 6 128 23 view .LVU158
 684 0008 FFF7FEFF 		bl	_ZN5daisy6LoggerILNS_17LoggerDestinationE1EE9PrintLineEPKcz
 685              	.LVL46:
 686              		.loc 6 128 23 view .LVU159
 687              	.LBE229:
 688              	.LBE236:
 689              		.loc 4 97 5 is_stmt 1 view .LVU160
 690              	.LBB237:
 691              		.loc 4 97 23 view .LVU161
 692              	.L40:
  98:Spirits.cpp   ****         hw.PrintLine("hugeArray[%d] = %f", i, hugeArray[i]);
 693              		.loc 4 98 9 discriminator 2 view .LVU162
 694              		.loc 4 98 21 is_stmt 0 discriminator 2 view .LVU163
 695 000c F5EC017A 		vldmia.32	r5!, {s15}
 696              	.LVL47:
 697              	.LBB232:
 698              	.LBI232:
 126:./libDaisy/src/daisy_seed.h ****     {
 699              		.loc 6 126 17 is_stmt 1 discriminator 2 view .LVU164
 700              	.LBB233:
 701              		.loc 6 128 23 is_stmt 0 discriminator 2 view .LVU165
 702 0010 2146     		mov	r1, r4
 703              	.LBE233:
 704              	.LBE232:
  97:Spirits.cpp   ****     for (int i = 0; i < 10; ++i) {  // Print first 10 elements as a test
 705              		.loc 4 97 5 discriminator 2 view .LVU166
 706 0012 0134     		adds	r4, r4, #1
 707              	.LVL48:
 708              	.LBB235:
 709              	.LBB234:
 710              		.loc 6 128 23 discriminator 2 view .LVU167
 711 0014 0648     		ldr	r0, .L43+8
 712 0016 B7EEE77A 		vcvt.f64.f32	d7, s15
 713 001a 53EC172B 		vmov	r2, r3, d7
 714 001e FFF7FEFF 		bl	_ZN5daisy6LoggerILNS_17LoggerDestinationE1EE9PrintLineEPKcz
 715              	.LVL49:
 716              		.loc 6 128 23 discriminator 2 view .LVU168
 717              	.LBE234:
 718              	.LBE235:
  97:Spirits.cpp   ****     for (int i = 0; i < 10; ++i) {  // Print first 10 elements as a test
 719              		.loc 4 97 5 is_stmt 1 discriminator 2 view .LVU169
  97:Spirits.cpp   ****     for (int i = 0; i < 10; ++i) {  // Print first 10 elements as a test
 720              		.loc 4 97 23 discriminator 2 view .LVU170
 721 0022 0A2C     		cmp	r4, #10
 722 0024 F2D1     		bne	.L40
 723              	.LBE237:
  99:Spirits.cpp   ****     }
ARM GAS  /var/folders/s6/2bsynnl15rj0bwtb9pgx4dc00000gn/T//cc9fWWk9.s 			page 25


 100:Spirits.cpp   **** }
 724              		.loc 4 100 1 is_stmt 0 view .LVU171
 725 0026 38BD     		pop	{r3, r4, r5, pc}
 726              	.LVL50:
 727              	.L44:
 728              		.loc 4 100 1 view .LVU172
 729              		.align	2
 730              	.L43:
 731 0028 00000000 		.word	.LC2
 732 002c 00000000 		.word	hugeArray
 733 0030 20000000 		.word	.LC3
 734              		.cfi_endproc
 735              	.LFE4751:
 737              		.section	.text._ZN7Spirits4InitEf,"ax",%progbits
 738              		.align	1
 739              		.p2align 2,,3
 740              		.global	_ZN7Spirits4InitEf
 741              		.syntax unified
 742              		.thumb
 743              		.thumb_func
 745              	_ZN7Spirits4InitEf:
 746              	.LVL51:
 747              	.LFB4747:
  26:Spirits.cpp   ****     Sound::Init(sample_rate);  // Call base class Init
 748              		.loc 4 26 39 is_stmt 1 view -0
 749              		.cfi_startproc
 750              		@ args = 0, pretend = 0, frame = 0
 751              		@ frame_needed = 0, uses_anonymous_args = 0
  27:Spirits.cpp   ****     sampleRate = sample_rate;
 752              		.loc 4 27 5 view .LVU174
  26:Spirits.cpp   ****     Sound::Init(sample_rate);  // Call base class Init
 753              		.loc 4 26 39 is_stmt 0 view .LVU175
 754 0000 2DE9F047 		push	{r4, r5, r6, r7, r8, r9, r10, lr}
 755              		.cfi_def_cfa_offset 32
 756              		.cfi_offset 4, -32
 757              		.cfi_offset 5, -28
 758              		.cfi_offset 6, -24
 759              		.cfi_offset 7, -20
 760              		.cfi_offset 8, -16
 761              		.cfi_offset 9, -12
 762              		.cfi_offset 10, -8
 763              		.cfi_offset 14, -4
 764 0004 0646     		mov	r6, r0
 765 0006 2DED028B 		vpush.64	{d8}
 766              		.cfi_def_cfa_offset 40
 767              		.cfi_offset 80, -40
 768              		.cfi_offset 81, -36
  26:Spirits.cpp   ****     Sound::Init(sample_rate);  // Call base class Init
 769              		.loc 4 26 39 view .LVU176
 770 000a B0EE408A 		vmov.f32	s16, s0
 771              	.LBB281:
 772              	.LBB282:
 773              	.LBB283:
 774              	.LBB284:
 186:/Library/DaisyToolchain/0.2.0/arm/arm-none-eabi/include/c++/10.3.1/array ****       { return _AT_Type::_S_ref(_M_elems, __n); }
 187:/Library/DaisyToolchain/0.2.0/arm/arm-none-eabi/include/c++/10.3.1/array **** 
 188:/Library/DaisyToolchain/0.2.0/arm/arm-none-eabi/include/c++/10.3.1/array ****       constexpr const_reference
ARM GAS  /var/folders/s6/2bsynnl15rj0bwtb9pgx4dc00000gn/T//cc9fWWk9.s 			page 26


 189:/Library/DaisyToolchain/0.2.0/arm/arm-none-eabi/include/c++/10.3.1/array ****       operator[](size_type __n) const noexcept
 190:/Library/DaisyToolchain/0.2.0/arm/arm-none-eabi/include/c++/10.3.1/array ****       { return _AT_Type::_S_ref(_M_elems, __n); }
 191:/Library/DaisyToolchain/0.2.0/arm/arm-none-eabi/include/c++/10.3.1/array **** 
 192:/Library/DaisyToolchain/0.2.0/arm/arm-none-eabi/include/c++/10.3.1/array ****       _GLIBCXX17_CONSTEXPR reference
 193:/Library/DaisyToolchain/0.2.0/arm/arm-none-eabi/include/c++/10.3.1/array ****       at(size_type __n)
 194:/Library/DaisyToolchain/0.2.0/arm/arm-none-eabi/include/c++/10.3.1/array ****       {
 195:/Library/DaisyToolchain/0.2.0/arm/arm-none-eabi/include/c++/10.3.1/array **** 	if (__n >= _Nm)
 196:/Library/DaisyToolchain/0.2.0/arm/arm-none-eabi/include/c++/10.3.1/array **** 	  std::__throw_out_of_range_fmt(__N("array::at: __n (which is %zu) "
 197:/Library/DaisyToolchain/0.2.0/arm/arm-none-eabi/include/c++/10.3.1/array **** 					    ">= _Nm (which is %zu)"),
 198:/Library/DaisyToolchain/0.2.0/arm/arm-none-eabi/include/c++/10.3.1/array **** 					__n, _Nm);
 199:/Library/DaisyToolchain/0.2.0/arm/arm-none-eabi/include/c++/10.3.1/array **** 	return _AT_Type::_S_ref(_M_elems, __n);
 200:/Library/DaisyToolchain/0.2.0/arm/arm-none-eabi/include/c++/10.3.1/array ****       }
 201:/Library/DaisyToolchain/0.2.0/arm/arm-none-eabi/include/c++/10.3.1/array **** 
 202:/Library/DaisyToolchain/0.2.0/arm/arm-none-eabi/include/c++/10.3.1/array ****       constexpr const_reference
 203:/Library/DaisyToolchain/0.2.0/arm/arm-none-eabi/include/c++/10.3.1/array ****       at(size_type __n) const
 204:/Library/DaisyToolchain/0.2.0/arm/arm-none-eabi/include/c++/10.3.1/array ****       {
 205:/Library/DaisyToolchain/0.2.0/arm/arm-none-eabi/include/c++/10.3.1/array **** 	// Result of conditional expression must be an lvalue so use
 206:/Library/DaisyToolchain/0.2.0/arm/arm-none-eabi/include/c++/10.3.1/array **** 	// boolean ? lvalue : (throw-expr, lvalue)
 207:/Library/DaisyToolchain/0.2.0/arm/arm-none-eabi/include/c++/10.3.1/array **** 	return __n < _Nm ? _AT_Type::_S_ref(_M_elems, __n)
 208:/Library/DaisyToolchain/0.2.0/arm/arm-none-eabi/include/c++/10.3.1/array **** 	  : (std::__throw_out_of_range_fmt(__N("array::at: __n (which is %zu) "
 209:/Library/DaisyToolchain/0.2.0/arm/arm-none-eabi/include/c++/10.3.1/array **** 					       ">= _Nm (which is %zu)"),
 210:/Library/DaisyToolchain/0.2.0/arm/arm-none-eabi/include/c++/10.3.1/array **** 					   __n, _Nm),
 211:/Library/DaisyToolchain/0.2.0/arm/arm-none-eabi/include/c++/10.3.1/array **** 	     _AT_Type::_S_ref(_M_elems, 0));
 212:/Library/DaisyToolchain/0.2.0/arm/arm-none-eabi/include/c++/10.3.1/array ****       }
 213:/Library/DaisyToolchain/0.2.0/arm/arm-none-eabi/include/c++/10.3.1/array **** 
 214:/Library/DaisyToolchain/0.2.0/arm/arm-none-eabi/include/c++/10.3.1/array ****       _GLIBCXX17_CONSTEXPR reference
 215:/Library/DaisyToolchain/0.2.0/arm/arm-none-eabi/include/c++/10.3.1/array ****       front() noexcept
 216:/Library/DaisyToolchain/0.2.0/arm/arm-none-eabi/include/c++/10.3.1/array ****       { return *begin(); }
 217:/Library/DaisyToolchain/0.2.0/arm/arm-none-eabi/include/c++/10.3.1/array **** 
 218:/Library/DaisyToolchain/0.2.0/arm/arm-none-eabi/include/c++/10.3.1/array ****       constexpr const_reference
 219:/Library/DaisyToolchain/0.2.0/arm/arm-none-eabi/include/c++/10.3.1/array ****       front() const noexcept
 220:/Library/DaisyToolchain/0.2.0/arm/arm-none-eabi/include/c++/10.3.1/array ****       { return _AT_Type::_S_ref(_M_elems, 0); }
 221:/Library/DaisyToolchain/0.2.0/arm/arm-none-eabi/include/c++/10.3.1/array **** 
 222:/Library/DaisyToolchain/0.2.0/arm/arm-none-eabi/include/c++/10.3.1/array ****       _GLIBCXX17_CONSTEXPR reference
 223:/Library/DaisyToolchain/0.2.0/arm/arm-none-eabi/include/c++/10.3.1/array ****       back() noexcept
 224:/Library/DaisyToolchain/0.2.0/arm/arm-none-eabi/include/c++/10.3.1/array ****       { return _Nm ? *(end() - 1) : *end(); }
 225:/Library/DaisyToolchain/0.2.0/arm/arm-none-eabi/include/c++/10.3.1/array **** 
 226:/Library/DaisyToolchain/0.2.0/arm/arm-none-eabi/include/c++/10.3.1/array ****       constexpr const_reference
 227:/Library/DaisyToolchain/0.2.0/arm/arm-none-eabi/include/c++/10.3.1/array ****       back() const noexcept
 228:/Library/DaisyToolchain/0.2.0/arm/arm-none-eabi/include/c++/10.3.1/array ****       {
 229:/Library/DaisyToolchain/0.2.0/arm/arm-none-eabi/include/c++/10.3.1/array **** 	return _Nm ? _AT_Type::_S_ref(_M_elems, _Nm - 1)
 230:/Library/DaisyToolchain/0.2.0/arm/arm-none-eabi/include/c++/10.3.1/array ****  	           : _AT_Type::_S_ref(_M_elems, 0);
 231:/Library/DaisyToolchain/0.2.0/arm/arm-none-eabi/include/c++/10.3.1/array ****       }
 232:/Library/DaisyToolchain/0.2.0/arm/arm-none-eabi/include/c++/10.3.1/array **** 
 233:/Library/DaisyToolchain/0.2.0/arm/arm-none-eabi/include/c++/10.3.1/array ****       _GLIBCXX17_CONSTEXPR pointer
 234:/Library/DaisyToolchain/0.2.0/arm/arm-none-eabi/include/c++/10.3.1/array ****       data() noexcept
 235:/Library/DaisyToolchain/0.2.0/arm/arm-none-eabi/include/c++/10.3.1/array ****       { return _AT_Type::_S_ptr(_M_elems); }
 775              		.loc 3 235 33 view .LVU177
 776 000e 06F12804 		add	r4, r6, #40
 777              	.LBE284:
 778              	.LBE283:
 779              	.LBE282:
 780              	.LBB286:
 781              	.LBB287:
 135:/Library/DaisyToolchain/0.2.0/arm/arm-none-eabi/include/c++/10.3.1/array **** 
 782              		.loc 3 135 37 view .LVU178
 783 0012 06F57177 		add	r7, r6, #964
ARM GAS  /var/folders/s6/2bsynnl15rj0bwtb9pgx4dc00000gn/T//cc9fWWk9.s 			page 27


 784              	.LBE287:
 785              	.LBE286:
 786              	.LBE281:
  27:Spirits.cpp   ****     sampleRate = sample_rate;
 787              		.loc 4 27 16 view .LVU179
 788 0016 FFF7FEFF 		bl	_ZN5Sound4InitEf
 789              	.LVL52:
  28:Spirits.cpp   ****     for (auto& chord : oscs) {
 790              		.loc 4 28 5 is_stmt 1 view .LVU180
  28:Spirits.cpp   ****     for (auto& chord : oscs) {
 791              		.loc 4 28 16 is_stmt 0 view .LVU181
 792 001a 86ED098A 		vstr.32	s16, [r6, #36]
  29:Spirits.cpp   ****         for (auto& osc : chord) {
 793              		.loc 4 29 5 is_stmt 1 view .LVU182
 794              	.LVL53:
 795              	.LBB314:
 796              	.LBB288:
 797              	.LBI282:
 126:/Library/DaisyToolchain/0.2.0/arm/arm-none-eabi/include/c++/10.3.1/array ****       { return iterator(data()); }
 798              		.loc 3 126 7 view .LVU183
 799              	.LBB285:
 800              	.LBI283:
 234:/Library/DaisyToolchain/0.2.0/arm/arm-none-eabi/include/c++/10.3.1/array ****       { return _AT_Type::_S_ptr(_M_elems); }
 801              		.loc 3 234 7 view .LVU184
 234:/Library/DaisyToolchain/0.2.0/arm/arm-none-eabi/include/c++/10.3.1/array ****       { return _AT_Type::_S_ptr(_M_elems); }
 802              		.loc 3 234 7 is_stmt 0 view .LVU185
 803              	.LBE285:
 804              	.LBE288:
 805              	.LBB289:
 806              	.LBI286:
 134:/Library/DaisyToolchain/0.2.0/arm/arm-none-eabi/include/c++/10.3.1/array ****       { return iterator(data() + _Nm); }
 807              		.loc 3 134 7 is_stmt 1 view .LVU186
 134:/Library/DaisyToolchain/0.2.0/arm/arm-none-eabi/include/c++/10.3.1/array ****       { return iterator(data() + _Nm); }
 808              		.loc 3 134 7 is_stmt 0 view .LVU187
 809              	.LBE289:
  29:Spirits.cpp   ****         for (auto& osc : chord) {
 810              		.loc 4 29 24 is_stmt 1 view .LVU188
 811              	.L50:
  29:Spirits.cpp   ****         for (auto& osc : chord) {
 812              		.loc 4 29 24 is_stmt 0 view .LVU189
 813              	.LBE314:
  30:Spirits.cpp   ****             osc.Init(sampleRate);
 814              		.loc 4 30 9 is_stmt 1 discriminator 2 view .LVU190
  30:Spirits.cpp   ****             osc.Init(sampleRate);
 815              		.loc 4 30 9 is_stmt 0 discriminator 2 view .LVU191
 816 001e 04F18405 		add	r5, r4, #132
 817              	.LVL54:
 818              	.LBB315:
 819              	.LBB290:
  30:Spirits.cpp   ****             osc.Init(sampleRate);
 820              		.loc 4 30 26 is_stmt 1 discriminator 2 view .LVU192
 821              	.L47:
  31:Spirits.cpp   ****             osc.SetWaveform(Oscillator::WAVE_RAMP);
 822              		.loc 4 31 13 discriminator 2 view .LVU193
 823              	.LBB291:
 824              	.LBI291:
  50:./DaisySP/Source/Synthesis/oscillator.h ****     {
ARM GAS  /var/folders/s6/2bsynnl15rj0bwtb9pgx4dc00000gn/T//cc9fWWk9.s 			page 28


 825              		.loc 5 50 10 discriminator 2 view .LVU194
 826              	.LBB292:
  52:./DaisySP/Source/Synthesis/oscillator.h ****         sr_recip_  = 1.0f / sample_rate;
 827              		.loc 5 52 9 discriminator 2 view .LVU195
  53:./DaisySP/Source/Synthesis/oscillator.h ****         freq_      = 100.0f;
 828              		.loc 5 53 27 is_stmt 0 discriminator 2 view .LVU196
 829 0022 B7EE007A 		vmov.f32	s14, #1.0e+0
  55:./DaisySP/Source/Synthesis/oscillator.h ****         pw_        = 0.5f;
 830              		.loc 5 55 20 discriminator 2 view .LVU197
 831 0026 4FF07C53 		mov	r3, #1056964608
  57:./DaisySP/Source/Synthesis/oscillator.h ****         phase_inc_ = CalcPhaseInc(freq_);
 832              		.loc 5 57 20 discriminator 2 view .LVU198
 833 002a 0022     		movs	r2, #0
  54:./DaisySP/Source/Synthesis/oscillator.h ****         amp_       = 0.5f;
 834              		.loc 5 54 20 discriminator 2 view .LVU199
 835 002c 9FED350A 		vldr.32	s0, .L58
  55:./DaisySP/Source/Synthesis/oscillator.h ****         pw_        = 0.5f;
 836              		.loc 5 55 20 discriminator 2 view .LVU200
 837 0030 6360     		str	r3, [r4, #4]	@ float
  58:./DaisySP/Source/Synthesis/oscillator.h ****         waveform_  = WAVE_SIN;
 838              		.loc 5 58 34 discriminator 2 view .LVU201
 839 0032 2046     		mov	r0, r4
  53:./DaisySP/Source/Synthesis/oscillator.h ****         freq_      = 100.0f;
 840              		.loc 5 53 27 discriminator 2 view .LVU202
 841 0034 C7EE087A 		vdiv.f32	s15, s14, s16
  56:./DaisySP/Source/Synthesis/oscillator.h ****         phase_     = 0.0f;
 842              		.loc 5 56 20 discriminator 2 view .LVU203
 843 0038 E360     		str	r3, [r4, #12]	@ float
  57:./DaisySP/Source/Synthesis/oscillator.h ****         phase_inc_ = CalcPhaseInc(freq_);
 844              		.loc 5 57 20 discriminator 2 view .LVU204
 845 003a A261     		str	r2, [r4, #24]	@ float
 846              	.LBE292:
 847              	.LBE291:
  30:Spirits.cpp   ****             osc.Init(sampleRate);
 848              		.loc 4 30 9 discriminator 2 view .LVU205
 849 003c 2C34     		adds	r4, r4, #44
 850              	.LBB297:
 851              	.LBB293:
  52:./DaisySP/Source/Synthesis/oscillator.h ****         sr_recip_  = 1.0f / sample_rate;
 852              		.loc 5 52 20 discriminator 2 view .LVU206
 853 003e 04ED078A 		vstr.32	s16, [r4, #-28]
  53:./DaisySP/Source/Synthesis/oscillator.h ****         freq_      = 100.0f;
 854              		.loc 5 53 9 is_stmt 1 discriminator 2 view .LVU207
  54:./DaisySP/Source/Synthesis/oscillator.h ****         amp_       = 0.5f;
 855              		.loc 5 54 20 is_stmt 0 discriminator 2 view .LVU208
 856 0042 04ED090A 		vstr.32	s0, [r4, #-36]
  53:./DaisySP/Source/Synthesis/oscillator.h ****         freq_      = 100.0f;
 857              		.loc 5 53 20 discriminator 2 view .LVU209
 858 0046 44ED067A 		vstr.32	s15, [r4, #-24]
  54:./DaisySP/Source/Synthesis/oscillator.h ****         amp_       = 0.5f;
 859              		.loc 5 54 9 is_stmt 1 discriminator 2 view .LVU210
  55:./DaisySP/Source/Synthesis/oscillator.h ****         pw_        = 0.5f;
 860              		.loc 5 55 9 discriminator 2 view .LVU211
  56:./DaisySP/Source/Synthesis/oscillator.h ****         phase_     = 0.0f;
 861              		.loc 5 56 9 discriminator 2 view .LVU212
  57:./DaisySP/Source/Synthesis/oscillator.h ****         phase_inc_ = CalcPhaseInc(freq_);
 862              		.loc 5 57 9 discriminator 2 view .LVU213
ARM GAS  /var/folders/s6/2bsynnl15rj0bwtb9pgx4dc00000gn/T//cc9fWWk9.s 			page 29


  58:./DaisySP/Source/Synthesis/oscillator.h ****         waveform_  = WAVE_SIN;
 863              		.loc 5 58 9 discriminator 2 view .LVU214
  58:./DaisySP/Source/Synthesis/oscillator.h ****         waveform_  = WAVE_SIN;
 864              		.loc 5 58 34 is_stmt 0 discriminator 2 view .LVU215
 865 004a FFF7FEFF 		bl	_ZN7daisysp10Oscillator12CalcPhaseIncEf
 866              	.LVL55:
  60:./DaisySP/Source/Synthesis/oscillator.h ****         eor_       = true;
 867              		.loc 5 60 20 discriminator 2 view .LVU216
 868 004e 0123     		movs	r3, #1
 869              	.LBE293:
 870              	.LBE297:
 871              	.LBB298:
 872              	.LBB299:
  71:./DaisySP/Source/Synthesis/oscillator.h ****     }
  72:./DaisySP/Source/Synthesis/oscillator.h **** 
  73:./DaisySP/Source/Synthesis/oscillator.h **** 
  74:./DaisySP/Source/Synthesis/oscillator.h ****     /** Sets the amplitude of the waveform.
  75:./DaisySP/Source/Synthesis/oscillator.h ****     */
  76:./DaisySP/Source/Synthesis/oscillator.h ****     inline void SetAmp(const float a) { amp_ = a; }
  77:./DaisySP/Source/Synthesis/oscillator.h ****     /** Sets the waveform to be synthesized by the Process() function.
  78:./DaisySP/Source/Synthesis/oscillator.h ****     */
  79:./DaisySP/Source/Synthesis/oscillator.h ****     inline void SetWaveform(const uint8_t wf)
  80:./DaisySP/Source/Synthesis/oscillator.h ****     {
  81:./DaisySP/Source/Synthesis/oscillator.h ****         waveform_ = wf < WAVE_LAST ? wf : WAVE_SIN;
 873              		.loc 5 81 19 discriminator 2 view .LVU217
 874 0050 0321     		movs	r1, #3
 875              	.LBE299:
 876              	.LBE298:
 877              	.LBB302:
 878              	.LBB303:
  76:./DaisySP/Source/Synthesis/oscillator.h ****     /** Sets the waveform to be synthesized by the Process() function.
 879              		.loc 5 76 46 discriminator 2 view .LVU218
 880 0052 2D4A     		ldr	r2, .L58+4
 881              	.LBE303:
 882              	.LBE302:
  30:Spirits.cpp   ****             osc.Init(sampleRate);
 883              		.loc 4 30 26 discriminator 2 view .LVU219
 884 0054 AC42     		cmp	r4, r5
 885              	.LBB306:
 886              	.LBB294:
  58:./DaisySP/Source/Synthesis/oscillator.h ****         waveform_  = WAVE_SIN;
 887              		.loc 5 58 20 discriminator 2 view .LVU220
 888 0056 04ED040A 		vstr.32	s0, [r4, #-16]
  59:./DaisySP/Source/Synthesis/oscillator.h ****         eoc_       = true;
 889              		.loc 5 59 9 is_stmt 1 discriminator 2 view .LVU221
  60:./DaisySP/Source/Synthesis/oscillator.h ****         eor_       = true;
 890              		.loc 5 60 9 discriminator 2 view .LVU222
 891              	.LBE294:
 892              	.LBE306:
 893              	.LBB307:
 894              	.LBB300:
 895              		.loc 5 81 19 is_stmt 0 discriminator 2 view .LVU223
 896 005a 04F82C1C 		strb	r1, [r4, #-44]
 897              	.LBE300:
 898              	.LBE307:
 899              	.LBB308:
 900              	.LBB295:
ARM GAS  /var/folders/s6/2bsynnl15rj0bwtb9pgx4dc00000gn/T//cc9fWWk9.s 			page 30


  60:./DaisySP/Source/Synthesis/oscillator.h ****         eor_       = true;
 901              		.loc 5 60 20 discriminator 2 view .LVU224
 902 005e 04F8033C 		strb	r3, [r4, #-3]
  61:./DaisySP/Source/Synthesis/oscillator.h ****     }
 903              		.loc 5 61 9 is_stmt 1 discriminator 2 view .LVU225
 904              	.LBE295:
 905              	.LBE308:
 906              	.LBB309:
 907              	.LBB304:
  76:./DaisySP/Source/Synthesis/oscillator.h ****     /** Sets the waveform to be synthesized by the Process() function.
 908              		.loc 5 76 46 is_stmt 0 discriminator 2 view .LVU226
 909 0062 44F8282C 		str	r2, [r4, #-40]	@ float
 910              	.LBE304:
 911              	.LBE309:
 912              	.LBB310:
 913              	.LBB296:
  61:./DaisySP/Source/Synthesis/oscillator.h ****     }
 914              		.loc 5 61 20 discriminator 2 view .LVU227
 915 0066 04F8043C 		strb	r3, [r4, #-4]
  61:./DaisySP/Source/Synthesis/oscillator.h ****     }
 916              		.loc 5 61 20 discriminator 2 view .LVU228
 917              	.LBE296:
 918              	.LBE310:
  32:Spirits.cpp   ****             osc.SetAmp(0.6f / NUM_OSCILLATORS);
 919              		.loc 4 32 13 is_stmt 1 discriminator 2 view .LVU229
 920              	.LVL56:
 921              	.LBB311:
 922              	.LBI298:
  79:./DaisySP/Source/Synthesis/oscillator.h ****     {
 923              		.loc 5 79 17 discriminator 2 view .LVU230
 924              	.LBB301:
 925              		.loc 5 81 9 discriminator 2 view .LVU231
 926              		.loc 5 81 9 is_stmt 0 discriminator 2 view .LVU232
 927              	.LBE301:
 928              	.LBE311:
  33:Spirits.cpp   ****         }
 929              		.loc 4 33 13 is_stmt 1 discriminator 2 view .LVU233
 930              	.LBB312:
 931              	.LBI302:
  76:./DaisySP/Source/Synthesis/oscillator.h ****     /** Sets the waveform to be synthesized by the Process() function.
 932              		.loc 5 76 17 discriminator 2 view .LVU234
 933              	.LBB305:
  76:./DaisySP/Source/Synthesis/oscillator.h ****     /** Sets the waveform to be synthesized by the Process() function.
 934              		.loc 5 76 41 discriminator 2 view .LVU235
  76:./DaisySP/Source/Synthesis/oscillator.h ****     /** Sets the waveform to be synthesized by the Process() function.
 935              		.loc 5 76 41 is_stmt 0 discriminator 2 view .LVU236
 936              	.LBE305:
 937              	.LBE312:
  30:Spirits.cpp   ****             osc.Init(sampleRate);
 938              		.loc 4 30 9 is_stmt 1 discriminator 2 view .LVU237
  30:Spirits.cpp   ****             osc.Init(sampleRate);
 939              		.loc 4 30 26 discriminator 2 view .LVU238
 940 006a 02D0     		beq	.L46
  31:Spirits.cpp   ****             osc.SetWaveform(Oscillator::WAVE_RAMP);
 941              		.loc 4 31 21 is_stmt 0 view .LVU239
 942 006c 96ED098A 		vldr.32	s16, [r6, #36]
 943 0070 D7E7     		b	.L47
ARM GAS  /var/folders/s6/2bsynnl15rj0bwtb9pgx4dc00000gn/T//cc9fWWk9.s 			page 31


 944              	.L46:
  31:Spirits.cpp   ****             osc.SetWaveform(Oscillator::WAVE_RAMP);
 945              		.loc 4 31 21 view .LVU240
 946              	.LBE290:
  29:Spirits.cpp   ****         for (auto& osc : chord) {
 947              		.loc 4 29 5 is_stmt 1 discriminator 3 view .LVU241
 948              	.LVL57:
  29:Spirits.cpp   ****         for (auto& osc : chord) {
 949              		.loc 4 29 24 discriminator 3 view .LVU242
 950 0072 A742     		cmp	r7, r4
 951 0074 02D0     		beq	.L57
 952              	.LBB313:
  31:Spirits.cpp   ****             osc.SetWaveform(Oscillator::WAVE_RAMP);
 953              		.loc 4 31 21 is_stmt 0 view .LVU243
 954 0076 96ED098A 		vldr.32	s16, [r6, #36]
 955              	.LVL58:
  31:Spirits.cpp   ****             osc.SetWaveform(Oscillator::WAVE_RAMP);
 956              		.loc 4 31 21 view .LVU244
 957 007a D0E7     		b	.L50
 958              	.LVL59:
 959              	.L57:
  31:Spirits.cpp   ****             osc.SetWaveform(Oscillator::WAVE_RAMP);
 960              		.loc 4 31 21 view .LVU245
 961 007c DFF89490 		ldr	r9, .L58+16
 962 0080 06F1AC05 		add	r5, r6, #172
 963              	.LVL60:
  31:Spirits.cpp   ****             osc.SetWaveform(Oscillator::WAVE_RAMP);
 964              		.loc 4 31 21 view .LVU246
 965 0084 06F5896A 		add	r10, r6, #1096
 966              	.LBE313:
  29:Spirits.cpp   ****         for (auto& osc : chord) {
 967              		.loc 4 29 24 view .LVU247
 968 0088 9FED200A 		vldr.32	s0, .L58+8
 969              	.LVL61:
 970              	.L49:
  29:Spirits.cpp   ****         for (auto& osc : chord) {
 971              		.loc 4 29 24 view .LVU248
 972              	.LBE315:
 973              	.LBB316:
  39:Spirits.cpp   ****     }
 974              		.loc 4 39 9 is_stmt 1 discriminator 2 view .LVU249
 975              	.LBB317:
 976              	.LBI317:
  78:Spirits.cpp   ****     for (size_t i = 0; i < NUM_OSCILLATORS; ++i) {
 977              		.loc 4 78 6 discriminator 2 view .LVU250
 978              	.LBB318:
  79:Spirits.cpp   ****         oscs[chordIndex][i].SetFreq(freqs[i]);
 979              		.loc 4 79 26 discriminator 2 view .LVU251
 980 008c A5F18404 		sub	r4, r5, #132
 981              	.LBE318:
 982              	.LBE317:
 983              	.LBE316:
 984              	.LBB331:
  29:Spirits.cpp   ****         for (auto& osc : chord) {
 985              		.loc 4 29 24 is_stmt 0 discriminator 2 view .LVU252
 986 0090 C846     		mov	r8, r9
 987              	.LVL62:
ARM GAS  /var/folders/s6/2bsynnl15rj0bwtb9pgx4dc00000gn/T//cc9fWWk9.s 			page 32


 988              	.L52:
  29:Spirits.cpp   ****         for (auto& osc : chord) {
 989              		.loc 4 29 24 discriminator 2 view .LVU253
 990              	.LBE331:
 991              	.LBB332:
 992              	.LBB329:
 993              	.LBB327:
  80:Spirits.cpp   ****     }
 994              		.loc 4 80 9 is_stmt 1 view .LVU254
 995              	.LBB319:
 996              	.LBI319:
 185:/Library/DaisyToolchain/0.2.0/arm/arm-none-eabi/include/c++/10.3.1/array ****       { return _AT_Type::_S_ref(_M_elems, __n); }
 997              		.loc 3 185 7 view .LVU255
 998              	.LBB320:
 999              	.LBI320:
  55:/Library/DaisyToolchain/0.2.0/arm/arm-none-eabi/include/c++/10.3.1/array ****       { return const_cast<_Tp&>(__t[__n]); }
 1000              		.loc 3 55 7 view .LVU256
  55:/Library/DaisyToolchain/0.2.0/arm/arm-none-eabi/include/c++/10.3.1/array ****       { return const_cast<_Tp&>(__t[__n]); }
 1001              		.loc 3 55 7 is_stmt 0 view .LVU257
 1002              	.LBE320:
 1003              	.LBE319:
 1004              	.LBB321:
 1005              	.LBI321:
  67:./DaisySP/Source/Synthesis/oscillator.h ****     {
 1006              		.loc 5 67 17 is_stmt 1 view .LVU258
 1007              	.LBB322:
  69:./DaisySP/Source/Synthesis/oscillator.h ****         phase_inc_ = CalcPhaseInc(f);
 1008              		.loc 5 69 9 view .LVU259
  69:./DaisySP/Source/Synthesis/oscillator.h ****         phase_inc_ = CalcPhaseInc(f);
 1009              		.loc 5 69 20 is_stmt 0 view .LVU260
 1010 0092 84ED020A 		vstr.32	s0, [r4, #8]
  70:./DaisySP/Source/Synthesis/oscillator.h ****     }
 1011              		.loc 5 70 9 is_stmt 1 view .LVU261
  70:./DaisySP/Source/Synthesis/oscillator.h ****     }
 1012              		.loc 5 70 34 is_stmt 0 view .LVU262
 1013 0096 2046     		mov	r0, r4
 1014              	.LBE322:
 1015              	.LBE321:
  79:Spirits.cpp   ****         oscs[chordIndex][i].SetFreq(freqs[i]);
 1016              		.loc 4 79 26 view .LVU263
 1017 0098 2C34     		adds	r4, r4, #44
 1018              	.LVL63:
 1019              	.LBB325:
 1020              	.LBB323:
  70:./DaisySP/Source/Synthesis/oscillator.h ****     }
 1021              		.loc 5 70 34 view .LVU264
 1022 009a FFF7FEFF 		bl	_ZN7daisysp10Oscillator12CalcPhaseIncEf
 1023              	.LVL64:
  70:./DaisySP/Source/Synthesis/oscillator.h ****     }
 1024              		.loc 5 70 34 view .LVU265
 1025              	.LBE323:
 1026              	.LBE325:
  79:Spirits.cpp   ****         oscs[chordIndex][i].SetFreq(freqs[i]);
 1027              		.loc 4 79 26 view .LVU266
 1028 009e AC42     		cmp	r4, r5
 1029              	.LBB326:
 1030              	.LBB324:
ARM GAS  /var/folders/s6/2bsynnl15rj0bwtb9pgx4dc00000gn/T//cc9fWWk9.s 			page 33


  70:./DaisySP/Source/Synthesis/oscillator.h ****     }
 1031              		.loc 5 70 20 view .LVU267
 1032 00a0 04ED040A 		vstr.32	s0, [r4, #-16]
 1033              	.LVL65:
  70:./DaisySP/Source/Synthesis/oscillator.h ****     }
 1034              		.loc 5 70 20 view .LVU268
 1035              	.LBE324:
 1036              	.LBE326:
  79:Spirits.cpp   ****         oscs[chordIndex][i].SetFreq(freqs[i]);
 1037              		.loc 4 79 5 is_stmt 1 view .LVU269
  79:Spirits.cpp   ****         oscs[chordIndex][i].SetFreq(freqs[i]);
 1038              		.loc 4 79 26 view .LVU270
 1039 00a4 02D0     		beq	.L51
  80:Spirits.cpp   ****     }
 1040              		.loc 4 80 36 is_stmt 0 view .LVU271
 1041 00a6 B8EC010A 		vldmia.32	r8!, {s0}
 1042 00aa F2E7     		b	.L52
 1043              	.L51:
 1044              	.LVL66:
  80:Spirits.cpp   ****     }
 1045              		.loc 4 80 36 view .LVU272
 1046              	.LBE327:
 1047              	.LBE329:
  38:Spirits.cpp   ****         SetChord(i, chords[i]);
 1048              		.loc 4 38 5 is_stmt 1 discriminator 2 view .LVU273
  38:Spirits.cpp   ****         SetChord(i, chords[i]);
 1049              		.loc 4 38 23 discriminator 2 view .LVU274
 1050 00ac 8435     		adds	r5, r5, #132
 1051 00ae 09F10C09 		add	r9, r9, #12
 1052 00b2 5545     		cmp	r5, r10
 1053 00b4 02D0     		beq	.L53
 1054              	.LBB330:
 1055              	.LBB328:
  80:Spirits.cpp   ****     }
 1056              		.loc 4 80 36 is_stmt 0 view .LVU275
 1057 00b6 19ED010A 		vldr.32	s0, [r9, #-4]
 1058 00ba E7E7     		b	.L49
 1059              	.L53:
 1060              	.LBE328:
 1061              	.LBE330:
 1062              	.LBE332:
  42:Spirits.cpp   ****     env.SetTime(ADENV_SEG_ATTACK, attack);
 1063              		.loc 4 42 5 is_stmt 1 view .LVU276
  42:Spirits.cpp   ****     env.SetTime(ADENV_SEG_ATTACK, attack);
 1064              		.loc 4 42 13 is_stmt 0 view .LVU277
 1065 00bc 3846     		mov	r0, r7
 1066 00be 96ED090A 		vldr.32	s0, [r6, #36]
 1067 00c2 FFF7FEFF 		bl	_ZN7daisysp5AdEnv4InitEf
 1068              	.LVL67:
  43:Spirits.cpp   ****     env.SetTime(ADENV_SEG_DECAY, decay);
 1069              		.loc 4 43 5 is_stmt 1 view .LVU278
 1070              	.LBB333:
 1071              	.LBI333:
  65:./DaisySP/Source/Control/adenv.h ****     /** Sets the length of time (in seconds) for a specific segment. */
  66:./DaisySP/Source/Control/adenv.h ****     inline void SetTime(uint8_t seg, float time) { segment_time_[seg] = time; }
 1072              		.loc 2 66 17 view .LVU279
 1073              	.LBB334:
ARM GAS  /var/folders/s6/2bsynnl15rj0bwtb9pgx4dc00000gn/T//cc9fWWk9.s 			page 34


 1074              		.loc 2 66 52 view .LVU280
 1075              		.loc 2 66 71 is_stmt 0 view .LVU281
 1076 00c6 7268     		ldr	r2, [r6, #4]	@ float
 1077              	.LBE334:
 1078              	.LBE333:
 1079              	.LBB336:
 1080              	.LBB337:
 1081 00c8 B368     		ldr	r3, [r6, #8]	@ float
 1082              	.LBE337:
 1083              	.LBE336:
 1084              	.LBB339:
 1085              	.LBB340:
  67:./DaisySP/Source/Control/adenv.h ****     /** Sets the amount of curve applied. A positve value will create a log
  68:./DaisySP/Source/Control/adenv.h ****         curve. Input range: -100 to 100.  (or more)
  69:./DaisySP/Source/Control/adenv.h ****     */
  70:./DaisySP/Source/Control/adenv.h ****     inline void SetCurve(float scalar) { curve_scalar_ = scalar; }
  71:./DaisySP/Source/Control/adenv.h ****     /** Sets the minimum value of the envelope output.
  72:./DaisySP/Source/Control/adenv.h ****         Input range: -FLTmax_, to FLTmax_
  73:./DaisySP/Source/Control/adenv.h ****     */
  74:./DaisySP/Source/Control/adenv.h ****     inline void SetMin(float min) { min_ = min; }
 1086              		.loc 2 74 42 view .LVU282
 1087 00ca 0021     		movs	r1, #0
 1088              	.LBE340:
 1089              	.LBE339:
 1090              	.LBB343:
 1091              	.LBB344:
  75:./DaisySP/Source/Control/adenv.h ****     /** Sets the maximum value of the envelope output.
  76:./DaisySP/Source/Control/adenv.h ****         Input range: -FLTmax_, to FLTmax_
  77:./DaisySP/Source/Control/adenv.h ****     */
  78:./DaisySP/Source/Control/adenv.h ****     inline void SetMax(float max) { max_ = max; }
 1092              		.loc 2 78 42 view .LVU283
 1093 00cc F068     		ldr	r0, [r6, #12]	@ float
 1094              	.LBE344:
 1095              	.LBE343:
 1096              	.LBB347:
 1097              	.LBB335:
  66:./DaisySP/Source/Control/adenv.h ****     /** Sets the amount of curve applied. A positve value will create a log
 1098              		.loc 2 66 71 view .LVU284
 1099 00ce C6F8CC23 		str	r2, [r6, #972]	@ float
 1100              	.LVL68:
  66:./DaisySP/Source/Control/adenv.h ****     /** Sets the amount of curve applied. A positve value will create a log
 1101              		.loc 2 66 71 view .LVU285
 1102              	.LBE335:
 1103              	.LBE347:
  44:Spirits.cpp   ****     env.SetMin(0.0);
 1104              		.loc 4 44 5 is_stmt 1 view .LVU286
 1105              	.LBB348:
 1106              	.LBI336:
  66:./DaisySP/Source/Control/adenv.h ****     /** Sets the amount of curve applied. A positve value will create a log
 1107              		.loc 2 66 17 view .LVU287
 1108              	.LBB338:
  66:./DaisySP/Source/Control/adenv.h ****     /** Sets the amount of curve applied. A positve value will create a log
 1109              		.loc 2 66 52 view .LVU288
  66:./DaisySP/Source/Control/adenv.h ****     /** Sets the amount of curve applied. A positve value will create a log
 1110              		.loc 2 66 71 is_stmt 0 view .LVU289
 1111 00d2 C6F8D033 		str	r3, [r6, #976]	@ float
 1112              	.LVL69:
ARM GAS  /var/folders/s6/2bsynnl15rj0bwtb9pgx4dc00000gn/T//cc9fWWk9.s 			page 35


  66:./DaisySP/Source/Control/adenv.h ****     /** Sets the amount of curve applied. A positve value will create a log
 1113              		.loc 2 66 71 view .LVU290
 1114              	.LBE338:
 1115              	.LBE348:
  45:Spirits.cpp   ****     env.SetMax(sustain);
 1116              		.loc 4 45 5 is_stmt 1 view .LVU291
 1117              	.LBB349:
 1118              	.LBI339:
  74:./DaisySP/Source/Control/adenv.h ****     /** Sets the maximum value of the envelope output.
 1119              		.loc 2 74 17 view .LVU292
 1120              	.LBB341:
  74:./DaisySP/Source/Control/adenv.h ****     /** Sets the maximum value of the envelope output.
 1121              		.loc 2 74 37 view .LVU293
  74:./DaisySP/Source/Control/adenv.h ****     /** Sets the maximum value of the envelope output.
 1122              		.loc 2 74 37 is_stmt 0 view .LVU294
 1123              	.LBE341:
 1124              	.LBE349:
  46:Spirits.cpp   ****     env.SetCurve(0.0f);  // Linear curve
 1125              		.loc 4 46 5 is_stmt 1 view .LVU295
 1126              	.LBB350:
 1127              	.LBI343:
 1128              		.loc 2 78 17 view .LVU296
 1129              	.LBB345:
 1130              		.loc 2 78 37 view .LVU297
 1131              	.LBE345:
 1132              	.LBE350:
 1133              	.LBB351:
  50:Spirits.cpp   ****         hugeArray[i] = static_cast<float>(i) / (1024 * 1024);
 1134              		.loc 4 50 14 is_stmt 0 view .LVU298
 1135 00d6 0023     		movs	r3, #0
 1136 00d8 0D4A     		ldr	r2, .L58+12
 1137              	.LBE351:
 1138              	.LBB352:
 1139              	.LBB342:
  74:./DaisySP/Source/Control/adenv.h ****     /** Sets the maximum value of the envelope output.
 1140              		.loc 2 74 42 view .LVU299
 1141 00da C6F8D813 		str	r1, [r6, #984]	@ float
 1142              	.LBE342:
 1143              	.LBE352:
 1144              	.LBB353:
 1145              	.LBB346:
 1146              		.loc 2 78 42 view .LVU300
 1147 00de C6F8DC03 		str	r0, [r6, #988]	@ float
 1148              	.LVL70:
 1149              		.loc 2 78 42 view .LVU301
 1150              	.LBE346:
 1151              	.LBE353:
  47:Spirits.cpp   **** 
 1152              		.loc 4 47 5 is_stmt 1 view .LVU302
 1153              	.LBB354:
 1154              	.LBI354:
  70:./DaisySP/Source/Control/adenv.h ****     /** Sets the minimum value of the envelope output.
 1155              		.loc 2 70 17 view .LVU303
 1156              	.LBB355:
  70:./DaisySP/Source/Control/adenv.h ****     /** Sets the minimum value of the envelope output.
 1157              		.loc 2 70 42 view .LVU304
  70:./DaisySP/Source/Control/adenv.h ****     /** Sets the minimum value of the envelope output.
ARM GAS  /var/folders/s6/2bsynnl15rj0bwtb9pgx4dc00000gn/T//cc9fWWk9.s 			page 36


 1158              		.loc 2 70 56 is_stmt 0 view .LVU305
 1159 00e2 C6F8E413 		str	r1, [r6, #996]	@ float
 1160              	.LVL71:
  70:./DaisySP/Source/Control/adenv.h ****     /** Sets the minimum value of the envelope output.
 1161              		.loc 2 70 56 view .LVU306
 1162              	.LBE355:
 1163              	.LBE354:
  50:Spirits.cpp   ****         hugeArray[i] = static_cast<float>(i) / (1024 * 1024);
 1164              		.loc 4 50 5 is_stmt 1 view .LVU307
 1165              	.LBB356:
  50:Spirits.cpp   ****         hugeArray[i] = static_cast<float>(i) / (1024 * 1024);
 1166              		.loc 4 50 23 view .LVU308
 1167              	.L54:
  51:Spirits.cpp   ****     }
 1168              		.loc 4 51 9 discriminator 2 view .LVU309
  51:Spirits.cpp   ****     }
 1169              		.loc 4 51 46 is_stmt 0 discriminator 2 view .LVU310
 1170 00e6 07EE903A 		vmov	s15, r3	@ int
  50:Spirits.cpp   ****         hugeArray[i] = static_cast<float>(i) / (1024 * 1024);
 1171              		.loc 4 50 5 discriminator 2 view .LVU311
 1172 00ea 0133     		adds	r3, r3, #1
 1173              	.LVL72:
  51:Spirits.cpp   ****     }
 1174              		.loc 4 51 46 discriminator 2 view .LVU312
 1175 00ec FAEEC67A 		vcvt.f32.s32	s15, s15, #20
 1176              	.LVL73:
  50:Spirits.cpp   ****         hugeArray[i] = static_cast<float>(i) / (1024 * 1024);
 1177              		.loc 4 50 23 discriminator 2 view .LVU313
 1178 00f0 B3F5801F 		cmp	r3, #1048576
  51:Spirits.cpp   ****     }
 1179              		.loc 4 51 22 discriminator 2 view .LVU314
 1180 00f4 E2EC017A 		vstmia.32	r2!, {s15}
  50:Spirits.cpp   ****         hugeArray[i] = static_cast<float>(i) / (1024 * 1024);
 1181              		.loc 4 50 5 is_stmt 1 discriminator 2 view .LVU315
 1182              	.LVL74:
  50:Spirits.cpp   ****         hugeArray[i] = static_cast<float>(i) / (1024 * 1024);
 1183              		.loc 4 50 23 discriminator 2 view .LVU316
 1184 00f8 F5D1     		bne	.L54
 1185              	.LBE356:
  53:Spirits.cpp   **** 
 1186              		.loc 4 53 1 is_stmt 0 view .LVU317
 1187 00fa BDEC028B 		vldm	sp!, {d8}
 1188              		.cfi_restore 80
 1189              		.cfi_restore 81
 1190              		.cfi_def_cfa_offset 32
 1191 00fe BDE8F087 		pop	{r4, r5, r6, r7, r8, r9, r10, pc}
 1192              	.LVL75:
 1193              	.L59:
  53:Spirits.cpp   **** 
 1194              		.loc 4 53 1 view .LVU318
 1195 0102 00BF     		.align	2
 1196              	.L58:
 1197 0104 0000C842 		.word	1120403456
 1198 0108 CDCC4C3E 		.word	1045220557
 1199 010c A4D08243 		.word	1132646564
 1200 0110 00000000 		.word	hugeArray
 1201 0114 04000000 		.word	.LANCHOR2+4
ARM GAS  /var/folders/s6/2bsynnl15rj0bwtb9pgx4dc00000gn/T//cc9fWWk9.s 			page 37


 1202              		.cfi_endproc
 1203              	.LFE4747:
 1205              		.global	_ZTV7Spirits
 1206              		.global	hugeArray
 1207              		.global	_ZN7Spirits6chordsE
 1208              		.section	.bss._ZZN7Spirits7ProcessEvE10lastOutput,"aw",%nobits
 1209              		.align	2
 1210              		.set	.LANCHOR1,. + 0
 1213              	_ZZN7Spirits7ProcessEvE10lastOutput:
 1214 0000 00000000 		.space	4
 1215              		.section	.rodata._ZTV7Spirits,"a"
 1216              		.align	2
 1217              		.set	.LANCHOR0,. + 0
 1220              	_ZTV7Spirits:
 1221 0000 00000000 		.word	0
 1222 0004 00000000 		.word	0
 1223 0008 00000000 		.word	_ZN7SpiritsD1Ev
 1224 000c 00000000 		.word	_ZN7SpiritsD0Ev
 1225 0010 00000000 		.word	_ZN7Spirits4InitEf
 1226 0014 00000000 		.word	_ZN7Spirits7ProcessEv
 1227              		.section	.sdram_bss,"aw"
 1228              		.align	2
 1231              	hugeArray:
 1232 0000 00000000 		.space	4194304
 1232      00000000 
 1232      00000000 
 1232      00000000 
 1232      00000000 
 1233              		.section	.sdram_data,"a"
 1234              		.align	2
 1235              		.set	.LANCHOR2,. + 0
 1238              	_ZN7Spirits6chordsE:
 1239 0000 A4D08243 		.word	1132646564
 1240 0004 A4D0A443 		.word	1134874788
 1241 0008 0000C443 		.word	1136918528
 1242 000c 7BD49243 		.word	1133696123
 1243 0010 719DAE43 		.word	1135517041
 1244 0014 0000DC43 		.word	1138491392
 1245 0018 A4D0A443 		.word	1134874788
 1246 001c 0000C443 		.word	1136918528
 1247 0020 A4F0F643 		.word	1140256932
 1248 0024 719DAE43 		.word	1135517041
 1249 0028 0000DC43 		.word	1138491392
 1250 002c 00D00244 		.word	1141035008
 1251 0030 0000C443 		.word	1136918528
 1252 0034 A4F0F643 		.word	1140256932
 1253 0038 1FD51244 		.word	1142084895
 1254 003c 0000DC43 		.word	1138491392
 1255 0040 00D00244 		.word	1141035008
 1256 0044 00D02444 		.word	1143263232
 1257 0048 A4F0F643 		.word	1140256932
 1258 004c 1FD51244 		.word	1142084895
 1259 0050 719D2E44 		.word	1143905649
 1260              		.text
 1261              	.Letext0:
 1262              		.file 7 "/Library/DaisyToolchain/0.2.0/arm/arm-none-eabi/include/machine/_default_types.h"
 1263              		.file 8 "/Library/DaisyToolchain/0.2.0/arm/arm-none-eabi/include/sys/_stdint.h"
ARM GAS  /var/folders/s6/2bsynnl15rj0bwtb9pgx4dc00000gn/T//cc9fWWk9.s 			page 38


 1264              		.file 9 "/Library/DaisyToolchain/0.2.0/arm/arm-none-eabi/include/stdint.h"
 1265              		.file 10 "/Library/DaisyToolchain/0.2.0/arm/lib/gcc/arm-none-eabi/10.3.1/include/stddef.h"
 1266              		.file 11 "/Library/DaisyToolchain/0.2.0/arm/arm-none-eabi/include/c++/10.3.1/cmath"
 1267              		.file 12 "/Library/DaisyToolchain/0.2.0/arm/arm-none-eabi/include/c++/10.3.1/bits/std_abs.h"
 1268              		.file 13 "/Library/DaisyToolchain/0.2.0/arm/arm-none-eabi/include/c++/10.3.1/cstdlib"
 1269              		.file 14 "/Library/DaisyToolchain/0.2.0/arm/arm-none-eabi/include/c++/10.3.1/cstdint"
 1270              		.file 15 "/Library/DaisyToolchain/0.2.0/arm/arm-none-eabi/include/c++/10.3.1/arm-none-eabi/thumb/v
 1271              		.file 16 "/Library/DaisyToolchain/0.2.0/arm/arm-none-eabi/include/c++/10.3.1/type_traits"
 1272              		.file 17 "/Library/DaisyToolchain/0.2.0/arm/arm-none-eabi/include/c++/10.3.1/debug/debug.h"
 1273              		.file 18 "/Library/DaisyToolchain/0.2.0/arm/arm-none-eabi/include/c++/10.3.1/bits/algorithmfwd.h"
 1274              		.file 19 "/Library/DaisyToolchain/0.2.0/arm/arm-none-eabi/include/c++/10.3.1/bits/stl_pair.h"
 1275              		.file 20 "/Library/DaisyToolchain/0.2.0/arm/arm-none-eabi/include/c++/10.3.1/bits/exception_ptr.h"
 1276              		.file 21 "/Library/DaisyToolchain/0.2.0/arm/arm-none-eabi/include/c++/10.3.1/cstdarg"
 1277              		.file 22 "/Library/DaisyToolchain/0.2.0/arm/arm-none-eabi/include/c++/10.3.1/cstdio"
 1278              		.file 23 "/Library/DaisyToolchain/0.2.0/arm/arm-none-eabi/include/c++/10.3.1/cstring"
 1279              		.file 24 "/Library/DaisyToolchain/0.2.0/arm/arm-none-eabi/include/c++/10.3.1/cwchar"
 1280              		.file 25 "/Library/DaisyToolchain/0.2.0/arm/arm-none-eabi/include/c++/10.3.1/clocale"
 1281              		.file 26 "/Library/DaisyToolchain/0.2.0/arm/arm-none-eabi/include/c++/10.3.1/bits/basic_string.h"
 1282              		.file 27 "/Library/DaisyToolchain/0.2.0/arm/arm-none-eabi/include/c++/10.3.1/bits/stl_iterator.h"
 1283              		.file 28 "/Library/DaisyToolchain/0.2.0/arm/arm-none-eabi/include/c++/10.3.1/bits/predefined_ops.h
 1284              		.file 29 "/Library/DaisyToolchain/0.2.0/arm/arm-none-eabi/include/sys/_types.h"
 1285              		.file 30 "/Library/DaisyToolchain/0.2.0/arm/arm-none-eabi/include/sys/reent.h"
 1286              		.file 31 "/Library/DaisyToolchain/0.2.0/arm/arm-none-eabi/include/sys/lock.h"
 1287              		.file 32 "/Library/DaisyToolchain/0.2.0/arm/arm-none-eabi/include/math.h"
 1288              		.file 33 "/Library/DaisyToolchain/0.2.0/arm/arm-none-eabi/include/stdlib.h"
 1289              		.file 34 "/Library/DaisyToolchain/0.2.0/arm/arm-none-eabi/include/c++/10.3.1/math.h"
 1290              		.file 35 "/Library/DaisyToolchain/0.2.0/arm/arm-none-eabi/include/c++/10.3.1/stdlib.h"
 1291              		.file 36 "./libDaisy/src/daisy_core.h"
 1292              		.file 37 "./libDaisy/src/per/tim.h"
 1293              		.file 38 "./libDaisy/src/sys/system.h"
 1294              		.file 39 "./libDaisy/src/per/qspi.h"
 1295              		.file 40 "./libDaisy/src/per/dac.h"
 1296              		.file 41 "./libDaisy/src/per/sai.h"
 1297              		.file 42 "./libDaisy/src/hid/audio.h"
 1298              		.file 43 "./libDaisy/src/per/adc.h"
 1299              		.file 44 "./libDaisy/src/hid/usb.h"
 1300              		.file 45 "./libDaisy/src/hid/logger_impl.h"
 1301              		.file 46 "./libDaisy/src/util/wav_format.h"
 1302              		.file 47 "./libDaisy/src/dev/max11300.h"
 1303              		.file 48 "./libDaisy/src/hid/logger.h"
 1304              		.file 49 "./libDaisy/src/per/gpio.h"
 1305              		.file 50 "./libDaisy/src/dev/sdram.h"
 1306              		.file 51 "/Library/DaisyToolchain/0.2.0/arm/lib/gcc/arm-none-eabi/10.3.1/include/stdarg.h"
 1307              		.file 52 "/Library/DaisyToolchain/0.2.0/arm/arm-none-eabi/include/stdio.h"
 1308              		.file 53 "/Library/DaisyToolchain/0.2.0/arm/arm-none-eabi/include/string.h"
 1309              		.file 54 "./DaisySP/Source/Utility/dsp.h"
 1310              		.file 55 "/Library/DaisyToolchain/0.2.0/arm/arm-none-eabi/include/wchar.h"
 1311              		.file 56 "/Library/DaisyToolchain/0.2.0/arm/arm-none-eabi/include/locale.h"
 1312              		.file 57 "./libDaisy/src/dev/sr_595.h"
 1313              		.file 58 "Sound.h"
 1314              		.file 59 "/Library/DaisyToolchain/0.2.0/arm/arm-none-eabi/include/c++/10.3.1/new"
 1315              		.file 60 "<built-in>"
ARM GAS  /var/folders/s6/2bsynnl15rj0bwtb9pgx4dc00000gn/T//cc9fWWk9.s 			page 39

