ARM GAS  /var/folders/s6/2bsynnl15rj0bwtb9pgx4dc00000gn/T//cc76hY55.s 			page 1


   1              		.cpu cortex-m7
   2              		.arch armv7e-m
   3              		.fpu fpv5-d16
   4              		.eabi_attribute 28, 1
   5              		.eabi_attribute 20, 1
   6              		.eabi_attribute 21, 1
   7              		.eabi_attribute 23, 3
   8              		.eabi_attribute 24, 1
   9              		.eabi_attribute 25, 1
  10              		.eabi_attribute 26, 1
  11              		.eabi_attribute 30, 2
  12              		.eabi_attribute 34, 1
  13              		.eabi_attribute 18, 4
  14              		.file	"TestTFT.cpp"
  15              		.text
  16              	.Ltext0:
  17              		.cfi_sections	.debug_frame
  18              		.section	.text._ZN5daisy7EncoderD2Ev,"axG",%progbits,_ZN5daisy7EncoderD5Ev,comdat
  19              		.align	1
  20              		.p2align 2,,3
  21              		.weak	_ZN5daisy7EncoderD2Ev
  22              		.syntax unified
  23              		.thumb
  24              		.thumb_func
  26              	_ZN5daisy7EncoderD2Ev:
  27              	.LVL0:
  28              	.LFB1652:
  29              		.file 1 "./libDaisy/src/hid/encoder.h"
   1:./libDaisy/src/hid/encoder.h **** #pragma once
   2:./libDaisy/src/hid/encoder.h **** #ifndef DSY_ENCODER_H
   3:./libDaisy/src/hid/encoder.h **** #define DSY_ENCODER_H
   4:./libDaisy/src/hid/encoder.h **** #include "daisy_core.h"
   5:./libDaisy/src/hid/encoder.h **** #include "per/gpio.h"
   6:./libDaisy/src/hid/encoder.h **** #include "hid/switch.h"
   7:./libDaisy/src/hid/encoder.h **** 
   8:./libDaisy/src/hid/encoder.h **** namespace daisy
   9:./libDaisy/src/hid/encoder.h **** {
  10:./libDaisy/src/hid/encoder.h **** /** 
  11:./libDaisy/src/hid/encoder.h ****     @brief Generic Class for handling Quadrature Encoders \n 
  12:./libDaisy/src/hid/encoder.h ****     Inspired/influenced by Mutable Instruments (pichenettes) Encoder classes
  13:./libDaisy/src/hid/encoder.h ****     @author Stephen Hensley
  14:./libDaisy/src/hid/encoder.h ****     @date December 2019
  15:./libDaisy/src/hid/encoder.h ****     @ingroup controls
  16:./libDaisy/src/hid/encoder.h **** */
  17:./libDaisy/src/hid/encoder.h **** class Encoder
  18:./libDaisy/src/hid/encoder.h **** {
  19:./libDaisy/src/hid/encoder.h ****   public:
  20:./libDaisy/src/hid/encoder.h ****     Encoder() {}
  21:./libDaisy/src/hid/encoder.h ****     ~Encoder() {}
  30              		.loc 1 21 5 view -0
  31              		.cfi_startproc
  32              		@ args = 0, pretend = 0, frame = 0
  33              		@ frame_needed = 0, uses_anonymous_args = 0
  34              		@ link register save eliminated.
  35              	.LBB455:
  36              	.LBI455:
  37              		.file 2 "./libDaisy/src/hid/switch.h"
ARM GAS  /var/folders/s6/2bsynnl15rj0bwtb9pgx4dc00000gn/T//cc76hY55.s 			page 2


   1:./libDaisy/src/hid/switch.h **** #pragma once
   2:./libDaisy/src/hid/switch.h **** #ifndef DSY_SWITCH_H
   3:./libDaisy/src/hid/switch.h **** #define DSY_SWITCH_H
   4:./libDaisy/src/hid/switch.h **** #include "daisy_core.h"
   5:./libDaisy/src/hid/switch.h **** #include "per/gpio.h"
   6:./libDaisy/src/hid/switch.h **** #include "sys/system.h"
   7:./libDaisy/src/hid/switch.h **** 
   8:./libDaisy/src/hid/switch.h **** namespace daisy
   9:./libDaisy/src/hid/switch.h **** {
  10:./libDaisy/src/hid/switch.h **** /** 
  11:./libDaisy/src/hid/switch.h ****     Generic Class for handling momentary/latching switches \n 
  12:./libDaisy/src/hid/switch.h ****     Inspired/influenced by Mutable Instruments (pichenettes) Switch classes
  13:./libDaisy/src/hid/switch.h ****     @author Stephen Hensley
  14:./libDaisy/src/hid/switch.h ****     @date December 2019
  15:./libDaisy/src/hid/switch.h ****     @ingroup controls
  16:./libDaisy/src/hid/switch.h **** */
  17:./libDaisy/src/hid/switch.h **** class Switch
  18:./libDaisy/src/hid/switch.h **** {
  19:./libDaisy/src/hid/switch.h ****   public:
  20:./libDaisy/src/hid/switch.h ****     /** Specifies the expected behavior of the switch */
  21:./libDaisy/src/hid/switch.h ****     enum Type
  22:./libDaisy/src/hid/switch.h ****     {
  23:./libDaisy/src/hid/switch.h ****         TYPE_TOGGLE,    /**< & */
  24:./libDaisy/src/hid/switch.h ****         TYPE_MOMENTARY, /**< & */
  25:./libDaisy/src/hid/switch.h ****     };
  26:./libDaisy/src/hid/switch.h ****     /** Specifies whether the pressed is HIGH or LOW. */
  27:./libDaisy/src/hid/switch.h ****     enum Polarity
  28:./libDaisy/src/hid/switch.h ****     {
  29:./libDaisy/src/hid/switch.h ****         POLARITY_NORMAL,   /**< & */
  30:./libDaisy/src/hid/switch.h ****         POLARITY_INVERTED, /**< & */
  31:./libDaisy/src/hid/switch.h ****     };
  32:./libDaisy/src/hid/switch.h **** 
  33:./libDaisy/src/hid/switch.h ****     /** Specifies whether to use built-in Pull Up/Down resistors to hold button at a given state wh
  34:./libDaisy/src/hid/switch.h ****     enum Pull
  35:./libDaisy/src/hid/switch.h ****     {
  36:./libDaisy/src/hid/switch.h ****         PULL_UP,   /**< & */
  37:./libDaisy/src/hid/switch.h ****         PULL_DOWN, /**< & */
  38:./libDaisy/src/hid/switch.h ****         PULL_NONE, /**< & */
  39:./libDaisy/src/hid/switch.h ****     };
  40:./libDaisy/src/hid/switch.h **** 
  41:./libDaisy/src/hid/switch.h ****     Switch() {}
  42:./libDaisy/src/hid/switch.h ****     ~Switch() {}
  38              		.loc 2 42 5 view .LVU1
  39              		.loc 2 42 5 is_stmt 0 view .LVU2
  40              	.LBE455:
  41              		.loc 1 21 17 view .LVU3
  42 0000 7047     		bx	lr
  43              		.cfi_endproc
  44              	.LFE1652:
  46              		.weak	_ZN5daisy7EncoderD1Ev
  47              		.thumb_set _ZN5daisy7EncoderD1Ev,_ZN5daisy7EncoderD2Ev
  48 0002 00BF     		.section	.text._ZN5daisy9DaisySeedD2Ev,"axG",%progbits,_ZN5daisy9DaisySeedD5Ev,comdat
  49              		.align	1
  50              		.p2align 2,,3
  51              		.weak	_ZN5daisy9DaisySeedD2Ev
  52              		.syntax unified
  53              		.thumb
ARM GAS  /var/folders/s6/2bsynnl15rj0bwtb9pgx4dc00000gn/T//cc76hY55.s 			page 3


  54              		.thumb_func
  56              	_ZN5daisy9DaisySeedD2Ev:
  57              	.LVL1:
  58              	.LFB2556:
  59              		.file 3 "./libDaisy/src/daisy_seed.h"
   1:./libDaisy/src/daisy_seed.h **** #pragma once
   2:./libDaisy/src/daisy_seed.h **** #ifndef DSY_SEED_H
   3:./libDaisy/src/daisy_seed.h **** #define DSY_SEED_H
   4:./libDaisy/src/daisy_seed.h **** 
   5:./libDaisy/src/daisy_seed.h **** #include "daisy.h"
   6:./libDaisy/src/daisy_seed.h **** 
   7:./libDaisy/src/daisy_seed.h **** //Uncomment this out if you're still using the rev2 hardware
   8:./libDaisy/src/daisy_seed.h **** //#define SEED_REV2
   9:./libDaisy/src/daisy_seed.h **** 
  10:./libDaisy/src/daisy_seed.h **** namespace daisy
  11:./libDaisy/src/daisy_seed.h **** {
  12:./libDaisy/src/daisy_seed.h **** /**
  13:./libDaisy/src/daisy_seed.h ****    @brief This is the higher-level interface for the Daisy board. \n 
  14:./libDaisy/src/daisy_seed.h ****     All basic peripheral configuration/initialization is setup here. \n
  15:./libDaisy/src/daisy_seed.h **** 
  16:./libDaisy/src/daisy_seed.h ****    @ingroup boards
  17:./libDaisy/src/daisy_seed.h **** */
  18:./libDaisy/src/daisy_seed.h **** class DaisySeed
  19:./libDaisy/src/daisy_seed.h **** {
  20:./libDaisy/src/daisy_seed.h ****   public:
  21:./libDaisy/src/daisy_seed.h ****     DaisySeed() {}
  22:./libDaisy/src/daisy_seed.h ****     ~DaisySeed() {}
  60              		.loc 3 22 5 is_stmt 1 view -0
  61              		.cfi_startproc
  62              		@ args = 0, pretend = 0, frame = 0
  63              		@ frame_needed = 0, uses_anonymous_args = 0
  64              		@ link register save eliminated.
  65              	.LBB456:
  66              	.LBI456:
  67              		.file 4 "./libDaisy/src/sys/system.h"
   1:./libDaisy/src/sys/system.h **** #ifndef DSY_SYSTEM_H
   2:./libDaisy/src/sys/system.h **** #define DSY_SYSTEM_H
   3:./libDaisy/src/sys/system.h **** 
   4:./libDaisy/src/sys/system.h **** #ifndef UNIT_TEST // for unit tests, a dummy implementation is provided below
   5:./libDaisy/src/sys/system.h **** 
   6:./libDaisy/src/sys/system.h **** #include <cstdint>
   7:./libDaisy/src/sys/system.h **** #include "per/tim.h"
   8:./libDaisy/src/sys/system.h **** 
   9:./libDaisy/src/sys/system.h **** namespace daisy
  10:./libDaisy/src/sys/system.h **** {
  11:./libDaisy/src/sys/system.h **** /** A handle for interacting with the Core System.
  12:./libDaisy/src/sys/system.h ****  ** This includes the Clock tree, MPU, global DMA initialization,
  13:./libDaisy/src/sys/system.h ****  ** cache handling, and any other necessary global initiailzation
  14:./libDaisy/src/sys/system.h ****  **
  15:./libDaisy/src/sys/system.h ****  ** @author shensley
  16:./libDaisy/src/sys/system.h ****  ** @ingroup system
  17:./libDaisy/src/sys/system.h ****  */
  18:./libDaisy/src/sys/system.h **** class System
  19:./libDaisy/src/sys/system.h **** {
  20:./libDaisy/src/sys/system.h ****   public:
  21:./libDaisy/src/sys/system.h ****     /** Contains settings for initializing the System */
  22:./libDaisy/src/sys/system.h ****     struct Config
ARM GAS  /var/folders/s6/2bsynnl15rj0bwtb9pgx4dc00000gn/T//cc76hY55.s 			page 4


  23:./libDaisy/src/sys/system.h ****     {
  24:./libDaisy/src/sys/system.h ****         /** Specifies the system clock frequency that feeds APB/AHB clocks, etc. */
  25:./libDaisy/src/sys/system.h ****         enum class SysClkFreq
  26:./libDaisy/src/sys/system.h ****         {
  27:./libDaisy/src/sys/system.h ****             FREQ_400MHZ,
  28:./libDaisy/src/sys/system.h ****             FREQ_480MHZ,
  29:./libDaisy/src/sys/system.h ****         };
  30:./libDaisy/src/sys/system.h **** 
  31:./libDaisy/src/sys/system.h ****         /** Method to call on the struct to set to defaults
  32:./libDaisy/src/sys/system.h ****          ** CPU Freq set to 400MHz
  33:./libDaisy/src/sys/system.h ****          ** Cache Enabled
  34:./libDaisy/src/sys/system.h ****          ** */
  35:./libDaisy/src/sys/system.h ****         void Defaults()
  36:./libDaisy/src/sys/system.h ****         {
  37:./libDaisy/src/sys/system.h ****             cpu_freq    = SysClkFreq::FREQ_400MHZ;
  38:./libDaisy/src/sys/system.h ****             use_dcache  = true;
  39:./libDaisy/src/sys/system.h ****             use_icache  = true;
  40:./libDaisy/src/sys/system.h ****             skip_clocks = false;
  41:./libDaisy/src/sys/system.h ****         }
  42:./libDaisy/src/sys/system.h **** 
  43:./libDaisy/src/sys/system.h ****         /** Method to call on the struct to set to boost mode:
  44:./libDaisy/src/sys/system.h ****          ** CPU Freq set to 480MHz
  45:./libDaisy/src/sys/system.h ****          ** Cache Enabled
  46:./libDaisy/src/sys/system.h ****          ** */
  47:./libDaisy/src/sys/system.h ****         void Boost()
  48:./libDaisy/src/sys/system.h ****         {
  49:./libDaisy/src/sys/system.h ****             cpu_freq    = SysClkFreq::FREQ_480MHZ;
  50:./libDaisy/src/sys/system.h ****             use_dcache  = true;
  51:./libDaisy/src/sys/system.h ****             use_icache  = true;
  52:./libDaisy/src/sys/system.h ****             skip_clocks = false;
  53:./libDaisy/src/sys/system.h ****         }
  54:./libDaisy/src/sys/system.h **** 
  55:./libDaisy/src/sys/system.h ****         SysClkFreq cpu_freq;
  56:./libDaisy/src/sys/system.h ****         bool       use_dcache;
  57:./libDaisy/src/sys/system.h ****         bool       use_icache;
  58:./libDaisy/src/sys/system.h ****         bool       skip_clocks;
  59:./libDaisy/src/sys/system.h ****     };
  60:./libDaisy/src/sys/system.h **** 
  61:./libDaisy/src/sys/system.h ****     /** Describes the different regions of memory available to the Daisy */
  62:./libDaisy/src/sys/system.h ****     enum MemoryRegion
  63:./libDaisy/src/sys/system.h ****     {
  64:./libDaisy/src/sys/system.h ****         INTERNAL_FLASH = 0,
  65:./libDaisy/src/sys/system.h ****         ITCMRAM,
  66:./libDaisy/src/sys/system.h ****         DTCMRAM,
  67:./libDaisy/src/sys/system.h ****         SRAM_D1,
  68:./libDaisy/src/sys/system.h ****         SRAM_D2,
  69:./libDaisy/src/sys/system.h ****         SRAM_D3,
  70:./libDaisy/src/sys/system.h ****         SDRAM,
  71:./libDaisy/src/sys/system.h ****         QSPI,
  72:./libDaisy/src/sys/system.h ****         INVALID_ADDRESS,
  73:./libDaisy/src/sys/system.h ****     };
  74:./libDaisy/src/sys/system.h **** 
  75:./libDaisy/src/sys/system.h ****     /** Bootloader struct for controlling bootloading parameters */
  76:./libDaisy/src/sys/system.h ****     struct BootInfo
  77:./libDaisy/src/sys/system.h ****     {
  78:./libDaisy/src/sys/system.h ****         enum class Type : uint32_t
  79:./libDaisy/src/sys/system.h ****         {
ARM GAS  /var/folders/s6/2bsynnl15rj0bwtb9pgx4dc00000gn/T//cc76hY55.s 			page 5


  80:./libDaisy/src/sys/system.h ****             INVALID      = 0x00000000,
  81:./libDaisy/src/sys/system.h ****             JUMP         = 0xDEADBEEF,
  82:./libDaisy/src/sys/system.h ****             SKIP_TIMEOUT = 0x5AFEB007,
  83:./libDaisy/src/sys/system.h ****             INF_TIMEOUT  = 0xB0074EFA,
  84:./libDaisy/src/sys/system.h ****         } status;
  85:./libDaisy/src/sys/system.h ****         uint32_t data;
  86:./libDaisy/src/sys/system.h ****         enum class Version : uint32_t
  87:./libDaisy/src/sys/system.h ****         {
  88:./libDaisy/src/sys/system.h ****             LT_v6_0 = 0, // Less than v6.0
  89:./libDaisy/src/sys/system.h ****             NONE,        // No bootloader present
  90:./libDaisy/src/sys/system.h ****             v6_0,        // v6.0
  91:./libDaisy/src/sys/system.h ****             v6_1,        // v6.1 or greater
  92:./libDaisy/src/sys/system.h ****             LAST
  93:./libDaisy/src/sys/system.h ****         } version;
  94:./libDaisy/src/sys/system.h ****     };
  95:./libDaisy/src/sys/system.h **** 
  96:./libDaisy/src/sys/system.h ****     System() {}
  97:./libDaisy/src/sys/system.h ****     ~System() {}
  68              		.loc 4 97 5 view .LVU5
  69              		.loc 4 97 5 is_stmt 0 view .LVU6
  70              	.LBE456:
  71              	.LBB457:
  72              	.LBI457:
  73              		.file 5 "./libDaisy/src/hid/usb.h"
   1:./libDaisy/src/hid/usb.h **** #pragma once
   2:./libDaisy/src/hid/usb.h **** #ifndef DSY_HID_USB_H
   3:./libDaisy/src/hid/usb.h **** #define DSY_HID_USB_H
   4:./libDaisy/src/hid/usb.h **** #include <stdint.h>
   5:./libDaisy/src/hid/usb.h **** #include <stdlib.h>
   6:./libDaisy/src/hid/usb.h **** 
   7:./libDaisy/src/hid/usb.h **** namespace daisy
   8:./libDaisy/src/hid/usb.h **** /** @addtogroup human_interface
   9:./libDaisy/src/hid/usb.h ****     @{
  10:./libDaisy/src/hid/usb.h **** */
  11:./libDaisy/src/hid/usb.h **** 
  12:./libDaisy/src/hid/usb.h **** {
  13:./libDaisy/src/hid/usb.h **** /** 
  14:./libDaisy/src/hid/usb.h ****     @brief Interface for initializing and using the USB Peripherals on the daisy
  15:./libDaisy/src/hid/usb.h ****     @author Stephen Hensley
  16:./libDaisy/src/hid/usb.h ****     @date December 2019
  17:./libDaisy/src/hid/usb.h **** */
  18:./libDaisy/src/hid/usb.h **** class UsbHandle
  19:./libDaisy/src/hid/usb.h **** {
  20:./libDaisy/src/hid/usb.h ****   public:
  21:./libDaisy/src/hid/usb.h ****     /** Return values for USBHandle Functions */
  22:./libDaisy/src/hid/usb.h ****     enum class Result
  23:./libDaisy/src/hid/usb.h ****     {
  24:./libDaisy/src/hid/usb.h ****         OK,
  25:./libDaisy/src/hid/usb.h ****         ERR,
  26:./libDaisy/src/hid/usb.h ****     };
  27:./libDaisy/src/hid/usb.h **** 
  28:./libDaisy/src/hid/usb.h ****     /** Specified which of the two USB Peripherals to initialize. */
  29:./libDaisy/src/hid/usb.h ****     enum UsbPeriph
  30:./libDaisy/src/hid/usb.h ****     {
  31:./libDaisy/src/hid/usb.h ****         FS_INTERNAL, /**< Internal pin */
  32:./libDaisy/src/hid/usb.h ****         FS_EXTERNAL, /**< FS External D+ pin is Pin 38 (GPIO32). FS External D- pin is Pin 37 (GPIO
  33:./libDaisy/src/hid/usb.h ****         FS_BOTH,     /**< Both */
ARM GAS  /var/folders/s6/2bsynnl15rj0bwtb9pgx4dc00000gn/T//cc76hY55.s 			page 6


  34:./libDaisy/src/hid/usb.h ****     };
  35:./libDaisy/src/hid/usb.h **** 
  36:./libDaisy/src/hid/usb.h **** 
  37:./libDaisy/src/hid/usb.h ****     /** Function called upon reception of a buffer */
  38:./libDaisy/src/hid/usb.h ****     typedef void (*ReceiveCallback)(uint8_t* buff, uint32_t* len);
  39:./libDaisy/src/hid/usb.h **** 
  40:./libDaisy/src/hid/usb.h ****     UsbHandle() {}
  41:./libDaisy/src/hid/usb.h **** 
  42:./libDaisy/src/hid/usb.h ****     ~UsbHandle() {}
  74              		.loc 5 42 5 is_stmt 1 view .LVU7
  75              		.loc 5 42 5 is_stmt 0 view .LVU8
  76              	.LBE457:
  77              	.LBB458:
  78              	.LBI458:
  79              		.file 6 "./libDaisy/src/per/adc.h"
   1:./libDaisy/src/per/adc.h **** #pragma once
   2:./libDaisy/src/per/adc.h **** #ifndef DSY_ADC_H
   3:./libDaisy/src/per/adc.h **** #define DSY_ADC_H /**< Macro */
   4:./libDaisy/src/per/adc.h **** #include <stdint.h>
   5:./libDaisy/src/per/adc.h **** #include <stdlib.h>
   6:./libDaisy/src/per/adc.h **** #include "daisy_core.h"
   7:./libDaisy/src/per/adc.h **** #include "per/gpio.h"
   8:./libDaisy/src/per/adc.h **** 
   9:./libDaisy/src/per/adc.h **** #define DSY_ADC_MAX_CHANNELS 16 /**< Maximum number of ADC channels */
  10:./libDaisy/src/per/adc.h **** 
  11:./libDaisy/src/per/adc.h **** namespace daisy
  12:./libDaisy/src/per/adc.h **** {
  13:./libDaisy/src/per/adc.h **** /** @addtogroup per_analog
  14:./libDaisy/src/per/adc.h ****     @{
  15:./libDaisy/src/per/adc.h **** */
  16:./libDaisy/src/per/adc.h **** 
  17:./libDaisy/src/per/adc.h **** /* While there may not be many configuration options here,
  18:./libDaisy/src/per/adc.h **** using a struct like this allows us to add more configuration
  19:./libDaisy/src/per/adc.h **** later without breaking existing functionality.
  20:./libDaisy/src/per/adc.h **** */
  21:./libDaisy/src/per/adc.h **** 
  22:./libDaisy/src/per/adc.h **** /** @brief   Configuration Structure for an ADC Channel 
  23:./libDaisy/src/per/adc.h ****  *  @details This can be used to configure a a single input, 
  24:./libDaisy/src/per/adc.h ****  *           or a multiplexed input, allowing up to 8 inputs on 
  25:./libDaisy/src/per/adc.h ****  *           one channel.
  26:./libDaisy/src/per/adc.h ****  *  @note    Sharing data lines to multiple muxes _is_ possible, but
  27:./libDaisy/src/per/adc.h ****  *           each channel sharing data lines must be set to the maximum
  28:./libDaisy/src/per/adc.h ****  *           number of channels, even if some multiplexers have fewer
  29:./libDaisy/src/per/adc.h ****  *           inputs connected.
  30:./libDaisy/src/per/adc.h **** */
  31:./libDaisy/src/per/adc.h **** struct AdcChannelConfig
  32:./libDaisy/src/per/adc.h **** {
  33:./libDaisy/src/per/adc.h ****     /** Which pin to use for multiplexing */
  34:./libDaisy/src/per/adc.h ****     enum MuxPin
  35:./libDaisy/src/per/adc.h ****     {
  36:./libDaisy/src/per/adc.h ****         MUX_SEL_0,    /**< & */
  37:./libDaisy/src/per/adc.h ****         MUX_SEL_1,    /**< & */
  38:./libDaisy/src/per/adc.h ****         MUX_SEL_2,    /**< & */
  39:./libDaisy/src/per/adc.h ****         MUX_SEL_LAST, /**< & */
  40:./libDaisy/src/per/adc.h ****     };
  41:./libDaisy/src/per/adc.h **** 
  42:./libDaisy/src/per/adc.h ****     /** \brief per channel conversion speed added to fixed time based on bitdepth, etc. */
ARM GAS  /var/folders/s6/2bsynnl15rj0bwtb9pgx4dc00000gn/T//cc76hY55.s 			page 7


  43:./libDaisy/src/per/adc.h ****     enum ConversionSpeed
  44:./libDaisy/src/per/adc.h ****     {
  45:./libDaisy/src/per/adc.h ****         SPEED_1CYCLES_5,
  46:./libDaisy/src/per/adc.h ****         SPEED_2CYCLES_5,
  47:./libDaisy/src/per/adc.h ****         SPEED_8CYCLES_5,
  48:./libDaisy/src/per/adc.h ****         SPEED_16CYCLES_5,
  49:./libDaisy/src/per/adc.h ****         SPEED_32CYCLES_5,
  50:./libDaisy/src/per/adc.h ****         SPEED_64CYCLES_5,
  51:./libDaisy/src/per/adc.h ****         SPEED_387CYCLES_5,
  52:./libDaisy/src/per/adc.h ****         SPEED_810CYCLES_5,
  53:./libDaisy/src/per/adc.h ****     };
  54:./libDaisy/src/per/adc.h **** 
  55:./libDaisy/src/per/adc.h ****     /** Initializes a single ADC pin as an ADC. 
  56:./libDaisy/src/per/adc.h ****     \param pin Pin to init.
  57:./libDaisy/src/per/adc.h ****     \param speed conversion speed for this pin defaults to 8.5 cycles
  58:./libDaisy/src/per/adc.h ****      */
  59:./libDaisy/src/per/adc.h ****     void InitSingle(dsy_gpio_pin pin, ConversionSpeed speed = SPEED_8CYCLES_5);
  60:./libDaisy/src/per/adc.h **** 
  61:./libDaisy/src/per/adc.h ****     /** 
  62:./libDaisy/src/per/adc.h ****     Initializes a single ADC pin as a Multiplexed ADC.
  63:./libDaisy/src/per/adc.h ****     Requires a CD405X Multiplexer connected to the pin.
  64:./libDaisy/src/per/adc.h ****     You only need to supply the mux pins that are required,
  65:./libDaisy/src/per/adc.h ****     e.g. a 4052 mux would only require mux_0 and mux_1.
  66:./libDaisy/src/per/adc.h ****     Internal Callbacks handle the pin addressing.
  67:./libDaisy/src/per/adc.h ****     \param adc_pin &
  68:./libDaisy/src/per/adc.h ****     \param mux_channels must be 1-8
  69:./libDaisy/src/per/adc.h ****     \param mux_0 First mux pin
  70:./libDaisy/src/per/adc.h ****     \param mux_1 Second mux pin
  71:./libDaisy/src/per/adc.h ****     \param mux_2 Third mux pin
  72:./libDaisy/src/per/adc.h ****     \param speed conversion speed for this pin defaults to 8.5 cycles
  73:./libDaisy/src/per/adc.h ****     */
  74:./libDaisy/src/per/adc.h ****     void InitMux(dsy_gpio_pin    adc_pin,
  75:./libDaisy/src/per/adc.h ****                  size_t          mux_channels,
  76:./libDaisy/src/per/adc.h ****                  dsy_gpio_pin    mux_0,
  77:./libDaisy/src/per/adc.h ****                  dsy_gpio_pin    mux_1 = {DSY_GPIOX, 0},
  78:./libDaisy/src/per/adc.h ****                  dsy_gpio_pin    mux_2 = {DSY_GPIOX, 0},
  79:./libDaisy/src/per/adc.h ****                  ConversionSpeed speed = SPEED_8CYCLES_5);
  80:./libDaisy/src/per/adc.h **** 
  81:./libDaisy/src/per/adc.h ****     dsy_gpio        pin_;                   /**< & */
  82:./libDaisy/src/per/adc.h ****     dsy_gpio        mux_pin_[MUX_SEL_LAST]; /**< & */
  83:./libDaisy/src/per/adc.h ****     uint8_t         mux_channels_;          /**< & */
  84:./libDaisy/src/per/adc.h ****     ConversionSpeed speed_;
  85:./libDaisy/src/per/adc.h **** };
  86:./libDaisy/src/per/adc.h **** 
  87:./libDaisy/src/per/adc.h **** /**
  88:./libDaisy/src/per/adc.h ****    @brief Handler for analog to digital conversion
  89:./libDaisy/src/per/adc.h **** */
  90:./libDaisy/src/per/adc.h **** class AdcHandle
  91:./libDaisy/src/per/adc.h **** {
  92:./libDaisy/src/per/adc.h ****   public:
  93:./libDaisy/src/per/adc.h ****     /** Supported oversampling amounts */
  94:./libDaisy/src/per/adc.h ****     enum OverSampling
  95:./libDaisy/src/per/adc.h ****     {
  96:./libDaisy/src/per/adc.h ****         OVS_NONE, /**< & */
  97:./libDaisy/src/per/adc.h ****         OVS_4,    /**< & */
  98:./libDaisy/src/per/adc.h ****         OVS_8,    /**< & */
  99:./libDaisy/src/per/adc.h ****         OVS_16,   /**< & */
ARM GAS  /var/folders/s6/2bsynnl15rj0bwtb9pgx4dc00000gn/T//cc76hY55.s 			page 8


 100:./libDaisy/src/per/adc.h ****         OVS_32,   /**< & */
 101:./libDaisy/src/per/adc.h ****         OVS_64,   /**< & */
 102:./libDaisy/src/per/adc.h ****         OVS_128,  /**< & */
 103:./libDaisy/src/per/adc.h ****         OVS_256,  /**< & */
 104:./libDaisy/src/per/adc.h ****         OVS_512,  /**< & */
 105:./libDaisy/src/per/adc.h ****         OVS_1024, /**< & */
 106:./libDaisy/src/per/adc.h ****         OVS_LAST, /**< & */
 107:./libDaisy/src/per/adc.h ****     };
 108:./libDaisy/src/per/adc.h **** 
 109:./libDaisy/src/per/adc.h ****     AdcHandle() {}
 110:./libDaisy/src/per/adc.h ****     ~AdcHandle() {}
  80              		.loc 6 110 5 is_stmt 1 view .LVU9
  81              		.loc 6 110 5 is_stmt 0 view .LVU10
  82              	.LBE458:
  83              	.LBB459:
  84              	.LBI459:
  85              		.file 7 "./libDaisy/src/hid/audio.h"
   1:./libDaisy/src/hid/audio.h **** #ifndef DSY_AUDIO_H
   2:./libDaisy/src/hid/audio.h **** #define DSY_AUDIO_H /**< & */
   3:./libDaisy/src/hid/audio.h **** 
   4:./libDaisy/src/hid/audio.h **** #include "per/sai.h"
   5:./libDaisy/src/hid/audio.h **** 
   6:./libDaisy/src/hid/audio.h **** namespace daisy
   7:./libDaisy/src/hid/audio.h **** {
   8:./libDaisy/src/hid/audio.h **** /** @brief Audio Engine Handle
   9:./libDaisy/src/hid/audio.h ****  *  @ingroup audio 
  10:./libDaisy/src/hid/audio.h ****  *  @details This class allows for higher level access to an audio engine.
  11:./libDaisy/src/hid/audio.h ****  *           If you're using a SOM like the DaisySeed or DaisyPatchSM (or any 
  12:./libDaisy/src/hid/audio.h ****  *            board that includes one of those objects) then the intialization
  13:./libDaisy/src/hid/audio.h ****  *            is already taken  care of.
  14:./libDaisy/src/hid/audio.h ****  *           If you're setting up your own custom hardware, or need to make changes
  15:./libDaisy/src/hid/audio.h ****  *           you will have to take the following steps:
  16:./libDaisy/src/hid/audio.h ****  *             1. Create and Initialize an SaiHandle or two depending on your requirements
  17:./libDaisy/src/hid/audio.h ****  *             2. Initialize the Audio Handle with the desired settings and the Initialized SaiHand
  18:./libDaisy/src/hid/audio.h ****  *             3. If the connected codec requires special configuration or initialization, do so
  19:./libDaisy/src/hid/audio.h ****  *             4. Write a callback method using either the AudioCallback or the InterleavingAudioCa
  20:./libDaisy/src/hid/audio.h ****  *             5. Start the Audio using one of the StartAudio function
  21:./libDaisy/src/hid/audio.h ****  */
  22:./libDaisy/src/hid/audio.h **** class AudioHandle
  23:./libDaisy/src/hid/audio.h **** {
  24:./libDaisy/src/hid/audio.h ****   public:
  25:./libDaisy/src/hid/audio.h ****     /** Manually configurable details about the Audio Engine */
  26:./libDaisy/src/hid/audio.h ****     /** TODO: Figure out how to get samplerate in here. */
  27:./libDaisy/src/hid/audio.h ****     struct Config
  28:./libDaisy/src/hid/audio.h ****     {
  29:./libDaisy/src/hid/audio.h ****         /** number of samples to process per callback */
  30:./libDaisy/src/hid/audio.h ****         size_t blocksize;
  31:./libDaisy/src/hid/audio.h **** 
  32:./libDaisy/src/hid/audio.h ****         /**< Sample rate of audio */
  33:./libDaisy/src/hid/audio.h ****         SaiHandle::Config::SampleRate samplerate;
  34:./libDaisy/src/hid/audio.h **** 
  35:./libDaisy/src/hid/audio.h ****         /** factor for adjustment before and after callback for hardware that may have extra headro
  36:./libDaisy/src/hid/audio.h ****         float postgain;
  37:./libDaisy/src/hid/audio.h **** 
  38:./libDaisy/src/hid/audio.h ****         /** factor for additional one-sided compensation to audio path for hardware that may
  39:./libDaisy/src/hid/audio.h ****          *  have unequal input/output ranges
  40:./libDaisy/src/hid/audio.h ****          */
ARM GAS  /var/folders/s6/2bsynnl15rj0bwtb9pgx4dc00000gn/T//cc76hY55.s 			page 9


  41:./libDaisy/src/hid/audio.h ****         float output_compensation;
  42:./libDaisy/src/hid/audio.h **** 
  43:./libDaisy/src/hid/audio.h ****         /** Sets default values for config struct */
  44:./libDaisy/src/hid/audio.h ****         Config()
  45:./libDaisy/src/hid/audio.h ****         : blocksize(48),
  46:./libDaisy/src/hid/audio.h ****           samplerate(SaiHandle::Config::SampleRate::SAI_48KHZ),
  47:./libDaisy/src/hid/audio.h ****           postgain(1.f),
  48:./libDaisy/src/hid/audio.h ****           output_compensation(1.f)
  49:./libDaisy/src/hid/audio.h ****         {
  50:./libDaisy/src/hid/audio.h ****         }
  51:./libDaisy/src/hid/audio.h ****     };
  52:./libDaisy/src/hid/audio.h **** 
  53:./libDaisy/src/hid/audio.h ****     enum class Result
  54:./libDaisy/src/hid/audio.h ****     {
  55:./libDaisy/src/hid/audio.h ****         OK,
  56:./libDaisy/src/hid/audio.h ****         ERR,
  57:./libDaisy/src/hid/audio.h ****     };
  58:./libDaisy/src/hid/audio.h **** 
  59:./libDaisy/src/hid/audio.h ****     /** Non-Interleaving input buffer
  60:./libDaisy/src/hid/audio.h ****      * Buffer arranged by float[chn][sample] 
  61:./libDaisy/src/hid/audio.h ****      * const so that the user can't modify the input
  62:./libDaisy/src/hid/audio.h ****      */
  63:./libDaisy/src/hid/audio.h ****     typedef const float* const* InputBuffer;
  64:./libDaisy/src/hid/audio.h **** 
  65:./libDaisy/src/hid/audio.h ****     /** Non-Interleaving output buffer
  66:./libDaisy/src/hid/audio.h ****      * Arranged by float[chn][sample] 
  67:./libDaisy/src/hid/audio.h ****      */
  68:./libDaisy/src/hid/audio.h ****     typedef float** OutputBuffer;
  69:./libDaisy/src/hid/audio.h **** 
  70:./libDaisy/src/hid/audio.h ****     /** Type for a Non-Interleaving audio callback 
  71:./libDaisy/src/hid/audio.h ****      * Non-Interleaving audio callbacks in daisy will be of this type
  72:./libDaisy/src/hid/audio.h ****      */
  73:./libDaisy/src/hid/audio.h ****     typedef void (*AudioCallback)(InputBuffer  in,
  74:./libDaisy/src/hid/audio.h ****                                   OutputBuffer out,
  75:./libDaisy/src/hid/audio.h ****                                   size_t       size);
  76:./libDaisy/src/hid/audio.h **** 
  77:./libDaisy/src/hid/audio.h ****     /** Interleaving Input buffer
  78:./libDaisy/src/hid/audio.h ****      ** audio is prepared as { L0, R0, L1, R1, . . . LN, RN }]
  79:./libDaisy/src/hid/audio.h ****      ** this is const, as the user shouldn't modify it
  80:./libDaisy/src/hid/audio.h ****     */
  81:./libDaisy/src/hid/audio.h ****     typedef const float* InterleavingInputBuffer;
  82:./libDaisy/src/hid/audio.h **** 
  83:./libDaisy/src/hid/audio.h ****     /** Interleaving Output buffer 
  84:./libDaisy/src/hid/audio.h ****      ** audio is prepared as { L0, R0, L1, R1, . . . LN, RN }
  85:./libDaisy/src/hid/audio.h ****     */
  86:./libDaisy/src/hid/audio.h ****     typedef float* InterleavingOutputBuffer;
  87:./libDaisy/src/hid/audio.h **** 
  88:./libDaisy/src/hid/audio.h ****     /** Interleaving Audio Callback 
  89:./libDaisy/src/hid/audio.h ****      * Interleaving audio callbacks in daisy must be of this type
  90:./libDaisy/src/hid/audio.h ****      */
  91:./libDaisy/src/hid/audio.h ****     typedef void (*InterleavingAudioCallback)(InterleavingInputBuffer  in,
  92:./libDaisy/src/hid/audio.h ****                                               InterleavingOutputBuffer out,
  93:./libDaisy/src/hid/audio.h ****                                               size_t                   size);
  94:./libDaisy/src/hid/audio.h **** 
  95:./libDaisy/src/hid/audio.h ****     AudioHandle() : pimpl_(nullptr) {}
  96:./libDaisy/src/hid/audio.h ****     ~AudioHandle() {}
  86              		.loc 7 96 5 is_stmt 1 view .LVU11
ARM GAS  /var/folders/s6/2bsynnl15rj0bwtb9pgx4dc00000gn/T//cc76hY55.s 			page 10


  87              		.loc 7 96 5 is_stmt 0 view .LVU12
  88              	.LBE459:
  89              		.loc 3 22 19 view .LVU13
  90 0000 7047     		bx	lr
  91              		.cfi_endproc
  92              	.LFE2556:
  94              		.weak	_ZN5daisy9DaisySeedD1Ev
  95              		.thumb_set _ZN5daisy9DaisySeedD1Ev,_ZN5daisy9DaisySeedD2Ev
  96 0002 00BF     		.section	.text._Z13AudioCallbackPKPKfPPfj,"ax",%progbits
  97              		.align	1
  98              		.p2align 2,,3
  99              		.global	_Z13AudioCallbackPKPKfPPfj
 100              		.syntax unified
 101              		.thumb
 102              		.thumb_func
 104              	_Z13AudioCallbackPKPKfPPfj:
 105              	.LVL2:
 106              	.LFB5018:
 107              		.file 8 "TestTFT.cpp"
   1:TestTFT.cpp   **** //Main.cpp
   2:TestTFT.cpp   **** 
   3:TestTFT.cpp   **** 
   4:TestTFT.cpp   **** #include "daisy_seed.h"
   5:TestTFT.cpp   **** #include "GFX.h"
   6:TestTFT.cpp   **** #include "Vanilla20pt.h"
   7:TestTFT.cpp   **** #include "FreeSansBold24pt.h"
   8:TestTFT.cpp   **** #include "Pap.h"
   9:TestTFT.cpp   **** #include "Buttons.h"
  10:TestTFT.cpp   **** #include "Menu.h"
  11:TestTFT.cpp   **** #include "daisy.h"
  12:TestTFT.cpp   **** #include <stdio.h>
  13:TestTFT.cpp   **** #include "Spirits.h"
  14:TestTFT.cpp   **** 
  15:TestTFT.cpp   **** 
  16:TestTFT.cpp   **** #define DSY_SDRAM_BSS_FRAMEBUFF __attribute__((section(".sdram_bss_framebuff")))
  17:TestTFT.cpp   **** #define DSY_SDRAM_BSS_PAPMAP __attribute__((section(".sdram_bss_papmap")))
  18:TestTFT.cpp   **** #define MAIN_MENU_OPTIONS 4
  19:TestTFT.cpp   **** #define CHORD_SELECTION_OPTIONS 8  // For the 7 chords in C major
  20:TestTFT.cpp   **** #define SOUND_DESIGN_OPTIONS 5     // Oscillator, ADSR, LFO, Effects, Filter
  21:TestTFT.cpp   **** #define PERFORMANCE_SETTINGS_OPTIONS 3  // Example: Arpeggiator, Chord Strumming, Velocity
  22:TestTFT.cpp   **** #define GLOBAL_SETTINGS_OPTIONS 4  // Example: MIDI, Output, Screen, Save/Load
  23:TestTFT.cpp   **** using namespace daisy;
  24:TestTFT.cpp   **** 
  25:TestTFT.cpp   **** 
  26:TestTFT.cpp   **** Spirits spirits;
  27:TestTFT.cpp   **** Spirits sound2;
  28:TestTFT.cpp   **** Spirits option3Sound;
  29:TestTFT.cpp   **** 
  30:TestTFT.cpp   **** DaisySeed hw;
  31:TestTFT.cpp   **** int projectBPM = 120;
  32:TestTFT.cpp   **** 
  33:TestTFT.cpp   **** FIFO_Data DMA_BUFFER_MEM_SECTION __Fifo;
  34:TestTFT.cpp   **** RGB DSY_SDRAM_BSS_FRAMEBUFF __FrameBuff[TFT_WIDTH * TFT_HEIGHT];
  35:TestTFT.cpp   **** cGFX __Display;
  36:TestTFT.cpp   **** cFont FreeSans15(&FreeSans15pt7b);
  37:TestTFT.cpp   **** //cFont FreeSans30B(&FreeSansBold30pt7b);
  38:TestTFT.cpp   **** uint32_t lastTriggerTime = 0;
ARM GAS  /var/folders/s6/2bsynnl15rj0bwtb9pgx4dc00000gn/T//cc76hY55.s 			page 11


  39:TestTFT.cpp   **** 
  40:TestTFT.cpp   **** Encoder encoder;
  41:TestTFT.cpp   **** 
  42:TestTFT.cpp   **** void AudioCallback(AudioHandle::InputBuffer in, AudioHandle::OutputBuffer out, size_t size)
  43:TestTFT.cpp   **** {
 108              		.loc 8 43 1 is_stmt 1 view -0
 109              		.cfi_startproc
 110              		@ args = 0, pretend = 0, frame = 0
 111              		@ frame_needed = 0, uses_anonymous_args = 0
  44:TestTFT.cpp   ****     for (size_t i = 0; i < size; i++)
 112              		.loc 8 44 5 view .LVU15
 113              	.LBB460:
 114              		.loc 8 44 26 view .LVU16
 115 0000 32B3     		cbz	r2, .L12
 116              	.LBE460:
  43:TestTFT.cpp   ****     for (size_t i = 0; i < size; i++)
 117              		.loc 8 43 1 is_stmt 0 view .LVU17
 118 0002 70B5     		push	{r4, r5, r6, lr}
 119              		.cfi_def_cfa_offset 16
 120              		.cfi_offset 4, -16
 121              		.cfi_offset 5, -12
 122              		.cfi_offset 6, -8
 123              		.cfi_offset 14, -4
 124 0004 0D46     		mov	r5, r1
 125 0006 1646     		mov	r6, r2
 126              	.LBB464:
 127              		.loc 8 44 17 view .LVU18
 128 0008 0024     		movs	r4, #0
 129              	.LBE464:
  43:TestTFT.cpp   ****     for (size_t i = 0; i < size; i++)
 130              		.loc 8 43 1 view .LVU19
 131 000a 2DED028B 		vpush.64	{d8}
 132              		.cfi_def_cfa_offset 24
 133              		.cfi_offset 80, -24
 134              		.cfi_offset 81, -20
 135              	.LVL3:
 136              	.L6:
 137              	.LBB465:
 138              	.LBB461:
  45:TestTFT.cpp   ****     {
  46:TestTFT.cpp   ****         float spirit_out = spirits.Process();
 139              		.loc 8 46 9 is_stmt 1 discriminator 2 view .LVU20
 140              		.loc 8 46 43 is_stmt 0 discriminator 2 view .LVU21
 141 000e 1148     		ldr	r0, .L15
 142 0010 FFF7FEFF 		bl	_ZN7Spirits7ProcessEv
 143              	.LVL4:
  47:TestTFT.cpp   ****         float sound2_out = sound2.Process();
 144              		.loc 8 47 42 discriminator 2 view .LVU22
 145 0014 1048     		ldr	r0, .L15+4
  46:TestTFT.cpp   ****         float sound2_out = sound2.Process();
 146              		.loc 8 46 43 discriminator 2 view .LVU23
 147 0016 B0EE408A 		vmov.f32	s16, s0
 148              	.LVL5:
 149              		.loc 8 47 9 is_stmt 1 discriminator 2 view .LVU24
 150              		.loc 8 47 42 is_stmt 0 discriminator 2 view .LVU25
 151 001a FFF7FEFF 		bl	_ZN7Spirits7ProcessEv
 152              	.LVL6:
ARM GAS  /var/folders/s6/2bsynnl15rj0bwtb9pgx4dc00000gn/T//cc76hY55.s 			page 12


 153              		.loc 8 47 42 discriminator 2 view .LVU26
 154 001e F0EE408A 		vmov.f32	s17, s0
 155              	.LVL7:
  48:TestTFT.cpp   ****         float option3_out = option3Sound.Process();
 156              		.loc 8 48 9 is_stmt 1 discriminator 2 view .LVU27
 157              		.loc 8 48 49 is_stmt 0 discriminator 2 view .LVU28
 158 0022 0E48     		ldr	r0, .L15+8
 159 0024 FFF7FEFF 		bl	_ZN7Spirits7ProcessEv
 160              	.LVL8:
  49:TestTFT.cpp   ****         
  50:TestTFT.cpp   ****         // Mix the sounds or choose which one to output based on your requirements
  51:TestTFT.cpp   ****         float mixed_out = spirit_out + sound2_out + option3_out;  // Simple mixing, adjust as neede
 161              		.loc 8 51 9 is_stmt 1 discriminator 2 view .LVU29
  52:TestTFT.cpp   ****         
  53:TestTFT.cpp   ****         out[0][i] = mixed_out;
 162              		.loc 8 53 19 is_stmt 0 discriminator 2 view .LVU30
 163 0028 2868     		ldr	r0, [r5]
  54:TestTFT.cpp   ****         out[1][i] = mixed_out;
 164              		.loc 8 54 19 discriminator 2 view .LVU31
 165 002a 6B68     		ldr	r3, [r5, #4]
  51:TestTFT.cpp   ****         
 166              		.loc 8 51 38 discriminator 2 view .LVU32
 167 002c 38EE288A 		vadd.f32	s16, s16, s17
 168              	.LVL9:
  53:TestTFT.cpp   ****         out[1][i] = mixed_out;
 169              		.loc 8 53 19 discriminator 2 view .LVU33
 170 0030 00EB8400 		add	r0, r0, r4, lsl #2
 171              		.loc 8 54 19 discriminator 2 view .LVU34
 172 0034 03EB8403 		add	r3, r3, r4, lsl #2
 173              	.LBE461:
  44:TestTFT.cpp   ****     {
 174              		.loc 8 44 5 discriminator 2 view .LVU35
 175 0038 0134     		adds	r4, r4, #1
 176              	.LVL10:
 177              	.LBB462:
  51:TestTFT.cpp   ****         
 178              		.loc 8 51 15 discriminator 2 view .LVU36
 179 003a 38EE000A 		vadd.f32	s0, s16, s0
 180              	.LVL11:
  53:TestTFT.cpp   ****         out[1][i] = mixed_out;
 181              		.loc 8 53 9 is_stmt 1 discriminator 2 view .LVU37
 182              	.LBE462:
  44:TestTFT.cpp   ****     {
 183              		.loc 8 44 26 is_stmt 0 discriminator 2 view .LVU38
 184 003e A642     		cmp	r6, r4
 185              	.LBB463:
  53:TestTFT.cpp   ****         out[1][i] = mixed_out;
 186              		.loc 8 53 19 discriminator 2 view .LVU39
 187 0040 80ED000A 		vstr.32	s0, [r0]
 188              		.loc 8 54 9 is_stmt 1 discriminator 2 view .LVU40
 189              		.loc 8 54 19 is_stmt 0 discriminator 2 view .LVU41
 190 0044 83ED000A 		vstr.32	s0, [r3]
 191              	.LBE463:
  44:TestTFT.cpp   ****     {
 192              		.loc 8 44 5 is_stmt 1 discriminator 2 view .LVU42
 193              	.LVL12:
  44:TestTFT.cpp   ****     {
ARM GAS  /var/folders/s6/2bsynnl15rj0bwtb9pgx4dc00000gn/T//cc76hY55.s 			page 13


 194              		.loc 8 44 26 discriminator 2 view .LVU43
 195 0048 E1D1     		bne	.L6
 196              	.LBE465:
  55:TestTFT.cpp   ****     }
  56:TestTFT.cpp   **** }
 197              		.loc 8 56 1 is_stmt 0 view .LVU44
 198 004a BDEC028B 		vldm	sp!, {d8}
 199              		.cfi_restore 80
 200              		.cfi_restore 81
 201              		.cfi_def_cfa_offset 16
 202 004e 70BD     		pop	{r4, r5, r6, pc}
 203              	.LVL13:
 204              	.L12:
 205              		.cfi_def_cfa_offset 0
 206              		.cfi_restore 4
 207              		.cfi_restore 5
 208              		.cfi_restore 6
 209              		.cfi_restore 14
 210              		.loc 8 56 1 view .LVU45
 211 0050 7047     		bx	lr
 212              	.L16:
 213 0052 00BF     		.align	2
 214              	.L15:
 215 0054 00000000 		.word	.LANCHOR0
 216 0058 00000000 		.word	.LANCHOR1
 217 005c 00000000 		.word	.LANCHOR2
 218              		.cfi_endproc
 219              	.LFE5018:
 221              		.section	.text._ZN7SpiritsD2Ev,"axG",%progbits,_ZN7SpiritsD5Ev,comdat
 222              		.align	1
 223              		.p2align 2,,3
 224              		.weak	_ZN7SpiritsD2Ev
 225              		.syntax unified
 226              		.thumb
 227              		.thumb_func
 229              	_ZN7SpiritsD2Ev:
 230              	.LVL14:
 231              	.LFB5665:
 232              		.file 9 "Spirits.h"
   1:Spirits.h     **** #pragma once
   2:Spirits.h     **** #include "Sound.h"
   3:Spirits.h     **** #include <array>
   4:Spirits.h     **** 
   5:Spirits.h     **** class Spirits : public Sound {
 233              		.loc 9 5 7 is_stmt 1 view -0
 234              		.cfi_startproc
 235              		@ args = 0, pretend = 0, frame = 0
 236              		@ frame_needed = 0, uses_anonymous_args = 0
 237              	.LBB466:
 238              		.loc 9 5 7 is_stmt 0 view .LVU47
 239 0000 034B     		ldr	r3, .L19
 240              	.LBE466:
 241 0002 10B5     		push	{r4, lr}
 242              		.cfi_def_cfa_offset 8
 243              		.cfi_offset 4, -8
 244              		.cfi_offset 14, -4
 245              		.loc 9 5 7 view .LVU48
ARM GAS  /var/folders/s6/2bsynnl15rj0bwtb9pgx4dc00000gn/T//cc76hY55.s 			page 14


 246 0004 0446     		mov	r4, r0
 247              	.LBB469:
 248 0006 0360     		str	r3, [r0]
 249              	.LVL15:
 250              	.LBB467:
 251              	.LBI467:
 252              		.file 10 "./DaisySP/Source/Control/adenv.h"
   1:./DaisySP/Source/Control/adenv.h **** /*
   2:./DaisySP/Source/Control/adenv.h **** Copyright (c) 2020 Electrosmith, Corp
   3:./DaisySP/Source/Control/adenv.h **** 
   4:./DaisySP/Source/Control/adenv.h **** Use of this source code is governed by an MIT-style
   5:./DaisySP/Source/Control/adenv.h **** license that can be found in the LICENSE file or at
   6:./DaisySP/Source/Control/adenv.h **** https://opensource.org/licenses/MIT.
   7:./DaisySP/Source/Control/adenv.h **** */
   8:./DaisySP/Source/Control/adenv.h **** 
   9:./DaisySP/Source/Control/adenv.h **** #pragma once
  10:./DaisySP/Source/Control/adenv.h **** #ifndef ADENV_H
  11:./DaisySP/Source/Control/adenv.h **** #define ADENV_H
  12:./DaisySP/Source/Control/adenv.h **** #include <stdint.h>
  13:./DaisySP/Source/Control/adenv.h **** #ifdef __cplusplus
  14:./DaisySP/Source/Control/adenv.h **** 
  15:./DaisySP/Source/Control/adenv.h **** namespace daisysp
  16:./DaisySP/Source/Control/adenv.h **** {
  17:./DaisySP/Source/Control/adenv.h **** /** Distinct stages that the phase of the envelope can be located in.
  18:./DaisySP/Source/Control/adenv.h ****     @see AdEnv
  19:./DaisySP/Source/Control/adenv.h **** */
  20:./DaisySP/Source/Control/adenv.h **** enum AdEnvSegment
  21:./DaisySP/Source/Control/adenv.h **** {
  22:./DaisySP/Source/Control/adenv.h ****     /** located at phase location 0, and not currently running */
  23:./DaisySP/Source/Control/adenv.h ****     ADENV_SEG_IDLE,
  24:./DaisySP/Source/Control/adenv.h ****     /** First segment of envelope where phase moves from MIN value to MAX value */
  25:./DaisySP/Source/Control/adenv.h ****     ADENV_SEG_ATTACK,
  26:./DaisySP/Source/Control/adenv.h ****     /** Second segment of envelope where phase moves from MAX to MIN value */
  27:./DaisySP/Source/Control/adenv.h ****     ADENV_SEG_DECAY,
  28:./DaisySP/Source/Control/adenv.h ****     /** The final segment of the envelope (currently decay) */
  29:./DaisySP/Source/Control/adenv.h ****     ADENV_SEG_LAST,
  30:./DaisySP/Source/Control/adenv.h **** };
  31:./DaisySP/Source/Control/adenv.h **** 
  32:./DaisySP/Source/Control/adenv.h **** /** Trigger-able envelope with adjustable min/max, and independent per-segment time control.
  33:./DaisySP/Source/Control/adenv.h **** 
  34:./DaisySP/Source/Control/adenv.h ****     \author shensley
  35:./DaisySP/Source/Control/adenv.h ****     \todo - Add Cycling
  36:./DaisySP/Source/Control/adenv.h ****     \todo - Implement Curve (its only linear for now).
  37:./DaisySP/Source/Control/adenv.h ****     \todo - Maybe make this an ADsr_ that has AD/AR/Asr_ modes.
  38:./DaisySP/Source/Control/adenv.h ****  */
  39:./DaisySP/Source/Control/adenv.h **** class AdEnv
  40:./DaisySP/Source/Control/adenv.h **** {
  41:./DaisySP/Source/Control/adenv.h ****   public:
  42:./DaisySP/Source/Control/adenv.h ****     AdEnv() {}
  43:./DaisySP/Source/Control/adenv.h ****     ~AdEnv() {}
 253              		.loc 10 43 5 is_stmt 1 view .LVU49
 254              		.loc 10 43 5 is_stmt 0 view .LVU50
 255              	.LBE467:
 256              	.LBB468:
 257              	.LBI468:
 258              		.file 11 "/Library/DaisyToolchain/0.2.0/arm/arm-none-eabi/include/c++/10.3.1/array"
   1:/Library/DaisyToolchain/0.2.0/arm/arm-none-eabi/include/c++/10.3.1/array **** // <array> -*- C++ -*-
ARM GAS  /var/folders/s6/2bsynnl15rj0bwtb9pgx4dc00000gn/T//cc76hY55.s 			page 15


   2:/Library/DaisyToolchain/0.2.0/arm/arm-none-eabi/include/c++/10.3.1/array **** 
   3:/Library/DaisyToolchain/0.2.0/arm/arm-none-eabi/include/c++/10.3.1/array **** // Copyright (C) 2007-2020 Free Software Foundation, Inc.
   4:/Library/DaisyToolchain/0.2.0/arm/arm-none-eabi/include/c++/10.3.1/array **** //
   5:/Library/DaisyToolchain/0.2.0/arm/arm-none-eabi/include/c++/10.3.1/array **** // This file is part of the GNU ISO C++ Library.  This library is free
   6:/Library/DaisyToolchain/0.2.0/arm/arm-none-eabi/include/c++/10.3.1/array **** // software; you can redistribute it and/or modify it under the
   7:/Library/DaisyToolchain/0.2.0/arm/arm-none-eabi/include/c++/10.3.1/array **** // terms of the GNU General Public License as published by the
   8:/Library/DaisyToolchain/0.2.0/arm/arm-none-eabi/include/c++/10.3.1/array **** // Free Software Foundation; either version 3, or (at your option)
   9:/Library/DaisyToolchain/0.2.0/arm/arm-none-eabi/include/c++/10.3.1/array **** // any later version.
  10:/Library/DaisyToolchain/0.2.0/arm/arm-none-eabi/include/c++/10.3.1/array **** 
  11:/Library/DaisyToolchain/0.2.0/arm/arm-none-eabi/include/c++/10.3.1/array **** // This library is distributed in the hope that it will be useful,
  12:/Library/DaisyToolchain/0.2.0/arm/arm-none-eabi/include/c++/10.3.1/array **** // but WITHOUT ANY WARRANTY; without even the implied warranty of
  13:/Library/DaisyToolchain/0.2.0/arm/arm-none-eabi/include/c++/10.3.1/array **** // MERCHANTABILITY or FITNESS FOR A PARTICULAR PURPOSE.  See the
  14:/Library/DaisyToolchain/0.2.0/arm/arm-none-eabi/include/c++/10.3.1/array **** // GNU General Public License for more details.
  15:/Library/DaisyToolchain/0.2.0/arm/arm-none-eabi/include/c++/10.3.1/array **** 
  16:/Library/DaisyToolchain/0.2.0/arm/arm-none-eabi/include/c++/10.3.1/array **** // Under Section 7 of GPL version 3, you are granted additional
  17:/Library/DaisyToolchain/0.2.0/arm/arm-none-eabi/include/c++/10.3.1/array **** // permissions described in the GCC Runtime Library Exception, version
  18:/Library/DaisyToolchain/0.2.0/arm/arm-none-eabi/include/c++/10.3.1/array **** // 3.1, as published by the Free Software Foundation.
  19:/Library/DaisyToolchain/0.2.0/arm/arm-none-eabi/include/c++/10.3.1/array **** 
  20:/Library/DaisyToolchain/0.2.0/arm/arm-none-eabi/include/c++/10.3.1/array **** // You should have received a copy of the GNU General Public License and
  21:/Library/DaisyToolchain/0.2.0/arm/arm-none-eabi/include/c++/10.3.1/array **** // a copy of the GCC Runtime Library Exception along with this program;
  22:/Library/DaisyToolchain/0.2.0/arm/arm-none-eabi/include/c++/10.3.1/array **** // see the files COPYING3 and COPYING.RUNTIME respectively.  If not, see
  23:/Library/DaisyToolchain/0.2.0/arm/arm-none-eabi/include/c++/10.3.1/array **** // <http://www.gnu.org/licenses/>.
  24:/Library/DaisyToolchain/0.2.0/arm/arm-none-eabi/include/c++/10.3.1/array **** 
  25:/Library/DaisyToolchain/0.2.0/arm/arm-none-eabi/include/c++/10.3.1/array **** /** @file include/array
  26:/Library/DaisyToolchain/0.2.0/arm/arm-none-eabi/include/c++/10.3.1/array ****  *  This is a Standard C++ Library header.
  27:/Library/DaisyToolchain/0.2.0/arm/arm-none-eabi/include/c++/10.3.1/array ****  */
  28:/Library/DaisyToolchain/0.2.0/arm/arm-none-eabi/include/c++/10.3.1/array **** 
  29:/Library/DaisyToolchain/0.2.0/arm/arm-none-eabi/include/c++/10.3.1/array **** #ifndef _GLIBCXX_ARRAY
  30:/Library/DaisyToolchain/0.2.0/arm/arm-none-eabi/include/c++/10.3.1/array **** #define _GLIBCXX_ARRAY 1
  31:/Library/DaisyToolchain/0.2.0/arm/arm-none-eabi/include/c++/10.3.1/array **** 
  32:/Library/DaisyToolchain/0.2.0/arm/arm-none-eabi/include/c++/10.3.1/array **** #pragma GCC system_header
  33:/Library/DaisyToolchain/0.2.0/arm/arm-none-eabi/include/c++/10.3.1/array **** 
  34:/Library/DaisyToolchain/0.2.0/arm/arm-none-eabi/include/c++/10.3.1/array **** #if __cplusplus < 201103L
  35:/Library/DaisyToolchain/0.2.0/arm/arm-none-eabi/include/c++/10.3.1/array **** # include <bits/c++0x_warning.h>
  36:/Library/DaisyToolchain/0.2.0/arm/arm-none-eabi/include/c++/10.3.1/array **** #else
  37:/Library/DaisyToolchain/0.2.0/arm/arm-none-eabi/include/c++/10.3.1/array **** 
  38:/Library/DaisyToolchain/0.2.0/arm/arm-none-eabi/include/c++/10.3.1/array **** #include <utility>
  39:/Library/DaisyToolchain/0.2.0/arm/arm-none-eabi/include/c++/10.3.1/array **** #include <bits/functexcept.h>
  40:/Library/DaisyToolchain/0.2.0/arm/arm-none-eabi/include/c++/10.3.1/array **** #include <bits/stl_algobase.h>
  41:/Library/DaisyToolchain/0.2.0/arm/arm-none-eabi/include/c++/10.3.1/array **** #include <bits/range_access.h>
  42:/Library/DaisyToolchain/0.2.0/arm/arm-none-eabi/include/c++/10.3.1/array **** 
  43:/Library/DaisyToolchain/0.2.0/arm/arm-none-eabi/include/c++/10.3.1/array **** namespace std _GLIBCXX_VISIBILITY(default)
  44:/Library/DaisyToolchain/0.2.0/arm/arm-none-eabi/include/c++/10.3.1/array **** {
  45:/Library/DaisyToolchain/0.2.0/arm/arm-none-eabi/include/c++/10.3.1/array **** _GLIBCXX_BEGIN_NAMESPACE_CONTAINER
  46:/Library/DaisyToolchain/0.2.0/arm/arm-none-eabi/include/c++/10.3.1/array **** 
  47:/Library/DaisyToolchain/0.2.0/arm/arm-none-eabi/include/c++/10.3.1/array ****   template<typename _Tp, std::size_t _Nm>
  48:/Library/DaisyToolchain/0.2.0/arm/arm-none-eabi/include/c++/10.3.1/array ****     struct __array_traits
  49:/Library/DaisyToolchain/0.2.0/arm/arm-none-eabi/include/c++/10.3.1/array ****     {
  50:/Library/DaisyToolchain/0.2.0/arm/arm-none-eabi/include/c++/10.3.1/array ****       typedef _Tp _Type[_Nm];
  51:/Library/DaisyToolchain/0.2.0/arm/arm-none-eabi/include/c++/10.3.1/array ****       typedef __is_swappable<_Tp> _Is_swappable;
  52:/Library/DaisyToolchain/0.2.0/arm/arm-none-eabi/include/c++/10.3.1/array ****       typedef __is_nothrow_swappable<_Tp> _Is_nothrow_swappable;
  53:/Library/DaisyToolchain/0.2.0/arm/arm-none-eabi/include/c++/10.3.1/array **** 
  54:/Library/DaisyToolchain/0.2.0/arm/arm-none-eabi/include/c++/10.3.1/array ****       static constexpr _Tp&
  55:/Library/DaisyToolchain/0.2.0/arm/arm-none-eabi/include/c++/10.3.1/array ****       _S_ref(const _Type& __t, std::size_t __n) noexcept
  56:/Library/DaisyToolchain/0.2.0/arm/arm-none-eabi/include/c++/10.3.1/array ****       { return const_cast<_Tp&>(__t[__n]); }
  57:/Library/DaisyToolchain/0.2.0/arm/arm-none-eabi/include/c++/10.3.1/array **** 
  58:/Library/DaisyToolchain/0.2.0/arm/arm-none-eabi/include/c++/10.3.1/array ****       static constexpr _Tp*
ARM GAS  /var/folders/s6/2bsynnl15rj0bwtb9pgx4dc00000gn/T//cc76hY55.s 			page 16


  59:/Library/DaisyToolchain/0.2.0/arm/arm-none-eabi/include/c++/10.3.1/array ****       _S_ptr(const _Type& __t) noexcept
  60:/Library/DaisyToolchain/0.2.0/arm/arm-none-eabi/include/c++/10.3.1/array ****       { return const_cast<_Tp*>(__t); }
  61:/Library/DaisyToolchain/0.2.0/arm/arm-none-eabi/include/c++/10.3.1/array ****     };
  62:/Library/DaisyToolchain/0.2.0/arm/arm-none-eabi/include/c++/10.3.1/array **** 
  63:/Library/DaisyToolchain/0.2.0/arm/arm-none-eabi/include/c++/10.3.1/array ****  template<typename _Tp>
  64:/Library/DaisyToolchain/0.2.0/arm/arm-none-eabi/include/c++/10.3.1/array ****    struct __array_traits<_Tp, 0>
  65:/Library/DaisyToolchain/0.2.0/arm/arm-none-eabi/include/c++/10.3.1/array ****    {
  66:/Library/DaisyToolchain/0.2.0/arm/arm-none-eabi/include/c++/10.3.1/array ****      struct _Type { };
  67:/Library/DaisyToolchain/0.2.0/arm/arm-none-eabi/include/c++/10.3.1/array ****      typedef true_type _Is_swappable;
  68:/Library/DaisyToolchain/0.2.0/arm/arm-none-eabi/include/c++/10.3.1/array ****      typedef true_type _Is_nothrow_swappable;
  69:/Library/DaisyToolchain/0.2.0/arm/arm-none-eabi/include/c++/10.3.1/array **** 
  70:/Library/DaisyToolchain/0.2.0/arm/arm-none-eabi/include/c++/10.3.1/array ****      static constexpr _Tp&
  71:/Library/DaisyToolchain/0.2.0/arm/arm-none-eabi/include/c++/10.3.1/array ****      _S_ref(const _Type&, std::size_t) noexcept
  72:/Library/DaisyToolchain/0.2.0/arm/arm-none-eabi/include/c++/10.3.1/array ****      { return *static_cast<_Tp*>(nullptr); }
  73:/Library/DaisyToolchain/0.2.0/arm/arm-none-eabi/include/c++/10.3.1/array **** 
  74:/Library/DaisyToolchain/0.2.0/arm/arm-none-eabi/include/c++/10.3.1/array ****      static constexpr _Tp*
  75:/Library/DaisyToolchain/0.2.0/arm/arm-none-eabi/include/c++/10.3.1/array ****      _S_ptr(const _Type&) noexcept
  76:/Library/DaisyToolchain/0.2.0/arm/arm-none-eabi/include/c++/10.3.1/array ****      { return nullptr; }
  77:/Library/DaisyToolchain/0.2.0/arm/arm-none-eabi/include/c++/10.3.1/array ****    };
  78:/Library/DaisyToolchain/0.2.0/arm/arm-none-eabi/include/c++/10.3.1/array **** 
  79:/Library/DaisyToolchain/0.2.0/arm/arm-none-eabi/include/c++/10.3.1/array ****   /**
  80:/Library/DaisyToolchain/0.2.0/arm/arm-none-eabi/include/c++/10.3.1/array ****    *  @brief A standard container for storing a fixed size sequence of elements.
  81:/Library/DaisyToolchain/0.2.0/arm/arm-none-eabi/include/c++/10.3.1/array ****    *
  82:/Library/DaisyToolchain/0.2.0/arm/arm-none-eabi/include/c++/10.3.1/array ****    *  @ingroup sequences
  83:/Library/DaisyToolchain/0.2.0/arm/arm-none-eabi/include/c++/10.3.1/array ****    *
  84:/Library/DaisyToolchain/0.2.0/arm/arm-none-eabi/include/c++/10.3.1/array ****    *  Meets the requirements of a <a href="tables.html#65">container</a>, a
  85:/Library/DaisyToolchain/0.2.0/arm/arm-none-eabi/include/c++/10.3.1/array ****    *  <a href="tables.html#66">reversible container</a>, and a
  86:/Library/DaisyToolchain/0.2.0/arm/arm-none-eabi/include/c++/10.3.1/array ****    *  <a href="tables.html#67">sequence</a>.
  87:/Library/DaisyToolchain/0.2.0/arm/arm-none-eabi/include/c++/10.3.1/array ****    *
  88:/Library/DaisyToolchain/0.2.0/arm/arm-none-eabi/include/c++/10.3.1/array ****    *  Sets support random access iterators.
  89:/Library/DaisyToolchain/0.2.0/arm/arm-none-eabi/include/c++/10.3.1/array ****    *
  90:/Library/DaisyToolchain/0.2.0/arm/arm-none-eabi/include/c++/10.3.1/array ****    *  @tparam  Tp  Type of element. Required to be a complete type.
  91:/Library/DaisyToolchain/0.2.0/arm/arm-none-eabi/include/c++/10.3.1/array ****    *  @tparam  Nm  Number of elements.
  92:/Library/DaisyToolchain/0.2.0/arm/arm-none-eabi/include/c++/10.3.1/array ****   */
  93:/Library/DaisyToolchain/0.2.0/arm/arm-none-eabi/include/c++/10.3.1/array ****   template<typename _Tp, std::size_t _Nm>
  94:/Library/DaisyToolchain/0.2.0/arm/arm-none-eabi/include/c++/10.3.1/array ****     struct array
 259              		.loc 11 94 12 is_stmt 1 view .LVU51
 260              		.loc 11 94 12 is_stmt 0 view .LVU52
 261              	.LBE468:
 262              		.loc 9 5 7 view .LVU53
 263 0008 FFF7FEFF 		bl	_ZN5SoundD2Ev
 264              	.LVL16:
 265              		.loc 9 5 7 view .LVU54
 266              	.LBE469:
 267 000c 2046     		mov	r0, r4
 268 000e 10BD     		pop	{r4, pc}
 269              	.LVL17:
 270              	.L20:
 271              		.loc 9 5 7 view .LVU55
 272              		.align	2
 273              	.L19:
 274 0010 08000000 		.word	_ZTV7Spirits+8
 275              		.cfi_endproc
 276              	.LFE5665:
 278              		.weak	_ZN7SpiritsD1Ev
 279              		.thumb_set _ZN7SpiritsD1Ev,_ZN7SpiritsD2Ev
 280              		.section	.text._Z11InitEncoderv,"ax",%progbits
ARM GAS  /var/folders/s6/2bsynnl15rj0bwtb9pgx4dc00000gn/T//cc76hY55.s 			page 17


 281              		.align	1
 282              		.p2align 2,,3
 283              		.global	_Z11InitEncoderv
 284              		.syntax unified
 285              		.thumb
 286              		.thumb_func
 288              	_Z11InitEncoderv:
 289              	.LFB5019:
  57:TestTFT.cpp   **** 
  58:TestTFT.cpp   **** 
  59:TestTFT.cpp   **** 
  60:TestTFT.cpp   **** void InitEncoder()
  61:TestTFT.cpp   **** {
 290              		.loc 8 61 1 is_stmt 1 view -0
 291              		.cfi_startproc
 292              		@ args = 0, pretend = 0, frame = 16
 293              		@ frame_needed = 0, uses_anonymous_args = 0
 294              		@ link register save eliminated.
  62:TestTFT.cpp   ****     encoder.Init(seed::D15, seed::D16, seed::D17);
 295              		.loc 8 62 5 view .LVU57
  61:TestTFT.cpp   ****     encoder.Init(seed::D15, seed::D16, seed::D17);
 296              		.loc 8 61 1 is_stmt 0 view .LVU58
 297 0000 84B0     		sub	sp, sp, #16
 298              		.cfi_def_cfa_offset 16
 299              		.loc 8 62 17 view .LVU59
 300 0002 0022     		movs	r2, #0
 301 0004 0220     		movs	r0, #2
 302 0006 0123     		movs	r3, #1
 303 0008 0321     		movs	r1, #3
 304 000a 8DF80520 		strb	r2, [sp, #5]
 305 000e 8DF80400 		strb	r0, [sp, #4]
 306 0012 8DF80910 		strb	r1, [sp, #9]
 307 0016 8DF80820 		strb	r2, [sp, #8]
 308 001a 8DF80C30 		strb	r3, [sp, #12]
 309 001e 8DF80D30 		strb	r3, [sp, #13]
 310 0022 9FED040A 		vldr.32	s0, .L23
 311 0026 0199     		ldr	r1, [sp, #4]
 312 0028 0348     		ldr	r0, .L23+4
 313 002a DDE90223 		ldrd	r2, r3, [sp, #8]
  63:TestTFT.cpp   **** }
 314              		.loc 8 63 1 view .LVU60
 315 002e 04B0     		add	sp, sp, #16
 316              		.cfi_def_cfa_offset 0
 317              		@ sp needed
  62:TestTFT.cpp   ****     encoder.Init(seed::D15, seed::D16, seed::D17);
 318              		.loc 8 62 17 view .LVU61
 319 0030 FFF7FEBF 		b	_ZN5daisy7Encoder4InitE12dsy_gpio_pinS1_S1_f
 320              	.LVL18:
 321              	.L24:
 322              		.align	2
 323              	.L23:
 324 0034 00000000 		.word	0
 325 0038 00000000 		.word	.LANCHOR3
 326              		.cfi_endproc
 327              	.LFE5019:
 329              		.section	.rodata._Z12InitHardwarev.str1.4,"aMS",%progbits,1
 330              		.align	2
ARM GAS  /var/folders/s6/2bsynnl15rj0bwtb9pgx4dc00000gn/T//cc76hY55.s 			page 18


 331              	.LC1:
 332 0000 48617264 		.ascii	"Hardware initialized\000"
 332      77617265 
 332      20696E69 
 332      7469616C 
 332      697A6564 
 333              		.section	.text._Z12InitHardwarev,"ax",%progbits
 334              		.align	1
 335              		.p2align 2,,3
 336              		.global	_Z12InitHardwarev
 337              		.syntax unified
 338              		.thumb
 339              		.thumb_func
 341              	_Z12InitHardwarev:
 342              	.LFB5020:
  64:TestTFT.cpp   **** 
  65:TestTFT.cpp   **** void InitHardware()
  66:TestTFT.cpp   **** {
 343              		.loc 8 66 1 is_stmt 1 view -0
 344              		.cfi_startproc
 345              		@ args = 0, pretend = 0, frame = 16
 346              		@ frame_needed = 0, uses_anonymous_args = 0
  67:TestTFT.cpp   ****     hw.Configure();
 347              		.loc 8 67 5 view .LVU63
  66:TestTFT.cpp   ****     hw.Configure();
 348              		.loc 8 66 1 is_stmt 0 view .LVU64
 349 0000 30B5     		push	{r4, r5, lr}
 350              		.cfi_def_cfa_offset 12
 351              		.cfi_offset 4, -12
 352              		.cfi_offset 5, -8
 353              		.cfi_offset 14, -4
 354              		.loc 8 67 17 view .LVU65
 355 0002 314C     		ldr	r4, .L27
 356              	.LBB478:
 357              	.LBB479:
 358              		.file 12 "GFX.h"
   1:GFX.h         **** //------------------------------------------------------------------------
   2:GFX.h         **** // Copyright(c) 2024 Dad Design.
   3:GFX.h         **** //      Bibliothque graphique
   4:GFX.h         **** //
   5:GFX.h         **** // Inspir largement de :
   6:GFX.h         **** //    Adafruit-GFX-Library : https://github.com/adafruit/Adafruit-GFX-Library
   7:GFX.h         **** //    eSPI : https://github.com/Bodmer/TFT_eSPI
   8:GFX.h         **** //------------------------------------------------------------------------
   9:GFX.h         **** #pragma once
  10:GFX.h         **** #include "Frame.h"
  11:GFX.h         **** #define PROGMEM
  12:GFX.h         **** 
  13:GFX.h         **** constexpr float __PI = 3.14159265358979;
  14:GFX.h         **** 
  15:GFX.h         **** //***********************************************************************************
  16:GFX.h         **** // CFont
  17:GFX.h         **** // Gestion des polices de caratres
  18:GFX.h         **** // Utilisation de la structuration des fonts de Adafruit-GFX-Library
  19:GFX.h         **** // Ce qui permet de profiter des outils de conversion (ex: https://rop.nl/truetype2gfx/)
  20:GFX.h         **** 
  21:GFX.h         **** // Table ds descripteurs de caratres
ARM GAS  /var/folders/s6/2bsynnl15rj0bwtb9pgx4dc00000gn/T//cc76hY55.s 			page 19


  22:GFX.h         **** typedef struct
  23:GFX.h         **** {
  24:GFX.h         ****     uint16_t bitmapOffset; ///< Pointer into GFXfont->bitmap
  25:GFX.h         ****     uint8_t width;         ///< Bitmap dimensions in pixels
  26:GFX.h         ****     uint8_t height;        ///< Bitmap dimensions in pixels
  27:GFX.h         ****     uint8_t xAdvance;      ///< Distance to advance cursor (x axis)
  28:GFX.h         ****     int8_t xOffset;        ///< X dist from cursor pos to UL corner
  29:GFX.h         ****     int8_t yOffset;         ///< Y dist from cursor pos to UL corner
  30:GFX.h         **** } GFXglyph;
  31:GFX.h         **** 
  32:GFX.h         **** // Descripteur de la Font
  33:GFX.h         **** typedef struct
  34:GFX.h         **** {
  35:GFX.h         ****     uint8_t *bitmap;  ///< Glyph bitmaps, concatenated
  36:GFX.h         ****     GFXglyph *glyph;  ///< Glyph array
  37:GFX.h         ****     uint16_t first;   ///< ASCII extents (first char)
  38:GFX.h         ****     uint16_t last;    ///< ASCII extents (last char)
  39:GFX.h         ****     uint8_t yAdvance; ///< Newline distance (y axis)
  40:GFX.h         **** } GFXfont;
  41:GFX.h         **** 
  42:GFX.h         **** // cFont
  43:GFX.h         **** class cFont
  44:GFX.h         **** {
  45:GFX.h         **** public:
  46:GFX.h         ****     // --------------------------------------------------------------------------
  47:GFX.h         ****     // Constructeur
  48:GFX.h         ****     cFont(const GFXfont *pFont);
  49:GFX.h         **** 
  50:GFX.h         ****     // --------------------------------------------------------------------------
  51:GFX.h         ****     // Lecture le la largueur du caratre c
  52:GFX.h         ****     uint8_t getCharWidth(char c)
  53:GFX.h         ****     {
  54:GFX.h         ****         return ((m_pFont->glyph) + (c - m_pFont->first))->xAdvance;
  55:GFX.h         ****     }
  56:GFX.h         **** 
  57:GFX.h         ****     // --------------------------------------------------------------------------
  58:GFX.h         ****     // Lecture le la largueur de la chaine de caratre.
  59:GFX.h         ****     uint16_t getTextWidth(const char *Text)
  60:GFX.h         ****     {
  61:GFX.h         ****         const char *pText = Text;
  62:GFX.h         ****         uint16_t result = 0;
  63:GFX.h         ****         while (*pText != '\0')
  64:GFX.h         ****         {
  65:GFX.h         ****             result += getCharWidth(*pText++);
  66:GFX.h         ****         }
  67:GFX.h         ****         return result;
  68:GFX.h         ****     }
  69:GFX.h         **** 
  70:GFX.h         ****     // --------------------------------------------------------------------------
  71:GFX.h         ****     // Lecture de la hauteur max de la font
  72:GFX.h         ****     inline uint8_t getHeight()
  73:GFX.h         ****     {
  74:GFX.h         ****         return m_NegHeight - m_PosHeight;
  75:GFX.h         ****     }
  76:GFX.h         **** 
  77:GFX.h         ****     // --------------------------------------------------------------------------
  78:GFX.h         ****     // Lecture de la hauteur max de la font au dessus la ligne du curseur
ARM GAS  /var/folders/s6/2bsynnl15rj0bwtb9pgx4dc00000gn/T//cc76hY55.s 			page 20


  79:GFX.h         ****     inline uint8_t getPosHeight()
  80:GFX.h         ****     {
  81:GFX.h         ****         return -m_PosHeight;
  82:GFX.h         ****     }
  83:GFX.h         **** 
  84:GFX.h         ****     // --------------------------------------------------------------------------
  85:GFX.h         ****     // Lecture de la hauteur max de la font sous la ligne du curseur
  86:GFX.h         ****     inline uint8_t getNegHeight()
  87:GFX.h         ****     {
  88:GFX.h         ****         return m_NegHeight;
  89:GFX.h         ****     }
  90:GFX.h         **** 
  91:GFX.h         ****     // --------------------------------------------------------------------------
  92:GFX.h         ****     // Lecture de l'adresse du descripteur de font
  93:GFX.h         ****     inline const GFXfont *getGFXfont() { return m_pFont; }
  94:GFX.h         **** 
  95:GFX.h         ****     // --------------------------------------------------------------------------
  96:GFX.h         ****     // Lecture de l'adresse de la table des decripteurs de caratres
  97:GFX.h         ****     inline const GFXglyph *getGFXglyph() { return m_pTable; }
  98:GFX.h         **** 
  99:GFX.h         ****     // --------------------------------------------------------------------------
 100:GFX.h         ****     // Lecture de l'adresse du descripteur du caratre c
 101:GFX.h         ****     inline const GFXglyph *getGFXglyph(char c)
 102:GFX.h         ****     {
 103:GFX.h         ****         return m_pTable + (c - m_pFont->first);
 104:GFX.h         ****     }
 105:GFX.h         **** 
 106:GFX.h         ****     // --------------------------------------------------------------------------
 107:GFX.h         ****     // Lecteur de l'adresse du bitmap reprsentant c
 108:GFX.h         ****     inline const uint8_t *getBitmap(char c)
 109:GFX.h         ****     {
 110:GFX.h         ****         return &m_pFont->bitmap[m_pTable[c - m_pFont->first].bitmapOffset];
 111:GFX.h         ****     }
 112:GFX.h         **** 
 113:GFX.h         ****     // --------------------------------------------------------------------------
 114:GFX.h         ****     // Donnes de la classe
 115:GFX.h         **** protected:
 116:GFX.h         ****     const GFXfont *m_pFont; // Descripteur de la font
 117:GFX.h         ****     GFXglyph *m_pTable;     // Table des descripteurs de caratres
 118:GFX.h         **** 
 119:GFX.h         ****     int8_t m_PosHeight; // Hauteur au dessus de la ligne du curseur
 120:GFX.h         ****     int8_t m_NegHeight; // Hauteur sous la ligne du curseur
 121:GFX.h         **** };
 122:GFX.h         **** 
 123:GFX.h         **** //***********************************************************************************
 124:GFX.h         **** // cGFX
 125:GFX.h         **** //   Bibliothque Graphique
 126:GFX.h         **** class cGFX : protected cRBG_Frame
 127:GFX.h         **** {
 128:GFX.h         **** public:
 129:GFX.h         ****     // --------------------------------------------------------------------------
 130:GFX.h         ****     // Constructeur
 131:GFX.h         ****     cGFX() {}
 132:GFX.h         **** 
 133:GFX.h         ****     // --------------------------------------------------------------------------
 134:GFX.h         ****     // Initialisation de la classe
 135:GFX.h         ****     // Doit tre appele avant toute utilisation (aucune vrification ralise) 
ARM GAS  /var/folders/s6/2bsynnl15rj0bwtb9pgx4dc00000gn/T//cc76hY55.s 			page 21


 136:GFX.h         ****     //   pFrameBuff pointe sur la mmoire de frame  instancier de prfrence dans la SDRAM  
 137:GFX.h         ****     //   pFIFO_Data pointe sur la mmoire du FIFO DMA utilis pour les transfers SPI 
 138:GFX.h         ****     //              doit etre obligatoirement instanci dans la SDRAM D1 (DMA_BUFFER_MEM_SECTION)
 139:GFX.h         ****     //   Width, Height taille de l'cran
 140:GFX.h         ****     //
 141:GFX.h         ****     void Init(RGB *pFrameBuff, FIFO_Data *pFIFO_Data, uint16_t Width, uint16_t Height)
 142:GFX.h         ****     {
 143:GFX.h         ****         setFrame(pFrameBuff, pFIFO_Data, Width, Height);
 359              		.loc 12 143 17 view .LVU66
 360 0004 314D     		ldr	r5, .L27+4
 361              	.LBE479:
 362              	.LBE478:
 363              		.loc 8 67 17 view .LVU67
 364 0006 2046     		mov	r0, r4
  66:TestTFT.cpp   ****     hw.Configure();
 365              		.loc 8 66 1 view .LVU68
 366 0008 2DED028B 		vpush.64	{d8}
 367              		.cfi_def_cfa_offset 20
 368              		.cfi_offset 80, -20
 369              		.cfi_offset 81, -16
 370 000c 87B0     		sub	sp, sp, #28
 371              		.cfi_def_cfa_offset 48
 372              		.loc 8 67 17 view .LVU69
 373 000e FFF7FEFF 		bl	_ZN5daisy9DaisySeed9ConfigureEv
 374              	.LVL19:
  68:TestTFT.cpp   ****     hw.Init();
 375              		.loc 8 68 5 is_stmt 1 view .LVU70
 376              		.loc 8 68 12 is_stmt 0 view .LVU71
 377 0012 2046     		mov	r0, r4
 378 0014 0021     		movs	r1, #0
 379 0016 FFF7FEFF 		bl	_ZN5daisy9DaisySeed4InitEb
 380              	.LVL20:
  69:TestTFT.cpp   ****     hw.SetAudioBlockSize(32);
 381              		.loc 8 69 5 is_stmt 1 view .LVU72
 382              		.loc 8 69 25 is_stmt 0 view .LVU73
 383 001a 2046     		mov	r0, r4
 384 001c 2021     		movs	r1, #32
 385 001e FFF7FEFF 		bl	_ZN5daisy9DaisySeed17SetAudioBlockSizeEj
 386              	.LVL21:
  70:TestTFT.cpp   ****     hw.SetAudioSampleRate(SaiHandle::Config::SampleRate::SAI_48KHZ);
 387              		.loc 8 70 5 is_stmt 1 view .LVU74
 388              		.loc 8 70 26 is_stmt 0 view .LVU75
 389 0022 2046     		mov	r0, r4
 390 0024 0321     		movs	r1, #3
 391 0026 FFF7FEFF 		bl	_ZN5daisy9DaisySeed18SetAudioSampleRateENS_9SaiHandle6Config10SampleRateE
 392              	.LVL22:
  71:TestTFT.cpp   ****     hw.StartAudio(AudioCallback);
 393              		.loc 8 71 5 is_stmt 1 view .LVU76
 394              		.loc 8 71 18 is_stmt 0 view .LVU77
 395 002a 2046     		mov	r0, r4
 396 002c 2849     		ldr	r1, .L27+8
 397 002e FFF7FEFF 		bl	_ZN5daisy9DaisySeed10StartAudioEPFvPKPKfPPfjE
 398              	.LVL23:
  72:TestTFT.cpp   ****     hw.usb_handle.Init(UsbHandle::FS_INTERNAL);
 399              		.loc 8 72 5 is_stmt 1 view .LVU78
 400              		.loc 8 72 23 is_stmt 0 view .LVU79
 401 0032 0021     		movs	r1, #0
ARM GAS  /var/folders/s6/2bsynnl15rj0bwtb9pgx4dc00000gn/T//cc76hY55.s 			page 22


 402 0034 04F12400 		add	r0, r4, #36
 403 0038 FFF7FEFF 		bl	_ZN5daisy9UsbHandle4InitENS0_9UsbPeriphE
 404              	.LVL24:
  73:TestTFT.cpp   ****     float sample_rate = hw.AudioSampleRate();
 405              		.loc 8 73 5 is_stmt 1 view .LVU80
 406              		.loc 8 73 43 is_stmt 0 view .LVU81
 407 003c 2046     		mov	r0, r4
 408 003e FFF7FEFF 		bl	_ZN5daisy9DaisySeed15AudioSampleRateEv
 409              	.LVL25:
 410 0042 B0EE408A 		vmov.f32	s16, s0
 411              	.LVL26:
  74:TestTFT.cpp   ****     spirits.Init(sample_rate);
 412              		.loc 8 74 5 is_stmt 1 view .LVU82
 413              		.loc 8 74 17 is_stmt 0 view .LVU83
 414 0046 2348     		ldr	r0, .L27+12
 415 0048 FFF7FEFF 		bl	_ZN7Spirits4InitEf
 416              	.LVL27:
  75:TestTFT.cpp   ****     sound2.Init(sample_rate);
 417              		.loc 8 75 5 is_stmt 1 view .LVU84
 418              		.loc 8 75 16 is_stmt 0 view .LVU85
 419 004c 2248     		ldr	r0, .L27+16
 420 004e B0EE480A 		vmov.f32	s0, s16
 421 0052 FFF7FEFF 		bl	_ZN7Spirits4InitEf
 422              	.LVL28:
  76:TestTFT.cpp   ****     option3Sound.Init(sample_rate);    
 423              		.loc 8 76 5 is_stmt 1 view .LVU86
 424              		.loc 8 76 22 is_stmt 0 view .LVU87
 425 0056 B0EE480A 		vmov.f32	s0, s16
 426 005a 2048     		ldr	r0, .L27+20
 427 005c FFF7FEFF 		bl	_ZN7Spirits4InitEf
 428              	.LVL29:
  77:TestTFT.cpp   ****     __Display.Init(__FrameBuff, &__Fifo, TFT_WIDTH, TFT_HEIGHT);
 429              		.loc 8 77 5 is_stmt 1 view .LVU88
 430              	.LBB481:
 431              	.LBI478:
 141:GFX.h         ****     {
 432              		.loc 12 141 10 view .LVU89
 433              	.LBB480:
 434              		.loc 12 143 9 view .LVU90
 435              		.loc 12 143 17 is_stmt 0 view .LVU91
 436 0060 4FF4A070 		mov	r0, #320
 437 0064 F023     		movs	r3, #240
 438 0066 1E4A     		ldr	r2, .L27+24
 439 0068 0090     		str	r0, [sp]
 440 006a 2846     		mov	r0, r5
 441 006c 1D49     		ldr	r1, .L27+28
 442 006e FFF7FEFF 		bl	_ZN10cRBG_Frame8setFrameEP3RGBP9FIFO_Datatt
 443              	.LVL30:
 444              		.loc 12 143 17 view .LVU92
 445              	.LBE480:
 446              	.LBE481:
  78:TestTFT.cpp   ****     __Display.setRotation(Rotation::Degre_270);
 447              		.loc 8 78 5 is_stmt 1 view .LVU93
 448              	.LBB482:
 449              	.LBI482:
 144:GFX.h         ****     }
 145:GFX.h         ****     
ARM GAS  /var/folders/s6/2bsynnl15rj0bwtb9pgx4dc00000gn/T//cc76hY55.s 			page 23


 146:GFX.h         ****     // --------------------------------------------------------------------------
 147:GFX.h         ****     // Changer l'orientation de l'cran
 148:GFX.h         ****     void setRotation(Rotation r)
 450              		.loc 12 148 10 view .LVU94
 451              	.LBB483:
 149:GFX.h         ****     {
 150:GFX.h         ****         setFrameRotation(r);
 452              		.loc 12 150 9 view .LVU95
 453              		.loc 12 150 25 is_stmt 0 view .LVU96
 454 0072 2846     		mov	r0, r5
 455 0074 0321     		movs	r1, #3
 456 0076 FFF7FEFF 		bl	_ZN10cRBG_Frame16setFrameRotationE8Rotation
 457              	.LVL31:
 458              		.loc 12 150 25 view .LVU97
 459              	.LBE483:
 460              	.LBE482:
  79:TestTFT.cpp   ****     
  80:TestTFT.cpp   **** 
  81:TestTFT.cpp   ****     InitButtons();
 461              		.loc 8 81 5 is_stmt 1 view .LVU98
 462              		.loc 8 81 16 is_stmt 0 view .LVU99
 463 007a FFF7FEFF 		bl	_Z11InitButtonsv
 464              	.LVL32:
  82:TestTFT.cpp   ****     InitEncoder();
 465              		.loc 8 82 5 is_stmt 1 view .LVU100
 466              	.LBB484:
 467              	.LBI484:
  60:TestTFT.cpp   **** {
 468              		.loc 8 60 6 view .LVU101
 469              	.LBB485:
  62:TestTFT.cpp   **** }
 470              		.loc 8 62 5 view .LVU102
  62:TestTFT.cpp   **** }
 471              		.loc 8 62 17 is_stmt 0 view .LVU103
 472 007e 0022     		movs	r2, #0
 473 0080 0220     		movs	r0, #2
 474 0082 0123     		movs	r3, #1
 475 0084 0321     		movs	r1, #3
 476 0086 8DF80D20 		strb	r2, [sp, #13]
 477 008a 8DF80C00 		strb	r0, [sp, #12]
 478 008e 8DF81110 		strb	r1, [sp, #17]
 479 0092 9FED150A 		vldr.32	s0, .L27+32
 480 0096 0399     		ldr	r1, [sp, #12]
 481 0098 8DF81020 		strb	r2, [sp, #16]
 482 009c 8DF81430 		strb	r3, [sp, #20]
 483 00a0 8DF81530 		strb	r3, [sp, #21]
 484 00a4 1148     		ldr	r0, .L27+36
 485 00a6 DDE90423 		ldrd	r2, r3, [sp, #16]
 486 00aa FFF7FEFF 		bl	_ZN5daisy7Encoder4InitE12dsy_gpio_pinS1_S1_f
 487              	.LVL33:
 488              	.LBE485:
 489              	.LBE484:
  83:TestTFT.cpp   **** 
  84:TestTFT.cpp   ****     System::Delay(500);
 490              		.loc 8 84 5 is_stmt 1 view .LVU104
 491              		.loc 8 84 18 is_stmt 0 view .LVU105
 492 00ae 4FF4FA70 		mov	r0, #500
ARM GAS  /var/folders/s6/2bsynnl15rj0bwtb9pgx4dc00000gn/T//cc76hY55.s 			page 24


 493 00b2 FFF7FEFF 		bl	_ZN5daisy6System5DelayEm
 494              	.LVL34:
  85:TestTFT.cpp   ****     hw.PrintLine("Hardware initialized");
 495              		.loc 8 85 5 is_stmt 1 view .LVU106
 496              	.LBB486:
 497              	.LBI486:
  23:./libDaisy/src/daisy_seed.h **** 
  24:./libDaisy/src/daisy_seed.h ****     /** This function used to provide a pre-initialization configuraiton 
  25:./libDaisy/src/daisy_seed.h ****      *  it has since been deprecated, and does nothing.
  26:./libDaisy/src/daisy_seed.h ****      */
  27:./libDaisy/src/daisy_seed.h ****     void Configure();
  28:./libDaisy/src/daisy_seed.h **** 
  29:./libDaisy/src/daisy_seed.h ****     /** 
  30:./libDaisy/src/daisy_seed.h ****     Initializes the Daisy Seed and the following peripherals:
  31:./libDaisy/src/daisy_seed.h ****     SDRAM, QSPI, 24-bit 48kHz Audio via AK4556, Internal USB,
  32:./libDaisy/src/daisy_seed.h ****     as well as the built-in LED and Testpoint.
  33:./libDaisy/src/daisy_seed.h **** 
  34:./libDaisy/src/daisy_seed.h ****     ADCs, DACs, and other special peripherals (such as I2C, SPI, etc.)
  35:./libDaisy/src/daisy_seed.h ****     can be initialized using their specific initializers within libdaisy
  36:./libDaisy/src/daisy_seed.h ****     for a specific application.
  37:./libDaisy/src/daisy_seed.h ****     */
  38:./libDaisy/src/daisy_seed.h ****     void Init(bool boost = false);
  39:./libDaisy/src/daisy_seed.h **** 
  40:./libDaisy/src/daisy_seed.h ****     /** 
  41:./libDaisy/src/daisy_seed.h ****     Deinitializes all peripherals automatically handled by `Init`.
  42:./libDaisy/src/daisy_seed.h ****     */
  43:./libDaisy/src/daisy_seed.h ****     void DeInit();
  44:./libDaisy/src/daisy_seed.h **** 
  45:./libDaisy/src/daisy_seed.h ****     /** 
  46:./libDaisy/src/daisy_seed.h ****     Wait some ms before going on.
  47:./libDaisy/src/daisy_seed.h ****     \param del Delay time in ms.
  48:./libDaisy/src/daisy_seed.h ****     */
  49:./libDaisy/src/daisy_seed.h ****     void DelayMs(size_t del);
  50:./libDaisy/src/daisy_seed.h **** 
  51:./libDaisy/src/daisy_seed.h ****     /** 
  52:./libDaisy/src/daisy_seed.h ****     Returns the gpio_pin corresponding to the index 0-31.
  53:./libDaisy/src/daisy_seed.h ****     For the given GPIO on the Daisy Seed (labeled 1-32 in docs).
  54:./libDaisy/src/daisy_seed.h ****     */
  55:./libDaisy/src/daisy_seed.h ****     static dsy_gpio_pin GetPin(uint8_t pin_idx);
  56:./libDaisy/src/daisy_seed.h **** 
  57:./libDaisy/src/daisy_seed.h ****     /** Begins the audio for the seeds builtin audio.
  58:./libDaisy/src/daisy_seed.h ****     the specified callback will get called whenever
  59:./libDaisy/src/daisy_seed.h ****     new data is ready to be prepared.
  60:./libDaisy/src/daisy_seed.h ****     */
  61:./libDaisy/src/daisy_seed.h ****     void StartAudio(AudioHandle::InterleavingAudioCallback cb);
  62:./libDaisy/src/daisy_seed.h **** 
  63:./libDaisy/src/daisy_seed.h ****     /** Begins the audio for the seeds builtin audio.
  64:./libDaisy/src/daisy_seed.h ****     the specified callback will get called whenever
  65:./libDaisy/src/daisy_seed.h ****     new data is ready to be prepared.
  66:./libDaisy/src/daisy_seed.h ****     This will use the newer non-interleaved callback.
  67:./libDaisy/src/daisy_seed.h ****     */
  68:./libDaisy/src/daisy_seed.h ****     void StartAudio(AudioHandle::AudioCallback cb);
  69:./libDaisy/src/daisy_seed.h **** 
  70:./libDaisy/src/daisy_seed.h ****     /** Changes to a new interleaved callback
  71:./libDaisy/src/daisy_seed.h ****      */
  72:./libDaisy/src/daisy_seed.h ****     void ChangeAudioCallback(AudioHandle::InterleavingAudioCallback cb);
  73:./libDaisy/src/daisy_seed.h **** 
ARM GAS  /var/folders/s6/2bsynnl15rj0bwtb9pgx4dc00000gn/T//cc76hY55.s 			page 25


  74:./libDaisy/src/daisy_seed.h ****     /** Changes to a new multichannel callback
  75:./libDaisy/src/daisy_seed.h ****      */
  76:./libDaisy/src/daisy_seed.h ****     void ChangeAudioCallback(AudioHandle::AudioCallback cb);
  77:./libDaisy/src/daisy_seed.h **** 
  78:./libDaisy/src/daisy_seed.h ****     /** Stops the audio if it is running. */
  79:./libDaisy/src/daisy_seed.h ****     void StopAudio();
  80:./libDaisy/src/daisy_seed.h **** 
  81:./libDaisy/src/daisy_seed.h ****     /** Updates the Audio Sample Rate, and reinitializes.
  82:./libDaisy/src/daisy_seed.h ****      ** Audio must be stopped for this to work.
  83:./libDaisy/src/daisy_seed.h ****      */
  84:./libDaisy/src/daisy_seed.h ****     void SetAudioSampleRate(SaiHandle::Config::SampleRate samplerate);
  85:./libDaisy/src/daisy_seed.h **** 
  86:./libDaisy/src/daisy_seed.h ****     /** Returns the audio sample rate in Hz as a floating point number.
  87:./libDaisy/src/daisy_seed.h ****      */
  88:./libDaisy/src/daisy_seed.h ****     float AudioSampleRate();
  89:./libDaisy/src/daisy_seed.h **** 
  90:./libDaisy/src/daisy_seed.h ****     /** Sets the number of samples processed per channel by the audio callback.
  91:./libDaisy/src/daisy_seed.h ****      */
  92:./libDaisy/src/daisy_seed.h ****     void SetAudioBlockSize(size_t blocksize);
  93:./libDaisy/src/daisy_seed.h **** 
  94:./libDaisy/src/daisy_seed.h ****     /** Returns the number of samples per channel in a block of audio. */
  95:./libDaisy/src/daisy_seed.h ****     size_t AudioBlockSize();
  96:./libDaisy/src/daisy_seed.h **** 
  97:./libDaisy/src/daisy_seed.h ****     /** Returns the rate in Hz that the Audio callback is called */
  98:./libDaisy/src/daisy_seed.h ****     float AudioCallbackRate() const;
  99:./libDaisy/src/daisy_seed.h **** 
 100:./libDaisy/src/daisy_seed.h ****     /** Returns the SAI Handle for the Daisy Seed 
 101:./libDaisy/src/daisy_seed.h ****      *  This can be useful when adding a secondary codec,
 102:./libDaisy/src/daisy_seed.h ****      *  the result of this function can be passed to the audio reinit 
 103:./libDaisy/src/daisy_seed.h ****      *  with an SAI2 configuration
 104:./libDaisy/src/daisy_seed.h ****      */
 105:./libDaisy/src/daisy_seed.h ****     const SaiHandle& AudioSaiHandle() const;
 106:./libDaisy/src/daisy_seed.h **** 
 107:./libDaisy/src/daisy_seed.h ****     /** Sets the state of the built in LED
 108:./libDaisy/src/daisy_seed.h ****      */
 109:./libDaisy/src/daisy_seed.h ****     void SetLed(bool state);
 110:./libDaisy/src/daisy_seed.h **** 
 111:./libDaisy/src/daisy_seed.h ****     /** Sets the state of the test point near pin 10
 112:./libDaisy/src/daisy_seed.h ****      */
 113:./libDaisy/src/daisy_seed.h ****     void SetTestPoint(bool state);
 114:./libDaisy/src/daisy_seed.h **** 
 115:./libDaisy/src/daisy_seed.h ****     /** Print formatted debug log message
 116:./libDaisy/src/daisy_seed.h ****      */
 117:./libDaisy/src/daisy_seed.h ****     template <typename... VA>
 118:./libDaisy/src/daisy_seed.h ****     static void Print(const char* format, VA... va)
 119:./libDaisy/src/daisy_seed.h ****     {
 120:./libDaisy/src/daisy_seed.h ****         Log::Print(format, va...);
 121:./libDaisy/src/daisy_seed.h ****     }
 122:./libDaisy/src/daisy_seed.h **** 
 123:./libDaisy/src/daisy_seed.h ****     /** Print formatted debug log message with automatic line termination
 124:./libDaisy/src/daisy_seed.h ****     */
 125:./libDaisy/src/daisy_seed.h ****     template <typename... VA>
 126:./libDaisy/src/daisy_seed.h ****     static void PrintLine(const char* format, VA... va)
 498              		.loc 3 126 17 view .LVU107
 499              	.LBB487:
 127:./libDaisy/src/daisy_seed.h ****     {
 128:./libDaisy/src/daisy_seed.h ****         Log::PrintLine(format, va...);
ARM GAS  /var/folders/s6/2bsynnl15rj0bwtb9pgx4dc00000gn/T//cc76hY55.s 			page 26


 500              		.loc 3 128 23 is_stmt 0 view .LVU108
 501 00b6 0E48     		ldr	r0, .L27+40
 502              	.LBE487:
 503              	.LBE486:
  86:TestTFT.cpp   **** }
 504              		.loc 8 86 1 view .LVU109
 505 00b8 07B0     		add	sp, sp, #28
 506              		.cfi_def_cfa_offset 20
 507              		@ sp needed
 508 00ba BDEC028B 		vldm	sp!, {d8}
 509              		.cfi_restore 80
 510              		.cfi_restore 81
 511              		.cfi_def_cfa_offset 12
 512              	.LVL35:
 513              		.loc 8 86 1 view .LVU110
 514 00be BDE83040 		pop	{r4, r5, lr}
 515              		.cfi_restore 14
 516              		.cfi_restore 5
 517              		.cfi_restore 4
 518              		.cfi_def_cfa_offset 0
 519              	.LBB489:
 520              	.LBB488:
 521              		.loc 3 128 23 view .LVU111
 522 00c2 FFF7FEBF 		b	_ZN5daisy6LoggerILNS_17LoggerDestinationE1EE9PrintLineEPKcz
 523              	.LVL36:
 524              	.L28:
 525 00c6 00BF     		.align	2
 526              	.L27:
 527 00c8 00000000 		.word	.LANCHOR4
 528 00cc 00000000 		.word	.LANCHOR5
 529 00d0 00000000 		.word	_Z13AudioCallbackPKPKfPPfj
 530 00d4 00000000 		.word	.LANCHOR0
 531 00d8 00000000 		.word	.LANCHOR1
 532 00dc 00000000 		.word	.LANCHOR2
 533 00e0 00000000 		.word	__Fifo
 534 00e4 00000000 		.word	__FrameBuff
 535 00e8 00000000 		.word	0
 536 00ec 00000000 		.word	.LANCHOR3
 537 00f0 00000000 		.word	.LC1
 538              	.LBE488:
 539              	.LBE489:
 540              		.cfi_endproc
 541              	.LFE5020:
 543              		.section	.rodata._Z10UpdateMenuv.str1.4,"aMS",%progbits,1
 544              		.align	2
 545              	.LC2:
 546 0000 456E636F 		.ascii	"Encoder increment: %d, Scrolling from %d to %d (opt"
 546      64657220 
 546      696E6372 
 546      656D656E 
 546      743A2025 
 547 0033 696F6E43 		.ascii	"ionCount: %d)\000"
 547      6F756E74 
 547      3A202564 
 547      2900
 548 0041 000000   		.align	2
 549              	.LC3:
ARM GAS  /var/folders/s6/2bsynnl15rj0bwtb9pgx4dc00000gn/T//cc76hY55.s 			page 27


 550 0044 43757272 		.ascii	"Current Option changed to: %d\000"
 550      656E7420 
 550      4F707469 
 550      6F6E2063 
 550      68616E67 
 551              		.section	.text._Z10UpdateMenuv,"ax",%progbits
 552              		.align	1
 553              		.p2align 2,,3
 554              		.global	_Z10UpdateMenuv
 555              		.syntax unified
 556              		.thumb
 557              		.thumb_func
 559              	_Z10UpdateMenuv:
 560              	.LFB5021:
  87:TestTFT.cpp   **** 
  88:TestTFT.cpp   **** 
  89:TestTFT.cpp   **** 
  90:TestTFT.cpp   **** void UpdateMenu()
  91:TestTFT.cpp   **** {
 561              		.loc 8 91 1 is_stmt 1 view -0
 562              		.cfi_startproc
 563              		@ args = 0, pretend = 0, frame = 0
 564              		@ frame_needed = 0, uses_anonymous_args = 0
  92:TestTFT.cpp   ****     int optionCount;
 565              		.loc 8 92 5 view .LVU113
  93:TestTFT.cpp   ****     switch (currentState)
 566              		.loc 8 93 5 view .LVU114
  91:TestTFT.cpp   ****     int optionCount;
 567              		.loc 8 91 1 is_stmt 0 view .LVU115
 568 0000 F0B5     		push	{r4, r5, r6, r7, lr}
 569              		.cfi_def_cfa_offset 20
 570              		.cfi_offset 4, -20
 571              		.cfi_offset 5, -16
 572              		.cfi_offset 6, -12
 573              		.cfi_offset 7, -8
 574              		.cfi_offset 14, -4
 575              		.loc 8 93 13 view .LVU116
 576 0002 414D     		ldr	r5, .L80
  91:TestTFT.cpp   ****     int optionCount;
 577              		.loc 8 91 1 view .LVU117
 578 0004 83B0     		sub	sp, sp, #12
 579              		.cfi_def_cfa_offset 32
 580              		.loc 8 93 13 view .LVU118
 581 0006 2A78     		ldrb	r2, [r5]	@ zero_extendqisi2
 582 0008 531E     		subs	r3, r2, #1
 583 000a DBB2     		uxtb	r3, r3
 584 000c 042B     		cmp	r3, #4
 585 000e 1CD8     		bhi	.L44
 586 0010 3E49     		ldr	r1, .L80+4
 587 0012 51F82360 		ldr	r6, [r1, r3, lsl #2]
 588              	.L30:
 589              	.LVL37:
  94:TestTFT.cpp   ****     {
  95:TestTFT.cpp   ****         case MAIN_MENU:
  96:TestTFT.cpp   ****             optionCount = MAIN_MENU_OPTIONS;
  97:TestTFT.cpp   ****             break;
  98:TestTFT.cpp   ****         case CHORD_SELECTION:
ARM GAS  /var/folders/s6/2bsynnl15rj0bwtb9pgx4dc00000gn/T//cc76hY55.s 			page 28


  99:TestTFT.cpp   ****             optionCount = CHORD_SELECTION_OPTIONS;
 100:TestTFT.cpp   ****             break;
 101:TestTFT.cpp   ****         case SOUND_DESIGN:
 102:TestTFT.cpp   ****             optionCount = SOUND_DESIGN_OPTIONS;
 103:TestTFT.cpp   ****             break;
 104:TestTFT.cpp   ****         case PERFORMANCE_SETTINGS:
 105:TestTFT.cpp   ****             optionCount = PERFORMANCE_SETTINGS_OPTIONS;
 106:TestTFT.cpp   ****             break;
 107:TestTFT.cpp   ****         case GLOBAL_SETTINGS:
 108:TestTFT.cpp   ****             optionCount = GLOBAL_SETTINGS_OPTIONS;
 109:TestTFT.cpp   ****             break;
 110:TestTFT.cpp   ****         case VISUALS:
 111:TestTFT.cpp   ****             optionCount = 1; // Visuals doesn't have selectable options
 112:TestTFT.cpp   ****             break;
 113:TestTFT.cpp   ****         default:
 114:TestTFT.cpp   ****             optionCount = MAIN_MENU_OPTIONS;
 115:TestTFT.cpp   ****             break;
 116:TestTFT.cpp   ****     }
 117:TestTFT.cpp   **** 
 118:TestTFT.cpp   ****     bool menuChanged = false;
 590              		.loc 8 118 5 is_stmt 1 view .LVU119
 119:TestTFT.cpp   ****     int increment = -encoder.Increment();
 591              		.loc 8 119 5 view .LVU120
 592              	.LBB490:
 593              	.LBI490:
  22:./libDaisy/src/hid/encoder.h **** 
  23:./libDaisy/src/hid/encoder.h ****     /** Initializes the encoder with the specified hardware pins.
  24:./libDaisy/src/hid/encoder.h ****      * Update rate is to be deprecated in a future release
  25:./libDaisy/src/hid/encoder.h ****      */
  26:./libDaisy/src/hid/encoder.h ****     void Init(dsy_gpio_pin a,
  27:./libDaisy/src/hid/encoder.h ****               dsy_gpio_pin b,
  28:./libDaisy/src/hid/encoder.h ****               dsy_gpio_pin click,
  29:./libDaisy/src/hid/encoder.h ****               float        update_rate = 0.f);
  30:./libDaisy/src/hid/encoder.h ****     /** Called at update_rate to debounce and handle timing for the switch.
  31:./libDaisy/src/hid/encoder.h ****      * In order for events not to be missed, its important that the Edge/Pressed checks be made at 
  32:./libDaisy/src/hid/encoder.h ****      */
  33:./libDaisy/src/hid/encoder.h ****     void Debounce();
  34:./libDaisy/src/hid/encoder.h **** 
  35:./libDaisy/src/hid/encoder.h ****     /** Returns +1 if the encoder was turned clockwise, -1 if it was turned counter-clockwise, or 0
  36:./libDaisy/src/hid/encoder.h ****     inline int32_t Increment() const { return updated_ ? inc_ : 0; }
 594              		.loc 1 36 20 view .LVU121
 595              	.LBB491:
 596              		.loc 1 36 40 view .LVU122
 597              		.loc 1 36 47 is_stmt 0 view .LVU123
 598 0016 3E49     		ldr	r1, .L80+8
 599 0018 0C79     		ldrb	r4, [r1, #4]	@ zero_extendqisi2
 600              		.loc 1 36 56 view .LVU124
 601 001a 0CB1     		cbz	r4, .L31
 602 001c 4B6A     		ldr	r3, [r1, #36]
 603              	.LVL38:
 604              		.loc 1 36 56 view .LVU125
 605              	.LBE491:
 606              	.LBE490:
 120:TestTFT.cpp   **** 
 121:TestTFT.cpp   ****     if (increment != 0)
 607              		.loc 8 121 5 is_stmt 1 view .LVU126
 608              	.LBB492:
ARM GAS  /var/folders/s6/2bsynnl15rj0bwtb9pgx4dc00000gn/T//cc76hY55.s 			page 29


 609 001e 1BBB     		cbnz	r3, .L77
 610              	.LVL39:
 611              	.L31:
 612              		.loc 8 121 5 is_stmt 0 view .LVU127
 613              	.LBE492:
 122:TestTFT.cpp   ****     {
 123:TestTFT.cpp   ****         int oldOption = currentOption;
 124:TestTFT.cpp   ****         currentOption = (currentOption + increment + optionCount) % optionCount;
 125:TestTFT.cpp   ****         menuChanged = true;
 126:TestTFT.cpp   ****         hw.PrintLine("Encoder increment: %d, Scrolling from %d to %d (optionCount: %d)", 
 127:TestTFT.cpp   ****                      increment, oldOption, currentOption, optionCount);
 128:TestTFT.cpp   ****     }
 129:TestTFT.cpp   **** 
 130:TestTFT.cpp   ****     // Handle chord button presses for navigation only
 131:TestTFT.cpp   ****     if (currentState == CHORD_SELECTION)
 614              		.loc 8 131 5 is_stmt 1 view .LVU128
 615 0020 012A     		cmp	r2, #1
 616 0022 14D1     		bne	.L29
 617 0024 0024     		movs	r4, #0
 618              	.LVL40:
 619              	.L32:
 132:TestTFT.cpp   ****     {
 133:TestTFT.cpp   ****         if (buttonC.RisingEdge()) { currentOption = 0; menuChanged = true; }
 620              		.loc 8 133 9 view .LVU129
 621              	.LBB500:
 622              	.LBI500:
  43:./libDaisy/src/hid/switch.h **** 
  44:./libDaisy/src/hid/switch.h ****     /** 
  45:./libDaisy/src/hid/switch.h ****     Initializes the switch object with a given port/pin combo.
  46:./libDaisy/src/hid/switch.h ****     \param pin port/pin object to tell the switch which hardware pin to use.
  47:./libDaisy/src/hid/switch.h ****     \param update_rate Does nothing. Backwards compatibility until next breaking update.
  48:./libDaisy/src/hid/switch.h ****     \param t switch type -- Default: TYPE_MOMENTARY
  49:./libDaisy/src/hid/switch.h ****     \param pol switch polarity -- Default: POLARITY_INVERTED
  50:./libDaisy/src/hid/switch.h ****     \param pu switch pull up/down -- Default: PULL_UP
  51:./libDaisy/src/hid/switch.h ****     */
  52:./libDaisy/src/hid/switch.h ****     void
  53:./libDaisy/src/hid/switch.h ****     Init(dsy_gpio_pin pin, float update_rate, Type t, Polarity pol, Pull pu);
  54:./libDaisy/src/hid/switch.h **** 
  55:./libDaisy/src/hid/switch.h ****     /**
  56:./libDaisy/src/hid/switch.h ****        Simplified Init.
  57:./libDaisy/src/hid/switch.h ****        \param pin port/pin object to tell the switch which hardware pin to use.
  58:./libDaisy/src/hid/switch.h ****        \param update_rate Left for backwards compatibility until next breaking change.
  59:./libDaisy/src/hid/switch.h ****     */
  60:./libDaisy/src/hid/switch.h ****     void Init(dsy_gpio_pin pin, float update_rate = 0.f);
  61:./libDaisy/src/hid/switch.h **** 
  62:./libDaisy/src/hid/switch.h ****     /** 
  63:./libDaisy/src/hid/switch.h ****     Called at update_rate to debounce and handle timing for the switch.
  64:./libDaisy/src/hid/switch.h ****     In order for events not to be missed, its important that the Edge/Pressed checks
  65:./libDaisy/src/hid/switch.h ****     be made at the same rate as the debounce function is being called.
  66:./libDaisy/src/hid/switch.h ****     */
  67:./libDaisy/src/hid/switch.h ****     void Debounce();
  68:./libDaisy/src/hid/switch.h **** 
  69:./libDaisy/src/hid/switch.h ****     /** \return true if a button was just pressed. */
  70:./libDaisy/src/hid/switch.h ****     inline bool RisingEdge() const { return updated_ ? state_ == 0x7f : false; }
 623              		.loc 2 70 17 view .LVU130
 624              	.LBB501:
 625              		.loc 2 70 38 view .LVU131
ARM GAS  /var/folders/s6/2bsynnl15rj0bwtb9pgx4dc00000gn/T//cc76hY55.s 			page 30


 626              		.loc 2 70 45 is_stmt 0 view .LVU132
 627 0026 3B4B     		ldr	r3, .L80+12
 628              		.loc 2 70 54 view .LVU133
 629 0028 1A79     		ldrb	r2, [r3, #4]	@ zero_extendqisi2
 630 002a 92B1     		cbz	r2, .L34
 631              	.LVL41:
 632              		.loc 2 70 54 view .LVU134
 633              	.LBE501:
 634              	.LBE500:
 635              		.loc 8 133 9 view .LVU135
 636 002c 9B7A     		ldrb	r3, [r3, #10]	@ zero_extendqisi2
 637 002e 7F2B     		cmp	r3, #127
 638 0030 0FD1     		bne	.L34
 639              		.loc 8 133 37 is_stmt 1 discriminator 1 view .LVU136
 640              		.loc 8 133 51 is_stmt 0 discriminator 1 view .LVU137
 641 0032 0023     		movs	r3, #0
 642 0034 384A     		ldr	r2, .L80+16
 643 0036 1946     		mov	r1, r3
 644 0038 1360     		str	r3, [r2]
 645              		.loc 8 133 56 is_stmt 1 discriminator 1 view .LVU138
 646              	.LVL42:
 134:TestTFT.cpp   ****         else if (buttonDm.RisingEdge()) { currentOption = 1; menuChanged = true; }
 135:TestTFT.cpp   ****         else if (buttonEm.RisingEdge()) { currentOption = 2; menuChanged = true; }
 136:TestTFT.cpp   ****         else if (buttonF.RisingEdge()) { currentOption = 3; menuChanged = true; }
 137:TestTFT.cpp   ****         else if (buttonG.RisingEdge()) { currentOption = 4; menuChanged = true; }
 138:TestTFT.cpp   ****         else if (buttonAm.RisingEdge()) { currentOption = 5; menuChanged = true; }
 139:TestTFT.cpp   ****         else if (buttonBdim.RisingEdge()) { currentOption = 6; menuChanged = true; }
 140:TestTFT.cpp   ****     }
 141:TestTFT.cpp   **** 
 142:TestTFT.cpp   ****     if (menuChanged) {
 647              		.loc 8 142 5 discriminator 1 view .LVU139
 648              	.L33:
 143:TestTFT.cpp   ****         hw.PrintLine("Current Option changed to: %d", currentOption);
 649              		.loc 8 143 9 view .LVU140
 650              	.LBB502:
 651              	.LBI502:
 126:./libDaisy/src/daisy_seed.h ****     {
 652              		.loc 3 126 17 view .LVU141
 653              	.LBB503:
 654              		.loc 3 128 23 is_stmt 0 view .LVU142
 655 003a 3848     		ldr	r0, .L80+20
 656 003c FFF7FEFF 		bl	_ZN5daisy6LoggerILNS_17LoggerDestinationE1EE9PrintLineEPKcz
 657              	.LVL43:
 658              		.loc 3 128 23 view .LVU143
 659              	.LBE503:
 660              	.LBE502:
 144:TestTFT.cpp   ****         DisplayMenu();
 661              		.loc 8 144 9 is_stmt 1 view .LVU144
 145:TestTFT.cpp   ****     }
 146:TestTFT.cpp   **** }
 662              		.loc 8 146 1 is_stmt 0 view .LVU145
 663 0040 03B0     		add	sp, sp, #12
 664              		.cfi_remember_state
 665              		.cfi_def_cfa_offset 20
 666              		@ sp needed
 667 0042 BDE8F040 		pop	{r4, r5, r6, r7, lr}
 668              		.cfi_restore 14
ARM GAS  /var/folders/s6/2bsynnl15rj0bwtb9pgx4dc00000gn/T//cc76hY55.s 			page 31


 669              		.cfi_restore 7
 670              		.cfi_restore 6
 671              		.cfi_restore 5
 672              		.cfi_restore 4
 673              		.cfi_def_cfa_offset 0
 674              	.LVL44:
 144:TestTFT.cpp   ****         DisplayMenu();
 675              		.loc 8 144 20 view .LVU146
 676 0046 FFF7FEBF 		b	_Z11DisplayMenuv
 677              	.LVL45:
 678              	.L44:
 679              		.cfi_restore_state
  93:TestTFT.cpp   ****     {
 680              		.loc 8 93 13 view .LVU147
 681 004a 0426     		movs	r6, #4
 682 004c E3E7     		b	.L30
 683              	.LVL46:
 684              	.L29:
 685              		.loc 8 146 1 view .LVU148
 686 004e 03B0     		add	sp, sp, #12
 687              		.cfi_remember_state
 688              		.cfi_def_cfa_offset 20
 689              		@ sp needed
 690 0050 F0BD     		pop	{r4, r5, r6, r7, pc}
 691              	.LVL47:
 692              	.L34:
 693              		.cfi_restore_state
 134:TestTFT.cpp   ****         else if (buttonEm.RisingEdge()) { currentOption = 2; menuChanged = true; }
 694              		.loc 8 134 14 is_stmt 1 view .LVU149
 695              	.LBB504:
 696              	.LBI504:
 697              		.loc 2 70 17 view .LVU150
 698              	.LBB505:
 699              		.loc 2 70 38 view .LVU151
 700              		.loc 2 70 45 is_stmt 0 view .LVU152
 701 0052 334B     		ldr	r3, .L80+24
 702              		.loc 2 70 54 view .LVU153
 703 0054 1A79     		ldrb	r2, [r3, #4]	@ zero_extendqisi2
 704 0056 D2B1     		cbz	r2, .L35
 705              	.LVL48:
 706              		.loc 2 70 54 view .LVU154
 707              	.LBE505:
 708              	.LBE504:
 134:TestTFT.cpp   ****         else if (buttonEm.RisingEdge()) { currentOption = 2; menuChanged = true; }
 709              		.loc 8 134 14 view .LVU155
 710 0058 9B7A     		ldrb	r3, [r3, #10]	@ zero_extendqisi2
 711 005a 7F2B     		cmp	r3, #127
 712 005c 17D1     		bne	.L35
 134:TestTFT.cpp   ****         else if (buttonEm.RisingEdge()) { currentOption = 2; menuChanged = true; }
 713              		.loc 8 134 43 is_stmt 1 discriminator 1 view .LVU156
 134:TestTFT.cpp   ****         else if (buttonEm.RisingEdge()) { currentOption = 2; menuChanged = true; }
 714              		.loc 8 134 57 is_stmt 0 discriminator 1 view .LVU157
 715 005e 0123     		movs	r3, #1
 716 0060 2D4A     		ldr	r2, .L80+16
 717 0062 1946     		mov	r1, r3
 718 0064 1360     		str	r3, [r2]
 134:TestTFT.cpp   ****         else if (buttonEm.RisingEdge()) { currentOption = 2; menuChanged = true; }
ARM GAS  /var/folders/s6/2bsynnl15rj0bwtb9pgx4dc00000gn/T//cc76hY55.s 			page 32


 719              		.loc 8 134 62 is_stmt 1 discriminator 1 view .LVU158
 720              	.LVL49:
 142:TestTFT.cpp   ****         hw.PrintLine("Current Option changed to: %d", currentOption);
 721              		.loc 8 142 5 discriminator 1 view .LVU159
 722 0066 E8E7     		b	.L33
 723              	.LVL50:
 724              	.L77:
 725              	.LBB506:
 726              	.LBB493:
 123:TestTFT.cpp   ****         currentOption = (currentOption + increment + optionCount) % optionCount;
 727              		.loc 8 123 9 view .LVU160
 123:TestTFT.cpp   ****         currentOption = (currentOption + increment + optionCount) % optionCount;
 728              		.loc 8 123 13 is_stmt 0 view .LVU161
 729 0068 2B4F     		ldr	r7, .L80+16
 730              	.LBB494:
 731              	.LBB495:
 732              		.loc 3 128 23 view .LVU162
 733 006a 5942     		rsbs	r1, r3, #0
 734 006c 2D48     		ldr	r0, .L80+28
 735              	.LBE495:
 736              	.LBE494:
 123:TestTFT.cpp   ****         currentOption = (currentOption + increment + optionCount) % optionCount;
 737              		.loc 8 123 13 view .LVU163
 738 006e 3A68     		ldr	r2, [r7]
 739              	.LVL51:
 124:TestTFT.cpp   ****         menuChanged = true;
 740              		.loc 8 124 9 is_stmt 1 view .LVU164
 741              	.LBB498:
 742              	.LBB496:
 743              		.loc 3 128 23 is_stmt 0 view .LVU165
 744 0070 0096     		str	r6, [sp]
 745              	.LBE496:
 746              	.LBE498:
 124:TestTFT.cpp   ****         menuChanged = true;
 747              		.loc 8 124 52 view .LVU166
 748 0072 D31A     		subs	r3, r2, r3
 749              	.LVL52:
 124:TestTFT.cpp   ****         menuChanged = true;
 750              		.loc 8 124 52 view .LVU167
 751 0074 3344     		add	r3, r3, r6
 124:TestTFT.cpp   ****         menuChanged = true;
 752              		.loc 8 124 67 view .LVU168
 753 0076 93FBF6FC 		sdiv	ip, r3, r6
 754 007a 06FB1C33 		mls	r3, r6, ip, r3
 124:TestTFT.cpp   ****         menuChanged = true;
 755              		.loc 8 124 23 view .LVU169
 756 007e 3B60     		str	r3, [r7]
 125:TestTFT.cpp   ****         hw.PrintLine("Encoder increment: %d, Scrolling from %d to %d (optionCount: %d)", 
 757              		.loc 8 125 9 is_stmt 1 view .LVU170
 758              	.LVL53:
 126:TestTFT.cpp   ****                      increment, oldOption, currentOption, optionCount);
 759              		.loc 8 126 9 view .LVU171
 760              	.LBB499:
 761              	.LBI494:
 126:./libDaisy/src/daisy_seed.h ****     {
 762              		.loc 3 126 17 view .LVU172
 763              	.LBB497:
ARM GAS  /var/folders/s6/2bsynnl15rj0bwtb9pgx4dc00000gn/T//cc76hY55.s 			page 33


 764              		.loc 3 128 23 is_stmt 0 view .LVU173
 765 0080 FFF7FEFF 		bl	_ZN5daisy6LoggerILNS_17LoggerDestinationE1EE9PrintLineEPKcz
 766              	.LVL54:
 767              		.loc 3 128 23 view .LVU174
 768              	.LBE497:
 769              	.LBE499:
 770              	.LBE493:
 771              	.LBE506:
 131:TestTFT.cpp   ****     {
 772              		.loc 8 131 5 is_stmt 1 view .LVU175
 773 0084 2B78     		ldrb	r3, [r5]	@ zero_extendqisi2
 774 0086 012B     		cmp	r3, #1
 775 0088 CDD0     		beq	.L32
 143:TestTFT.cpp   ****         DisplayMenu();
 776              		.loc 8 143 21 is_stmt 0 view .LVU176
 777 008a 3968     		ldr	r1, [r7]
 778 008c D5E7     		b	.L33
 779              	.LVL55:
 780              	.L35:
 135:TestTFT.cpp   ****         else if (buttonF.RisingEdge()) { currentOption = 3; menuChanged = true; }
 781              		.loc 8 135 14 is_stmt 1 view .LVU177
 782              	.LBB507:
 783              	.LBI507:
 784              		.loc 2 70 17 view .LVU178
 785              	.LBB508:
 786              		.loc 2 70 38 view .LVU179
 787              		.loc 2 70 45 is_stmt 0 view .LVU180
 788 008e 264B     		ldr	r3, .L80+32
 789              		.loc 2 70 54 view .LVU181
 790 0090 1A79     		ldrb	r2, [r3, #4]	@ zero_extendqisi2
 791 0092 12B1     		cbz	r2, .L36
 792              	.LVL56:
 793              		.loc 2 70 54 view .LVU182
 794              	.LBE508:
 795              	.LBE507:
 135:TestTFT.cpp   ****         else if (buttonF.RisingEdge()) { currentOption = 3; menuChanged = true; }
 796              		.loc 8 135 14 view .LVU183
 797 0094 9B7A     		ldrb	r3, [r3, #10]	@ zero_extendqisi2
 798 0096 7F2B     		cmp	r3, #127
 799 0098 2BD0     		beq	.L78
 800              	.L36:
 136:TestTFT.cpp   ****         else if (buttonG.RisingEdge()) { currentOption = 4; menuChanged = true; }
 801              		.loc 8 136 14 is_stmt 1 view .LVU184
 802              	.LVL57:
 803              	.LBB509:
 804              	.LBI509:
 805              		.loc 2 70 17 view .LVU185
 806              	.LBB510:
 807              		.loc 2 70 38 view .LVU186
 808              		.loc 2 70 45 is_stmt 0 view .LVU187
 809 009a 244B     		ldr	r3, .L80+36
 810              		.loc 2 70 54 view .LVU188
 811 009c 1A79     		ldrb	r2, [r3, #4]	@ zero_extendqisi2
 812 009e 12B1     		cbz	r2, .L37
 813              	.LVL58:
 814              		.loc 2 70 54 view .LVU189
 815              	.LBE510:
ARM GAS  /var/folders/s6/2bsynnl15rj0bwtb9pgx4dc00000gn/T//cc76hY55.s 			page 34


 816              	.LBE509:
 136:TestTFT.cpp   ****         else if (buttonG.RisingEdge()) { currentOption = 4; menuChanged = true; }
 817              		.loc 8 136 14 view .LVU190
 818 00a0 9B7A     		ldrb	r3, [r3, #10]	@ zero_extendqisi2
 819 00a2 7F2B     		cmp	r3, #127
 820 00a4 2AD0     		beq	.L79
 821              	.L37:
 137:TestTFT.cpp   ****         else if (buttonAm.RisingEdge()) { currentOption = 5; menuChanged = true; }
 822              		.loc 8 137 14 is_stmt 1 view .LVU191
 823              	.LVL59:
 824              	.LBB511:
 825              	.LBI511:
 826              		.loc 2 70 17 view .LVU192
 827              	.LBB512:
 828              		.loc 2 70 38 view .LVU193
 829              		.loc 2 70 45 is_stmt 0 view .LVU194
 830 00a6 224B     		ldr	r3, .L80+40
 831              		.loc 2 70 54 view .LVU195
 832 00a8 1A79     		ldrb	r2, [r3, #4]	@ zero_extendqisi2
 833 00aa 3AB1     		cbz	r2, .L38
 834              	.LVL60:
 835              		.loc 2 70 54 view .LVU196
 836              	.LBE512:
 837              	.LBE511:
 137:TestTFT.cpp   ****         else if (buttonAm.RisingEdge()) { currentOption = 5; menuChanged = true; }
 838              		.loc 8 137 14 view .LVU197
 839 00ac 9B7A     		ldrb	r3, [r3, #10]	@ zero_extendqisi2
 840 00ae 7F2B     		cmp	r3, #127
 841 00b0 04D1     		bne	.L38
 137:TestTFT.cpp   ****         else if (buttonAm.RisingEdge()) { currentOption = 5; menuChanged = true; }
 842              		.loc 8 137 42 is_stmt 1 discriminator 1 view .LVU198
 137:TestTFT.cpp   ****         else if (buttonAm.RisingEdge()) { currentOption = 5; menuChanged = true; }
 843              		.loc 8 137 56 is_stmt 0 discriminator 1 view .LVU199
 844 00b2 0423     		movs	r3, #4
 845 00b4 184A     		ldr	r2, .L80+16
 846 00b6 1946     		mov	r1, r3
 847 00b8 1360     		str	r3, [r2]
 137:TestTFT.cpp   ****         else if (buttonAm.RisingEdge()) { currentOption = 5; menuChanged = true; }
 848              		.loc 8 137 61 is_stmt 1 discriminator 1 view .LVU200
 849              	.LVL61:
 142:TestTFT.cpp   ****         hw.PrintLine("Current Option changed to: %d", currentOption);
 850              		.loc 8 142 5 discriminator 1 view .LVU201
 851 00ba BEE7     		b	.L33
 852              	.LVL62:
 853              	.L38:
 138:TestTFT.cpp   ****         else if (buttonBdim.RisingEdge()) { currentOption = 6; menuChanged = true; }
 854              		.loc 8 138 14 view .LVU202
 855              	.LBB513:
 856              	.LBI513:
 857              		.loc 2 70 17 view .LVU203
 858              	.LBB514:
 859              		.loc 2 70 38 view .LVU204
 860              		.loc 2 70 45 is_stmt 0 view .LVU205
 861 00bc 1D4B     		ldr	r3, .L80+44
 862              		.loc 2 70 54 view .LVU206
 863 00be 1A79     		ldrb	r2, [r3, #4]	@ zero_extendqisi2
 864 00c0 3AB1     		cbz	r2, .L39
ARM GAS  /var/folders/s6/2bsynnl15rj0bwtb9pgx4dc00000gn/T//cc76hY55.s 			page 35


 865              	.LVL63:
 866              		.loc 2 70 54 view .LVU207
 867              	.LBE514:
 868              	.LBE513:
 138:TestTFT.cpp   ****         else if (buttonBdim.RisingEdge()) { currentOption = 6; menuChanged = true; }
 869              		.loc 8 138 14 view .LVU208
 870 00c2 9B7A     		ldrb	r3, [r3, #10]	@ zero_extendqisi2
 871 00c4 7F2B     		cmp	r3, #127
 872 00c6 04D1     		bne	.L39
 138:TestTFT.cpp   ****         else if (buttonBdim.RisingEdge()) { currentOption = 6; menuChanged = true; }
 873              		.loc 8 138 43 is_stmt 1 discriminator 1 view .LVU209
 138:TestTFT.cpp   ****         else if (buttonBdim.RisingEdge()) { currentOption = 6; menuChanged = true; }
 874              		.loc 8 138 57 is_stmt 0 discriminator 1 view .LVU210
 875 00c8 0523     		movs	r3, #5
 876 00ca 134A     		ldr	r2, .L80+16
 877 00cc 1946     		mov	r1, r3
 878 00ce 1360     		str	r3, [r2]
 138:TestTFT.cpp   ****         else if (buttonBdim.RisingEdge()) { currentOption = 6; menuChanged = true; }
 879              		.loc 8 138 62 is_stmt 1 discriminator 1 view .LVU211
 880              	.LVL64:
 142:TestTFT.cpp   ****         hw.PrintLine("Current Option changed to: %d", currentOption);
 881              		.loc 8 142 5 discriminator 1 view .LVU212
 882 00d0 B3E7     		b	.L33
 883              	.LVL65:
 884              	.L39:
 139:TestTFT.cpp   ****     }
 885              		.loc 8 139 14 view .LVU213
 886              	.LBB515:
 887              	.LBI515:
 888              		.loc 2 70 17 view .LVU214
 889              	.LBB516:
 890              		.loc 2 70 38 view .LVU215
 891              		.loc 2 70 45 is_stmt 0 view .LVU216
 892 00d2 194B     		ldr	r3, .L80+48
 893              		.loc 2 70 54 view .LVU217
 894 00d4 1A79     		ldrb	r2, [r3, #4]	@ zero_extendqisi2
 895 00d6 3AB1     		cbz	r2, .L40
 896              	.LVL66:
 897              		.loc 2 70 54 view .LVU218
 898              	.LBE516:
 899              	.LBE515:
 139:TestTFT.cpp   ****     }
 900              		.loc 8 139 14 view .LVU219
 901 00d8 9B7A     		ldrb	r3, [r3, #10]	@ zero_extendqisi2
 902 00da 7F2B     		cmp	r3, #127
 903 00dc 04D1     		bne	.L40
 139:TestTFT.cpp   ****     }
 904              		.loc 8 139 45 is_stmt 1 discriminator 1 view .LVU220
 139:TestTFT.cpp   ****     }
 905              		.loc 8 139 59 is_stmt 0 discriminator 1 view .LVU221
 906 00de 0623     		movs	r3, #6
 907 00e0 0D4A     		ldr	r2, .L80+16
 908 00e2 1946     		mov	r1, r3
 909 00e4 1360     		str	r3, [r2]
 139:TestTFT.cpp   ****     }
 910              		.loc 8 139 64 is_stmt 1 discriminator 1 view .LVU222
 911              	.LVL67:
ARM GAS  /var/folders/s6/2bsynnl15rj0bwtb9pgx4dc00000gn/T//cc76hY55.s 			page 36


 142:TestTFT.cpp   ****         hw.PrintLine("Current Option changed to: %d", currentOption);
 912              		.loc 8 142 5 discriminator 1 view .LVU223
 913 00e6 A8E7     		b	.L33
 914              	.LVL68:
 915              	.L40:
 142:TestTFT.cpp   ****         hw.PrintLine("Current Option changed to: %d", currentOption);
 916              		.loc 8 142 5 view .LVU224
 917 00e8 002C     		cmp	r4, #0
 918 00ea B0D0     		beq	.L29
 143:TestTFT.cpp   ****         DisplayMenu();
 919              		.loc 8 143 21 is_stmt 0 view .LVU225
 920 00ec 0A4B     		ldr	r3, .L80+16
 921 00ee 1968     		ldr	r1, [r3]
 922 00f0 A3E7     		b	.L33
 923              	.LVL69:
 924              	.L78:
 135:TestTFT.cpp   ****         else if (buttonF.RisingEdge()) { currentOption = 3; menuChanged = true; }
 925              		.loc 8 135 43 is_stmt 1 discriminator 1 view .LVU226
 135:TestTFT.cpp   ****         else if (buttonF.RisingEdge()) { currentOption = 3; menuChanged = true; }
 926              		.loc 8 135 57 is_stmt 0 discriminator 1 view .LVU227
 927 00f2 0223     		movs	r3, #2
 928 00f4 084A     		ldr	r2, .L80+16
 929 00f6 1946     		mov	r1, r3
 930 00f8 1360     		str	r3, [r2]
 135:TestTFT.cpp   ****         else if (buttonF.RisingEdge()) { currentOption = 3; menuChanged = true; }
 931              		.loc 8 135 62 is_stmt 1 discriminator 1 view .LVU228
 932              	.LVL70:
 142:TestTFT.cpp   ****         hw.PrintLine("Current Option changed to: %d", currentOption);
 933              		.loc 8 142 5 discriminator 1 view .LVU229
 934 00fa 9EE7     		b	.L33
 935              	.LVL71:
 936              	.L79:
 136:TestTFT.cpp   ****         else if (buttonG.RisingEdge()) { currentOption = 4; menuChanged = true; }
 937              		.loc 8 136 42 discriminator 1 view .LVU230
 136:TestTFT.cpp   ****         else if (buttonG.RisingEdge()) { currentOption = 4; menuChanged = true; }
 938              		.loc 8 136 56 is_stmt 0 discriminator 1 view .LVU231
 939 00fc 0323     		movs	r3, #3
 940 00fe 064A     		ldr	r2, .L80+16
 941 0100 1946     		mov	r1, r3
 942 0102 1360     		str	r3, [r2]
 136:TestTFT.cpp   ****         else if (buttonG.RisingEdge()) { currentOption = 4; menuChanged = true; }
 943              		.loc 8 136 61 is_stmt 1 discriminator 1 view .LVU232
 944              	.LVL72:
 142:TestTFT.cpp   ****         hw.PrintLine("Current Option changed to: %d", currentOption);
 945              		.loc 8 142 5 discriminator 1 view .LVU233
 946 0104 99E7     		b	.L33
 947              	.L81:
 948 0106 00BF     		.align	2
 949              	.L80:
 950 0108 00000000 		.word	currentState
 951 010c 00000000 		.word	.LANCHOR6
 952 0110 00000000 		.word	.LANCHOR3
 953 0114 00000000 		.word	buttonC
 954 0118 00000000 		.word	currentOption
 955 011c 44000000 		.word	.LC3
 956 0120 00000000 		.word	buttonDm
 957 0124 00000000 		.word	.LC2
ARM GAS  /var/folders/s6/2bsynnl15rj0bwtb9pgx4dc00000gn/T//cc76hY55.s 			page 37


 958 0128 00000000 		.word	buttonEm
 959 012c 00000000 		.word	buttonF
 960 0130 00000000 		.word	buttonG
 961 0134 00000000 		.word	buttonAm
 962 0138 00000000 		.word	buttonBdim
 963              		.cfi_endproc
 964              	.LFE5021:
 966              		.section	.rodata.main.str1.4,"aMS",%progbits,1
 967              		.align	2
 968              	.LC4:
 969 0000 4D61696E 		.ascii	"Main loop starting...\000"
 969      206C6F6F 
 969      70207374 
 969      61727469 
 969      6E672E2E 
 970 0016 0000     		.align	2
 971              	.LC5:
 972 0018 43204D61 		.ascii	"C Major triggered\000"
 972      6A6F7220 
 972      74726967 
 972      67657265 
 972      6400
 973 002a 0000     		.align	2
 974              	.LC6:
 975 002c 44204D69 		.ascii	"D Minor triggered\000"
 975      6E6F7220 
 975      74726967 
 975      67657265 
 975      6400
 976 003e 0000     		.align	2
 977              	.LC7:
 978 0040 45204D69 		.ascii	"E Minor triggered\000"
 978      6E6F7220 
 978      74726967 
 978      67657265 
 978      6400
 979 0052 0000     		.align	2
 980              	.LC8:
 981 0054 46204D61 		.ascii	"F Major triggered\000"
 981      6A6F7220 
 981      74726967 
 981      67657265 
 981      6400
 982 0066 0000     		.align	2
 983              	.LC9:
 984 0068 47204D61 		.ascii	"G Major triggered\000"
 984      6A6F7220 
 984      74726967 
 984      67657265 
 984      6400
 985 007a 0000     		.align	2
 986              	.LC10:
 987 007c 41204D69 		.ascii	"A Minor triggered\000"
 987      6E6F7220 
 987      74726967 
 987      67657265 
 987      6400
ARM GAS  /var/folders/s6/2bsynnl15rj0bwtb9pgx4dc00000gn/T//cc76hY55.s 			page 38


 988 008e 0000     		.align	2
 989              	.LC11:
 990 0090 42204469 		.ascii	"B Diminished triggered\000"
 990      6D696E69 
 990      73686564 
 990      20747269 
 990      67676572 
 991 00a7 00       		.align	2
 992              	.LC12:
 993 00a8 63616E6E 		.ascii	"cannot create std::deque larger than max_size()\000"
 993      6F742063 
 993      72656174 
 993      65207374 
 993      643A3A64 
 994              		.align	2
 995              	.LC13:
 996 00d8 42504D20 		.ascii	"BPM adjusted: %d\000"
 996      61646A75 
 996      73746564 
 996      3A202564 
 996      00
 997              		.section	.text.startup.main,"ax",%progbits
 998              		.align	1
 999              		.p2align 2,,3
 1000              		.global	main
 1001              		.syntax unified
 1002              		.thumb
 1003              		.thumb_func
 1005              	main:
 1006              	.LFB5022:
 147:TestTFT.cpp   **** 
 148:TestTFT.cpp   **** 
 149:TestTFT.cpp   **** 
 150:TestTFT.cpp   **** 
 151:TestTFT.cpp   **** int main(void)
 152:TestTFT.cpp   **** {
 1007              		.loc 8 152 1 view -0
 1008              		.cfi_startproc
 1009              		@ args = 0, pretend = 0, frame = 8
 1010              		@ frame_needed = 0, uses_anonymous_args = 0
 153:TestTFT.cpp   ****     InitHardware();
 1011              		.loc 8 153 5 view .LVU235
 152:TestTFT.cpp   ****     InitHardware();
 1012              		.loc 8 152 1 is_stmt 0 view .LVU236
 1013 0000 2DE9F04F 		push	{r4, r5, r6, r7, r8, r9, r10, fp, lr}
 1014              		.cfi_def_cfa_offset 36
 1015              		.cfi_offset 4, -36
 1016              		.cfi_offset 5, -32
 1017              		.cfi_offset 6, -28
 1018              		.cfi_offset 7, -24
 1019              		.cfi_offset 8, -20
 1020              		.cfi_offset 9, -16
 1021              		.cfi_offset 10, -12
 1022              		.cfi_offset 11, -8
 1023              		.cfi_offset 14, -4
 1024 0004 83B0     		sub	sp, sp, #12
 1025              		.cfi_def_cfa_offset 48
ARM GAS  /var/folders/s6/2bsynnl15rj0bwtb9pgx4dc00000gn/T//cc76hY55.s 			page 39


 1026 0006 B14C     		ldr	r4, .L143
 1027              		.loc 8 153 17 view .LVU237
 1028 0008 FFF7FEFF 		bl	_Z12InitHardwarev
 1029              	.LVL73:
 154:TestTFT.cpp   ****     InitMenu();
 1030              		.loc 8 154 5 is_stmt 1 view .LVU238
 1031 000c B04F     		ldr	r7, .L143+4
 1032              		.loc 8 154 13 is_stmt 0 view .LVU239
 1033 000e FFF7FEFF 		bl	_Z8InitMenuv
 1034              	.LVL74:
 155:TestTFT.cpp   ****     DisplayMenu();
 1035              		.loc 8 155 5 is_stmt 1 view .LVU240
 1036 0012 B04D     		ldr	r5, .L143+8
 1037              		.loc 8 155 16 is_stmt 0 view .LVU241
 1038 0014 FFF7FEFF 		bl	_Z11DisplayMenuv
 1039              	.LVL75:
 156:TestTFT.cpp   **** 
 157:TestTFT.cpp   ****     hw.PrintLine("Main loop starting...");
 1040              		.loc 8 157 5 is_stmt 1 view .LVU242
 1041              	.LBB648:
 1042              	.LBI648:
 126:./libDaisy/src/daisy_seed.h ****     {
 1043              		.loc 3 126 17 view .LVU243
 1044              	.LBB649:
 1045              		.loc 3 128 23 is_stmt 0 view .LVU244
 1046 0018 AF48     		ldr	r0, .L143+12
 1047 001a B04E     		ldr	r6, .L143+16
 1048 001c DFF80C83 		ldr	r8, .L143+96
 1049 0020 FFF7FEFF 		bl	_ZN5daisy6LoggerILNS_17LoggerDestinationE1EE9PrintLineEPKcz
 1050              	.LVL76:
 129:./libDaisy/src/daisy_seed.h ****     }
 1051              		.loc 3 129 5 view .LVU245
 1052 0024 2DE0     		b	.L106
 1053              	.LVL77:
 1054              	.L132:
 1055              		.loc 3 129 5 view .LVU246
 1056              	.LBE649:
 1057              	.LBE648:
 1058              	.LBB650:
 158:TestTFT.cpp   **** 
 159:TestTFT.cpp   ****    while (1)
 160:TestTFT.cpp   ****     {
 161:TestTFT.cpp   ****         UpdateButtons();
 162:TestTFT.cpp   ****         encoder.Debounce();
 163:TestTFT.cpp   **** 
 164:TestTFT.cpp   ****         UpdateMenu();
 165:TestTFT.cpp   **** 
 166:TestTFT.cpp   **** 
 167:TestTFT.cpp   ****         // Handle sound triggering for all sounds
 168:TestTFT.cpp   ****         if (currentState == CHORD_SELECTION)
 169:TestTFT.cpp   ****         {
 170:TestTFT.cpp   ****             if (buttonC.Pressed()) {
 171:TestTFT.cpp   ****                 spirits.Trigger(0);
 172:TestTFT.cpp   ****                 hw.PrintLine("C Major triggered");
 173:TestTFT.cpp   ****             } else if (buttonDm.Pressed()) {
 174:TestTFT.cpp   ****                 spirits.Trigger(1);
 175:TestTFT.cpp   ****                 hw.PrintLine("D Minor triggered");
ARM GAS  /var/folders/s6/2bsynnl15rj0bwtb9pgx4dc00000gn/T//cc76hY55.s 			page 40


 176:TestTFT.cpp   ****             } else if (buttonEm.Pressed()) {
 177:TestTFT.cpp   ****                 spirits.Trigger(2);
 178:TestTFT.cpp   ****                 hw.PrintLine("E Minor triggered");
 179:TestTFT.cpp   ****             } else if (buttonF.Pressed()) {
 180:TestTFT.cpp   ****                 spirits.Trigger(3);
 181:TestTFT.cpp   ****                 hw.PrintLine("F Major triggered");
 182:TestTFT.cpp   ****             } else if (buttonG.Pressed()) {
 183:TestTFT.cpp   ****                 spirits.Trigger(4);
 184:TestTFT.cpp   ****                 hw.PrintLine("G Major triggered");
 185:TestTFT.cpp   ****             } else if (buttonAm.Pressed()) {
 186:TestTFT.cpp   ****                 spirits.Trigger(5);
 187:TestTFT.cpp   ****                 hw.PrintLine("A Minor triggered");
 188:TestTFT.cpp   ****             } else if (buttonBdim.Pressed()) {
 189:TestTFT.cpp   ****                 spirits.Trigger(6);
 190:TestTFT.cpp   ****                 hw.PrintLine("B Diminished triggered");
 191:TestTFT.cpp   ****             }
 192:TestTFT.cpp   ****         }
 193:TestTFT.cpp   **** 
 194:TestTFT.cpp   **** 
 195:TestTFT.cpp   **** 
 196:TestTFT.cpp   **** 
 197:TestTFT.cpp   **** 
 198:TestTFT.cpp   ****         if (button2.RisingEdge() || encoder.RisingEdge())
 1059              		.loc 8 198 34 view .LVU247
 1060 0026 BB7A     		ldrb	r3, [r7, #10]	@ zero_extendqisi2
 1061 0028 7F2B     		cmp	r3, #127
 1062 002a 37D1     		bne	.L90
 199:TestTFT.cpp   ****         {
 200:TestTFT.cpp   ****             HandleMenuSelection(encoder.RisingEdge());
 1063              		.loc 8 200 13 is_stmt 1 discriminator 3 view .LVU248
 1064              	.LVL78:
 1065              	.LBB651:
 1066              	.LBI651:
  37:./libDaisy/src/hid/encoder.h **** 
  38:./libDaisy/src/hid/encoder.h ****     /** Returns true if the encoder was just pressed. */
  39:./libDaisy/src/hid/encoder.h ****     inline bool RisingEdge() const { return sw_.RisingEdge(); }
 1067              		.loc 1 39 17 discriminator 3 view .LVU249
 1068              	.LBE651:
 1069              	.LBE650:
 1070              		.loc 1 39 38 discriminator 3 view .LVU250
 1071              	.LBB828:
 1072              	.LBB656:
 1073              	.LBB652:
 1074              	.LBI652:
 1075              		.loc 2 70 17 discriminator 3 view .LVU251
 1076              	.LBB653:
 1077              		.loc 2 70 38 discriminator 3 view .LVU252
 1078              		.loc 2 70 45 is_stmt 0 discriminator 3 view .LVU253
 1079 002c 287B     		ldrb	r0, [r5, #12]	@ zero_extendqisi2
 1080              		.loc 2 70 54 discriminator 3 view .LVU254
 1081 002e 0028     		cmp	r0, #0
 1082 0030 40F09580 		bne	.L129
 1083              	.L94:
 1084              	.LVL79:
 1085              		.loc 2 70 54 discriminator 3 view .LVU255
 1086              	.LBE653:
 1087              	.LBE652:
ARM GAS  /var/folders/s6/2bsynnl15rj0bwtb9pgx4dc00000gn/T//cc76hY55.s 			page 41


 1088              	.LBE656:
 1089              		.loc 8 200 32 view .LVU256
 1090 0034 FFF7FEFF 		bl	_Z19HandleMenuSelectionb
 1091              	.LVL80:
 1092              	.L92:
 201:TestTFT.cpp   ****         }
 202:TestTFT.cpp   **** 
 203:TestTFT.cpp   ****         // Handle button1 for Visuals
 204:TestTFT.cpp   ****         if (button1.RisingEdge())
 1093              		.loc 8 204 9 is_stmt 1 view .LVU257
 1094              	.LBB657:
 1095              	.LBI657:
 1096              		.loc 2 70 17 view .LVU258
 1097              	.LBB658:
 1098              		.loc 2 70 38 view .LVU259
 1099              		.loc 2 70 54 is_stmt 0 view .LVU260
 1100 0038 3379     		ldrb	r3, [r6, #4]	@ zero_extendqisi2
 1101 003a 13B1     		cbz	r3, .L95
 1102              	.LVL81:
 1103              		.loc 2 70 54 view .LVU261
 1104              	.LBE658:
 1105              	.LBE657:
 1106              		.loc 8 204 9 view .LVU262
 1107 003c B37A     		ldrb	r3, [r6, #10]	@ zero_extendqisi2
 1108 003e 7F2B     		cmp	r3, #127
 1109 0040 5DD0     		beq	.L130
 1110              	.L95:
 205:TestTFT.cpp   ****         {
 206:TestTFT.cpp   ****             stateStack.push(currentState);
 207:TestTFT.cpp   ****             currentState = VISUALS;
 208:TestTFT.cpp   ****             DisplayMenu();
 209:TestTFT.cpp   ****         }
 210:TestTFT.cpp   **** 
 211:TestTFT.cpp   ****         HandleBackButton();
 1111              		.loc 8 211 9 is_stmt 1 view .LVU263
 1112              		.loc 8 211 25 is_stmt 0 view .LVU264
 1113 0042 FFF7FEFF 		bl	_Z16HandleBackButtonv
 1114              	.LVL82:
 212:TestTFT.cpp   ****         // Special handling for BPM adjustment (now part of Global Settings)
 213:TestTFT.cpp   ****         if (currentState == GLOBAL_SETTINGS && currentOption == 0) // Assuming BPM is the first opt
 1115              		.loc 8 213 9 is_stmt 1 view .LVU265
 1116              	.LBB659:
 1117 0046 2378     		ldrb	r3, [r4]	@ zero_extendqisi2
 1118 0048 042B     		cmp	r3, #4
 1119 004a 17D1     		bne	.L105
 1120              		.loc 8 213 62 is_stmt 0 discriminator 1 view .LVU266
 1121 004c A44B     		ldr	r3, .L143+20
 1122              		.loc 8 213 45 discriminator 1 view .LVU267
 1123 004e 1B68     		ldr	r3, [r3]
 1124 0050 A3B9     		cbnz	r3, .L105
 1125              	.LBB660:
 214:TestTFT.cpp   ****         {
 215:TestTFT.cpp   ****             int increment = -encoder.Increment();
 1126              		.loc 8 215 13 is_stmt 1 view .LVU268
 1127              	.LVL83:
 1128              	.LBB661:
 1129              	.LBI661:
ARM GAS  /var/folders/s6/2bsynnl15rj0bwtb9pgx4dc00000gn/T//cc76hY55.s 			page 42


  36:./libDaisy/src/hid/encoder.h **** 
 1130              		.loc 1 36 20 view .LVU269
 1131              	.LBB662:
  36:./libDaisy/src/hid/encoder.h **** 
 1132              		.loc 1 36 40 view .LVU270
  36:./libDaisy/src/hid/encoder.h **** 
 1133              		.loc 1 36 56 is_stmt 0 view .LVU271
 1134 0052 2B79     		ldrb	r3, [r5, #4]	@ zero_extendqisi2
 1135 0054 93B1     		cbz	r3, .L105
 1136 0056 6B6A     		ldr	r3, [r5, #36]
 1137              	.LVL84:
  36:./libDaisy/src/hid/encoder.h **** 
 1138              		.loc 1 36 56 view .LVU272
 1139              	.LBE662:
 1140              	.LBE661:
 216:TestTFT.cpp   ****             if (increment != 0)
 1141              		.loc 8 216 13 is_stmt 1 view .LVU273
 1142 0058 83B1     		cbz	r3, .L105
 217:TestTFT.cpp   ****             {
 218:TestTFT.cpp   ****                 projectBPM = std::max(20, std::min(300, projectBPM + increment));
 1143              		.loc 8 218 17 view .LVU274
 1144              	.LVL85:
 1145              		.loc 8 218 68 is_stmt 0 view .LVU275
 1146 005a A24A     		ldr	r2, .L143+24
 1147              	.LBB663:
 1148              	.LBB664:
 128:./libDaisy/src/daisy_seed.h ****     }
 1149              		.loc 3 128 23 view .LVU276
 1150 005c A248     		ldr	r0, .L143+28
 1151 005e 1168     		ldr	r1, [r2]
 1152 0060 C91A     		subs	r1, r1, r3
 1153 0062 1429     		cmp	r1, #20
 1154 0064 B8BF     		it	lt
 1155 0066 1421     		movlt	r1, #20
 1156 0068 B1F5967F 		cmp	r1, #300
 1157 006c A8BF     		it	ge
 1158 006e 4FF49671 		movge	r1, #300
 1159              	.LVL86:
 128:./libDaisy/src/daisy_seed.h ****     }
 1160              		.loc 3 128 23 view .LVU277
 1161              	.LBE664:
 1162              	.LBE663:
 1163              		.loc 8 218 28 view .LVU278
 1164 0072 1160     		str	r1, [r2]
 219:TestTFT.cpp   ****                 hw.PrintLine("BPM adjusted: %d", projectBPM); //bpm set to 120 upon initialization
 1165              		.loc 8 219 17 is_stmt 1 view .LVU279
 1166              	.LVL87:
 1167              	.LBB666:
 1168              	.LBI663:
 126:./libDaisy/src/daisy_seed.h ****     {
 1169              		.loc 3 126 17 view .LVU280
 1170              	.LBB665:
 128:./libDaisy/src/daisy_seed.h ****     }
 1171              		.loc 3 128 23 is_stmt 0 view .LVU281
 1172 0074 FFF7FEFF 		bl	_ZN5daisy6LoggerILNS_17LoggerDestinationE1EE9PrintLineEPKcz
 1173              	.LVL88:
 128:./libDaisy/src/daisy_seed.h ****     }
ARM GAS  /var/folders/s6/2bsynnl15rj0bwtb9pgx4dc00000gn/T//cc76hY55.s 			page 43


 1174              		.loc 3 128 23 view .LVU282
 1175              	.LBE665:
 1176              	.LBE666:
 220:TestTFT.cpp   ****                 DisplayMenu();
 1177              		.loc 8 220 17 is_stmt 1 view .LVU283
 1178              		.loc 8 220 28 is_stmt 0 view .LVU284
 1179 0078 FFF7FEFF 		bl	_Z11DisplayMenuv
 1180              	.LVL89:
 1181              	.L105:
 1182              		.loc 8 220 28 view .LVU285
 1183              	.LBE660:
 1184              	.LBE659:
 221:TestTFT.cpp   ****             }
 222:TestTFT.cpp   ****         }
 223:TestTFT.cpp   **** 
 224:TestTFT.cpp   **** 
 225:TestTFT.cpp   ****         System::DelayUs(50);
 1185              		.loc 8 225 9 is_stmt 1 view .LVU286
 1186              		.loc 8 225 24 is_stmt 0 view .LVU287
 1187 007c 3220     		movs	r0, #50
 1188 007e FFF7FEFF 		bl	_ZN5daisy6System7DelayUsEm
 1189              	.LVL90:
 1190              	.LBE828:
 159:TestTFT.cpp   ****     {
 1191              		.loc 8 159 4 is_stmt 1 view .LVU288
 1192              	.L106:
 159:TestTFT.cpp   ****     {
 1193              		.loc 8 159 4 view .LVU289
 1194              	.LBB829:
 161:TestTFT.cpp   ****         encoder.Debounce();
 1195              		.loc 8 161 9 view .LVU290
 161:TestTFT.cpp   ****         encoder.Debounce();
 1196              		.loc 8 161 22 is_stmt 0 view .LVU291
 1197 0082 FFF7FEFF 		bl	_Z13UpdateButtonsv
 1198              	.LVL91:
 162:TestTFT.cpp   **** 
 1199              		.loc 8 162 9 is_stmt 1 view .LVU292
 162:TestTFT.cpp   **** 
 1200              		.loc 8 162 25 is_stmt 0 view .LVU293
 1201 0086 9348     		ldr	r0, .L143+8
 1202 0088 FFF7FEFF 		bl	_ZN5daisy7Encoder8DebounceEv
 1203              	.LVL92:
 164:TestTFT.cpp   **** 
 1204              		.loc 8 164 9 is_stmt 1 view .LVU294
 164:TestTFT.cpp   **** 
 1205              		.loc 8 164 19 is_stmt 0 view .LVU295
 1206 008c FFF7FEFF 		bl	_Z10UpdateMenuv
 1207              	.LVL93:
 168:TestTFT.cpp   ****         {
 1208              		.loc 8 168 9 is_stmt 1 view .LVU296
 1209 0090 2178     		ldrb	r1, [r4]	@ zero_extendqisi2
 1210 0092 0129     		cmp	r1, #1
 1211 0094 0ED0     		beq	.L131
 1212              	.L83:
 198:TestTFT.cpp   ****         {
 1213              		.loc 8 198 9 view .LVU297
 1214              	.LVL94:
ARM GAS  /var/folders/s6/2bsynnl15rj0bwtb9pgx4dc00000gn/T//cc76hY55.s 			page 44


 1215              	.LBB667:
 1216              	.LBI667:
 1217              		.loc 2 70 17 view .LVU298
 1218              	.LBB668:
 1219              		.loc 2 70 38 view .LVU299
 1220              		.loc 2 70 54 is_stmt 0 view .LVU300
 1221 0096 3B79     		ldrb	r3, [r7, #4]	@ zero_extendqisi2
 1222 0098 002B     		cmp	r3, #0
 1223 009a C4D1     		bne	.L132
 1224              	.LVL95:
 1225              	.L90:
 1226              		.loc 2 70 54 view .LVU301
 1227              	.LBE668:
 1228              	.LBE667:
 1229              	.LBB669:
 1230              	.LBI669:
 1231              		.loc 1 39 17 is_stmt 1 view .LVU302
 1232              	.LBE669:
 1233              	.LBE829:
 1234              		.loc 1 39 38 view .LVU303
 1235              	.LBB830:
 1236              	.LBB674:
 1237              	.LBB670:
 1238              	.LBI670:
 1239              		.loc 2 70 17 view .LVU304
 1240              	.LBB671:
 1241              		.loc 2 70 38 view .LVU305
 1242              		.loc 2 70 54 is_stmt 0 view .LVU306
 1243 009c 2B7B     		ldrb	r3, [r5, #12]	@ zero_extendqisi2
 1244 009e 002B     		cmp	r3, #0
 1245 00a0 CAD0     		beq	.L92
 1246              		.loc 2 70 56 view .LVU307
 1247 00a2 A87C     		ldrb	r0, [r5, #18]	@ zero_extendqisi2
 1248              	.LVL96:
 1249              		.loc 2 70 56 view .LVU308
 1250              	.LBE671:
 1251              	.LBE670:
 1252              	.LBE674:
 198:TestTFT.cpp   ****         {
 1253              		.loc 8 198 34 view .LVU309
 1254 00a4 7F28     		cmp	r0, #127
 1255 00a6 C7D1     		bne	.L92
 1256              	.L93:
 1257              	.LVL97:
 1258              	.LBB675:
 1259              	.LBB655:
 1260              	.LBB654:
 1261              		.loc 2 70 54 view .LVU310
 1262 00a8 A0F17F00 		sub	r0, #127
 1263 00ac B0FA80F0 		clz	r0, r0
 1264 00b0 4009     		lsrs	r0, r0, #5
 1265 00b2 BFE7     		b	.L94
 1266              	.LVL98:
 1267              	.L131:
 1268              		.loc 2 70 54 view .LVU311
 1269              	.LBE654:
 1270              	.LBE655:
ARM GAS  /var/folders/s6/2bsynnl15rj0bwtb9pgx4dc00000gn/T//cc76hY55.s 			page 45


 1271              	.LBE675:
 170:TestTFT.cpp   ****                 spirits.Trigger(0);
 1272              		.loc 8 170 13 is_stmt 1 view .LVU312
 1273              	.LBB676:
 1274              	.LBI676:
  71:./libDaisy/src/hid/switch.h **** 
  72:./libDaisy/src/hid/switch.h ****     /** \return true if the button was just released */
  73:./libDaisy/src/hid/switch.h ****     inline bool FallingEdge() const
  74:./libDaisy/src/hid/switch.h ****     {
  75:./libDaisy/src/hid/switch.h ****         return updated_ ? state_ == 0x80 : false;
  76:./libDaisy/src/hid/switch.h ****     }
  77:./libDaisy/src/hid/switch.h **** 
  78:./libDaisy/src/hid/switch.h ****     /** \return true if the button is held down (or if the toggle is on) */
  79:./libDaisy/src/hid/switch.h ****     inline bool Pressed() const { return state_ == 0xff; }
 1275              		.loc 2 79 17 view .LVU313
 1276              	.LBB677:
 1277              		.loc 2 79 35 view .LVU314
 1278              		.loc 2 79 42 is_stmt 0 view .LVU315
 1279 00b4 8D4B     		ldr	r3, .L143+32
 1280              	.LBE677:
 1281              	.LBE676:
 170:TestTFT.cpp   ****                 spirits.Trigger(0);
 1282              		.loc 8 170 13 view .LVU316
 1283 00b6 9B7A     		ldrb	r3, [r3, #10]	@ zero_extendqisi2
 1284 00b8 FF2B     		cmp	r3, #255
 1285 00ba 31D0     		beq	.L133
 173:TestTFT.cpp   ****                 spirits.Trigger(1);
 1286              		.loc 8 173 20 is_stmt 1 view .LVU317
 1287              	.LVL99:
 1288              	.LBB678:
 1289              	.LBI678:
 1290              		.loc 2 79 17 view .LVU318
 1291              	.LBB679:
 1292              		.loc 2 79 35 view .LVU319
 1293              		.loc 2 79 42 is_stmt 0 view .LVU320
 1294 00bc 8C4B     		ldr	r3, .L143+36
 1295              	.LBE679:
 1296              	.LBE678:
 173:TestTFT.cpp   ****                 spirits.Trigger(1);
 1297              		.loc 8 173 20 view .LVU321
 1298 00be 9B7A     		ldrb	r3, [r3, #10]	@ zero_extendqisi2
 1299 00c0 FF2B     		cmp	r3, #255
 1300 00c2 35D0     		beq	.L134
 176:TestTFT.cpp   ****                 spirits.Trigger(2);
 1301              		.loc 8 176 20 is_stmt 1 view .LVU322
 1302              	.LVL100:
 1303              	.LBB680:
 1304              	.LBI680:
 1305              		.loc 2 79 17 view .LVU323
 1306              	.LBB681:
 1307              		.loc 2 79 35 view .LVU324
 1308              		.loc 2 79 42 is_stmt 0 view .LVU325
 1309 00c4 8B4B     		ldr	r3, .L143+40
 1310              	.LBE681:
 1311              	.LBE680:
 176:TestTFT.cpp   ****                 spirits.Trigger(2);
 1312              		.loc 8 176 20 view .LVU326
ARM GAS  /var/folders/s6/2bsynnl15rj0bwtb9pgx4dc00000gn/T//cc76hY55.s 			page 46


 1313 00c6 9B7A     		ldrb	r3, [r3, #10]	@ zero_extendqisi2
 1314 00c8 FF2B     		cmp	r3, #255
 1315 00ca 38D0     		beq	.L135
 179:TestTFT.cpp   ****                 spirits.Trigger(3);
 1316              		.loc 8 179 20 is_stmt 1 view .LVU327
 1317              	.LVL101:
 1318              	.LBB682:
 1319              	.LBI682:
 1320              		.loc 2 79 17 view .LVU328
 1321              	.LBB683:
 1322              		.loc 2 79 35 view .LVU329
 1323              		.loc 2 79 42 is_stmt 0 view .LVU330
 1324 00cc 8A4B     		ldr	r3, .L143+44
 1325              	.LBE683:
 1326              	.LBE682:
 179:TestTFT.cpp   ****                 spirits.Trigger(3);
 1327              		.loc 8 179 20 view .LVU331
 1328 00ce 9B7A     		ldrb	r3, [r3, #10]	@ zero_extendqisi2
 1329 00d0 FF2B     		cmp	r3, #255
 1330 00d2 3CD0     		beq	.L136
 182:TestTFT.cpp   ****                 spirits.Trigger(4);
 1331              		.loc 8 182 20 is_stmt 1 view .LVU332
 1332              	.LVL102:
 1333              	.LBB684:
 1334              	.LBI684:
 1335              		.loc 2 79 17 view .LVU333
 1336              	.LBB685:
 1337              		.loc 2 79 35 view .LVU334
 1338              		.loc 2 79 42 is_stmt 0 view .LVU335
 1339 00d4 894B     		ldr	r3, .L143+48
 1340              	.LBE685:
 1341              	.LBE684:
 182:TestTFT.cpp   ****                 spirits.Trigger(4);
 1342              		.loc 8 182 20 view .LVU336
 1343 00d6 9B7A     		ldrb	r3, [r3, #10]	@ zero_extendqisi2
 1344 00d8 FF2B     		cmp	r3, #255
 1345 00da 7DD0     		beq	.L137
 185:TestTFT.cpp   ****                 spirits.Trigger(5);
 1346              		.loc 8 185 20 is_stmt 1 view .LVU337
 1347              	.LVL103:
 1348              	.LBB686:
 1349              	.LBI686:
 1350              		.loc 2 79 17 view .LVU338
 1351              	.LBB687:
 1352              		.loc 2 79 35 view .LVU339
 1353              		.loc 2 79 42 is_stmt 0 view .LVU340
 1354 00dc 884B     		ldr	r3, .L143+52
 1355              	.LBE687:
 1356              	.LBE686:
 185:TestTFT.cpp   ****                 spirits.Trigger(5);
 1357              		.loc 8 185 20 view .LVU341
 1358 00de 9B7A     		ldrb	r3, [r3, #10]	@ zero_extendqisi2
 1359 00e0 FF2B     		cmp	r3, #255
 1360 00e2 00F08180 		beq	.L138
 188:TestTFT.cpp   ****                 spirits.Trigger(6);
 1361              		.loc 8 188 20 is_stmt 1 view .LVU342
 1362              	.LVL104:
ARM GAS  /var/folders/s6/2bsynnl15rj0bwtb9pgx4dc00000gn/T//cc76hY55.s 			page 47


 1363              	.LBB688:
 1364              	.LBI688:
 1365              		.loc 2 79 17 view .LVU343
 1366              	.LBB689:
 1367              		.loc 2 79 35 view .LVU344
 1368              		.loc 2 79 42 is_stmt 0 view .LVU345
 1369 00e6 874B     		ldr	r3, .L143+56
 1370              	.LBE689:
 1371              	.LBE688:
 188:TestTFT.cpp   ****                 spirits.Trigger(6);
 1372              		.loc 8 188 20 view .LVU346
 1373 00e8 9B7A     		ldrb	r3, [r3, #10]	@ zero_extendqisi2
 1374 00ea FF2B     		cmp	r3, #255
 1375 00ec D3D1     		bne	.L83
 189:TestTFT.cpp   ****                 hw.PrintLine("B Diminished triggered");
 1376              		.loc 8 189 17 is_stmt 1 view .LVU347
 189:TestTFT.cpp   ****                 hw.PrintLine("B Diminished triggered");
 1377              		.loc 8 189 32 is_stmt 0 view .LVU348
 1378 00ee 8648     		ldr	r0, .L143+60
 1379 00f0 0621     		movs	r1, #6
 1380 00f2 FFF7FEFF 		bl	_ZN7Spirits7TriggerEi
 1381              	.LVL105:
 190:TestTFT.cpp   ****             }
 1382              		.loc 8 190 17 is_stmt 1 view .LVU349
 1383              	.LBB690:
 1384              	.LBI690:
 126:./libDaisy/src/daisy_seed.h ****     {
 1385              		.loc 3 126 17 view .LVU350
 1386              	.LBB691:
 128:./libDaisy/src/daisy_seed.h ****     }
 1387              		.loc 3 128 23 is_stmt 0 view .LVU351
 1388 00f6 8548     		ldr	r0, .L143+64
 1389 00f8 FFF7FEFF 		bl	_ZN5daisy6LoggerILNS_17LoggerDestinationE1EE9PrintLineEPKcz
 1390              	.LVL106:
 1391              		.loc 3 129 5 view .LVU352
 1392 00fc CBE7     		b	.L83
 1393              	.LVL107:
 1394              	.L130:
 1395              		.loc 3 129 5 view .LVU353
 1396              	.LBE691:
 1397              	.LBE690:
 206:TestTFT.cpp   ****             currentState = VISUALS;
 1398              		.loc 8 206 13 is_stmt 1 view .LVU354
 1399              	.LBB692:
 1400              	.LBI692:
 1401              		.file 13 "/Library/DaisyToolchain/0.2.0/arm/arm-none-eabi/include/c++/10.3.1/bits/stl_stack.h"
   1:/Library/DaisyToolchain/0.2.0/arm/arm-none-eabi/include/c++/10.3.1/bits/stl_stack.h **** // Stack implementation -*- C++ -*-
   2:/Library/DaisyToolchain/0.2.0/arm/arm-none-eabi/include/c++/10.3.1/bits/stl_stack.h **** 
   3:/Library/DaisyToolchain/0.2.0/arm/arm-none-eabi/include/c++/10.3.1/bits/stl_stack.h **** // Copyright (C) 2001-2020 Free Software Foundation, Inc.
   4:/Library/DaisyToolchain/0.2.0/arm/arm-none-eabi/include/c++/10.3.1/bits/stl_stack.h **** //
   5:/Library/DaisyToolchain/0.2.0/arm/arm-none-eabi/include/c++/10.3.1/bits/stl_stack.h **** // This file is part of the GNU ISO C++ Library.  This library is free
   6:/Library/DaisyToolchain/0.2.0/arm/arm-none-eabi/include/c++/10.3.1/bits/stl_stack.h **** // software; you can redistribute it and/or modify it under the
   7:/Library/DaisyToolchain/0.2.0/arm/arm-none-eabi/include/c++/10.3.1/bits/stl_stack.h **** // terms of the GNU General Public License as published by the
   8:/Library/DaisyToolchain/0.2.0/arm/arm-none-eabi/include/c++/10.3.1/bits/stl_stack.h **** // Free Software Foundation; either version 3, or (at your option)
   9:/Library/DaisyToolchain/0.2.0/arm/arm-none-eabi/include/c++/10.3.1/bits/stl_stack.h **** // any later version.
  10:/Library/DaisyToolchain/0.2.0/arm/arm-none-eabi/include/c++/10.3.1/bits/stl_stack.h **** 
  11:/Library/DaisyToolchain/0.2.0/arm/arm-none-eabi/include/c++/10.3.1/bits/stl_stack.h **** // This library is distributed in the hope that it will be useful,
ARM GAS  /var/folders/s6/2bsynnl15rj0bwtb9pgx4dc00000gn/T//cc76hY55.s 			page 48


  12:/Library/DaisyToolchain/0.2.0/arm/arm-none-eabi/include/c++/10.3.1/bits/stl_stack.h **** // but WITHOUT ANY WARRANTY; without even the implied warranty of
  13:/Library/DaisyToolchain/0.2.0/arm/arm-none-eabi/include/c++/10.3.1/bits/stl_stack.h **** // MERCHANTABILITY or FITNESS FOR A PARTICULAR PURPOSE.  See the
  14:/Library/DaisyToolchain/0.2.0/arm/arm-none-eabi/include/c++/10.3.1/bits/stl_stack.h **** // GNU General Public License for more details.
  15:/Library/DaisyToolchain/0.2.0/arm/arm-none-eabi/include/c++/10.3.1/bits/stl_stack.h **** 
  16:/Library/DaisyToolchain/0.2.0/arm/arm-none-eabi/include/c++/10.3.1/bits/stl_stack.h **** // Under Section 7 of GPL version 3, you are granted additional
  17:/Library/DaisyToolchain/0.2.0/arm/arm-none-eabi/include/c++/10.3.1/bits/stl_stack.h **** // permissions described in the GCC Runtime Library Exception, version
  18:/Library/DaisyToolchain/0.2.0/arm/arm-none-eabi/include/c++/10.3.1/bits/stl_stack.h **** // 3.1, as published by the Free Software Foundation.
  19:/Library/DaisyToolchain/0.2.0/arm/arm-none-eabi/include/c++/10.3.1/bits/stl_stack.h **** 
  20:/Library/DaisyToolchain/0.2.0/arm/arm-none-eabi/include/c++/10.3.1/bits/stl_stack.h **** // You should have received a copy of the GNU General Public License and
  21:/Library/DaisyToolchain/0.2.0/arm/arm-none-eabi/include/c++/10.3.1/bits/stl_stack.h **** // a copy of the GCC Runtime Library Exception along with this program;
  22:/Library/DaisyToolchain/0.2.0/arm/arm-none-eabi/include/c++/10.3.1/bits/stl_stack.h **** // see the files COPYING3 and COPYING.RUNTIME respectively.  If not, see
  23:/Library/DaisyToolchain/0.2.0/arm/arm-none-eabi/include/c++/10.3.1/bits/stl_stack.h **** // <http://www.gnu.org/licenses/>.
  24:/Library/DaisyToolchain/0.2.0/arm/arm-none-eabi/include/c++/10.3.1/bits/stl_stack.h **** 
  25:/Library/DaisyToolchain/0.2.0/arm/arm-none-eabi/include/c++/10.3.1/bits/stl_stack.h **** /*
  26:/Library/DaisyToolchain/0.2.0/arm/arm-none-eabi/include/c++/10.3.1/bits/stl_stack.h ****  *
  27:/Library/DaisyToolchain/0.2.0/arm/arm-none-eabi/include/c++/10.3.1/bits/stl_stack.h ****  * Copyright (c) 1994
  28:/Library/DaisyToolchain/0.2.0/arm/arm-none-eabi/include/c++/10.3.1/bits/stl_stack.h ****  * Hewlett-Packard Company
  29:/Library/DaisyToolchain/0.2.0/arm/arm-none-eabi/include/c++/10.3.1/bits/stl_stack.h ****  *
  30:/Library/DaisyToolchain/0.2.0/arm/arm-none-eabi/include/c++/10.3.1/bits/stl_stack.h ****  * Permission to use, copy, modify, distribute and sell this software
  31:/Library/DaisyToolchain/0.2.0/arm/arm-none-eabi/include/c++/10.3.1/bits/stl_stack.h ****  * and its documentation for any purpose is hereby granted without fee,
  32:/Library/DaisyToolchain/0.2.0/arm/arm-none-eabi/include/c++/10.3.1/bits/stl_stack.h ****  * provided that the above copyright notice appear in all copies and
  33:/Library/DaisyToolchain/0.2.0/arm/arm-none-eabi/include/c++/10.3.1/bits/stl_stack.h ****  * that both that copyright notice and this permission notice appear
  34:/Library/DaisyToolchain/0.2.0/arm/arm-none-eabi/include/c++/10.3.1/bits/stl_stack.h ****  * in supporting documentation.  Hewlett-Packard Company makes no
  35:/Library/DaisyToolchain/0.2.0/arm/arm-none-eabi/include/c++/10.3.1/bits/stl_stack.h ****  * representations about the suitability of this software for any
  36:/Library/DaisyToolchain/0.2.0/arm/arm-none-eabi/include/c++/10.3.1/bits/stl_stack.h ****  * purpose.  It is provided "as is" without express or implied warranty.
  37:/Library/DaisyToolchain/0.2.0/arm/arm-none-eabi/include/c++/10.3.1/bits/stl_stack.h ****  *
  38:/Library/DaisyToolchain/0.2.0/arm/arm-none-eabi/include/c++/10.3.1/bits/stl_stack.h ****  *
  39:/Library/DaisyToolchain/0.2.0/arm/arm-none-eabi/include/c++/10.3.1/bits/stl_stack.h ****  * Copyright (c) 1996,1997
  40:/Library/DaisyToolchain/0.2.0/arm/arm-none-eabi/include/c++/10.3.1/bits/stl_stack.h ****  * Silicon Graphics Computer Systems, Inc.
  41:/Library/DaisyToolchain/0.2.0/arm/arm-none-eabi/include/c++/10.3.1/bits/stl_stack.h ****  *
  42:/Library/DaisyToolchain/0.2.0/arm/arm-none-eabi/include/c++/10.3.1/bits/stl_stack.h ****  * Permission to use, copy, modify, distribute and sell this software
  43:/Library/DaisyToolchain/0.2.0/arm/arm-none-eabi/include/c++/10.3.1/bits/stl_stack.h ****  * and its documentation for any purpose is hereby granted without fee,
  44:/Library/DaisyToolchain/0.2.0/arm/arm-none-eabi/include/c++/10.3.1/bits/stl_stack.h ****  * provided that the above copyright notice appear in all copies and
  45:/Library/DaisyToolchain/0.2.0/arm/arm-none-eabi/include/c++/10.3.1/bits/stl_stack.h ****  * that both that copyright notice and this permission notice appear
  46:/Library/DaisyToolchain/0.2.0/arm/arm-none-eabi/include/c++/10.3.1/bits/stl_stack.h ****  * in supporting documentation.  Silicon Graphics makes no
  47:/Library/DaisyToolchain/0.2.0/arm/arm-none-eabi/include/c++/10.3.1/bits/stl_stack.h ****  * representations about the suitability of this software for any
  48:/Library/DaisyToolchain/0.2.0/arm/arm-none-eabi/include/c++/10.3.1/bits/stl_stack.h ****  * purpose.  It is provided "as is" without express or implied warranty.
  49:/Library/DaisyToolchain/0.2.0/arm/arm-none-eabi/include/c++/10.3.1/bits/stl_stack.h ****  */
  50:/Library/DaisyToolchain/0.2.0/arm/arm-none-eabi/include/c++/10.3.1/bits/stl_stack.h **** 
  51:/Library/DaisyToolchain/0.2.0/arm/arm-none-eabi/include/c++/10.3.1/bits/stl_stack.h **** /** @file bits/stl_stack.h
  52:/Library/DaisyToolchain/0.2.0/arm/arm-none-eabi/include/c++/10.3.1/bits/stl_stack.h ****  *  This is an internal header file, included by other library headers.
  53:/Library/DaisyToolchain/0.2.0/arm/arm-none-eabi/include/c++/10.3.1/bits/stl_stack.h ****  *  Do not attempt to use it directly. @headername{stack}
  54:/Library/DaisyToolchain/0.2.0/arm/arm-none-eabi/include/c++/10.3.1/bits/stl_stack.h ****  */
  55:/Library/DaisyToolchain/0.2.0/arm/arm-none-eabi/include/c++/10.3.1/bits/stl_stack.h **** 
  56:/Library/DaisyToolchain/0.2.0/arm/arm-none-eabi/include/c++/10.3.1/bits/stl_stack.h **** #ifndef _STL_STACK_H
  57:/Library/DaisyToolchain/0.2.0/arm/arm-none-eabi/include/c++/10.3.1/bits/stl_stack.h **** #define _STL_STACK_H 1
  58:/Library/DaisyToolchain/0.2.0/arm/arm-none-eabi/include/c++/10.3.1/bits/stl_stack.h **** 
  59:/Library/DaisyToolchain/0.2.0/arm/arm-none-eabi/include/c++/10.3.1/bits/stl_stack.h **** #include <bits/concept_check.h>
  60:/Library/DaisyToolchain/0.2.0/arm/arm-none-eabi/include/c++/10.3.1/bits/stl_stack.h **** #include <debug/debug.h>
  61:/Library/DaisyToolchain/0.2.0/arm/arm-none-eabi/include/c++/10.3.1/bits/stl_stack.h **** #if __cplusplus >= 201103L
  62:/Library/DaisyToolchain/0.2.0/arm/arm-none-eabi/include/c++/10.3.1/bits/stl_stack.h **** # include <bits/uses_allocator.h>
  63:/Library/DaisyToolchain/0.2.0/arm/arm-none-eabi/include/c++/10.3.1/bits/stl_stack.h **** #endif
  64:/Library/DaisyToolchain/0.2.0/arm/arm-none-eabi/include/c++/10.3.1/bits/stl_stack.h **** 
  65:/Library/DaisyToolchain/0.2.0/arm/arm-none-eabi/include/c++/10.3.1/bits/stl_stack.h **** namespace std _GLIBCXX_VISIBILITY(default)
  66:/Library/DaisyToolchain/0.2.0/arm/arm-none-eabi/include/c++/10.3.1/bits/stl_stack.h **** {
  67:/Library/DaisyToolchain/0.2.0/arm/arm-none-eabi/include/c++/10.3.1/bits/stl_stack.h **** _GLIBCXX_BEGIN_NAMESPACE_VERSION
  68:/Library/DaisyToolchain/0.2.0/arm/arm-none-eabi/include/c++/10.3.1/bits/stl_stack.h **** 
ARM GAS  /var/folders/s6/2bsynnl15rj0bwtb9pgx4dc00000gn/T//cc76hY55.s 			page 49


  69:/Library/DaisyToolchain/0.2.0/arm/arm-none-eabi/include/c++/10.3.1/bits/stl_stack.h ****   /**
  70:/Library/DaisyToolchain/0.2.0/arm/arm-none-eabi/include/c++/10.3.1/bits/stl_stack.h ****    *  @brief  A standard container giving FILO behavior.
  71:/Library/DaisyToolchain/0.2.0/arm/arm-none-eabi/include/c++/10.3.1/bits/stl_stack.h ****    *
  72:/Library/DaisyToolchain/0.2.0/arm/arm-none-eabi/include/c++/10.3.1/bits/stl_stack.h ****    *  @ingroup sequences
  73:/Library/DaisyToolchain/0.2.0/arm/arm-none-eabi/include/c++/10.3.1/bits/stl_stack.h ****    *
  74:/Library/DaisyToolchain/0.2.0/arm/arm-none-eabi/include/c++/10.3.1/bits/stl_stack.h ****    *  @tparam _Tp  Type of element.
  75:/Library/DaisyToolchain/0.2.0/arm/arm-none-eabi/include/c++/10.3.1/bits/stl_stack.h ****    *  @tparam _Sequence  Type of underlying sequence, defaults to deque<_Tp>.
  76:/Library/DaisyToolchain/0.2.0/arm/arm-none-eabi/include/c++/10.3.1/bits/stl_stack.h ****    *
  77:/Library/DaisyToolchain/0.2.0/arm/arm-none-eabi/include/c++/10.3.1/bits/stl_stack.h ****    *  Meets many of the requirements of a
  78:/Library/DaisyToolchain/0.2.0/arm/arm-none-eabi/include/c++/10.3.1/bits/stl_stack.h ****    *  <a href="tables.html#65">container</a>,
  79:/Library/DaisyToolchain/0.2.0/arm/arm-none-eabi/include/c++/10.3.1/bits/stl_stack.h ****    *  but does not define anything to do with iterators.  Very few of the
  80:/Library/DaisyToolchain/0.2.0/arm/arm-none-eabi/include/c++/10.3.1/bits/stl_stack.h ****    *  other standard container interfaces are defined.
  81:/Library/DaisyToolchain/0.2.0/arm/arm-none-eabi/include/c++/10.3.1/bits/stl_stack.h ****    *
  82:/Library/DaisyToolchain/0.2.0/arm/arm-none-eabi/include/c++/10.3.1/bits/stl_stack.h ****    *  This is not a true container, but an @e adaptor.  It holds
  83:/Library/DaisyToolchain/0.2.0/arm/arm-none-eabi/include/c++/10.3.1/bits/stl_stack.h ****    *  another container, and provides a wrapper interface to that
  84:/Library/DaisyToolchain/0.2.0/arm/arm-none-eabi/include/c++/10.3.1/bits/stl_stack.h ****    *  container.  The wrapper is what enforces strict
  85:/Library/DaisyToolchain/0.2.0/arm/arm-none-eabi/include/c++/10.3.1/bits/stl_stack.h ****    *  first-in-last-out %stack behavior.
  86:/Library/DaisyToolchain/0.2.0/arm/arm-none-eabi/include/c++/10.3.1/bits/stl_stack.h ****    *
  87:/Library/DaisyToolchain/0.2.0/arm/arm-none-eabi/include/c++/10.3.1/bits/stl_stack.h ****    *  The second template parameter defines the type of the underlying
  88:/Library/DaisyToolchain/0.2.0/arm/arm-none-eabi/include/c++/10.3.1/bits/stl_stack.h ****    *  sequence/container.  It defaults to std::deque, but it can be
  89:/Library/DaisyToolchain/0.2.0/arm/arm-none-eabi/include/c++/10.3.1/bits/stl_stack.h ****    *  any type that supports @c back, @c push_back, and @c pop_back,
  90:/Library/DaisyToolchain/0.2.0/arm/arm-none-eabi/include/c++/10.3.1/bits/stl_stack.h ****    *  such as std::list, std::vector, or an appropriate user-defined
  91:/Library/DaisyToolchain/0.2.0/arm/arm-none-eabi/include/c++/10.3.1/bits/stl_stack.h ****    *  type.
  92:/Library/DaisyToolchain/0.2.0/arm/arm-none-eabi/include/c++/10.3.1/bits/stl_stack.h ****    *
  93:/Library/DaisyToolchain/0.2.0/arm/arm-none-eabi/include/c++/10.3.1/bits/stl_stack.h ****    *  Members not found in @a normal containers are @c container_type,
  94:/Library/DaisyToolchain/0.2.0/arm/arm-none-eabi/include/c++/10.3.1/bits/stl_stack.h ****    *  which is a typedef for the second Sequence parameter, and @c
  95:/Library/DaisyToolchain/0.2.0/arm/arm-none-eabi/include/c++/10.3.1/bits/stl_stack.h ****    *  push, @c pop, and @c top, which are standard %stack/FILO
  96:/Library/DaisyToolchain/0.2.0/arm/arm-none-eabi/include/c++/10.3.1/bits/stl_stack.h ****    *  operations.
  97:/Library/DaisyToolchain/0.2.0/arm/arm-none-eabi/include/c++/10.3.1/bits/stl_stack.h ****   */
  98:/Library/DaisyToolchain/0.2.0/arm/arm-none-eabi/include/c++/10.3.1/bits/stl_stack.h ****   template<typename _Tp, typename _Sequence = deque<_Tp> >
  99:/Library/DaisyToolchain/0.2.0/arm/arm-none-eabi/include/c++/10.3.1/bits/stl_stack.h ****     class stack
 100:/Library/DaisyToolchain/0.2.0/arm/arm-none-eabi/include/c++/10.3.1/bits/stl_stack.h ****     {
 101:/Library/DaisyToolchain/0.2.0/arm/arm-none-eabi/include/c++/10.3.1/bits/stl_stack.h **** #ifdef _GLIBCXX_CONCEPT_CHECKS
 102:/Library/DaisyToolchain/0.2.0/arm/arm-none-eabi/include/c++/10.3.1/bits/stl_stack.h ****       // concept requirements
 103:/Library/DaisyToolchain/0.2.0/arm/arm-none-eabi/include/c++/10.3.1/bits/stl_stack.h ****       typedef typename _Sequence::value_type _Sequence_value_type;
 104:/Library/DaisyToolchain/0.2.0/arm/arm-none-eabi/include/c++/10.3.1/bits/stl_stack.h **** # if __cplusplus < 201103L
 105:/Library/DaisyToolchain/0.2.0/arm/arm-none-eabi/include/c++/10.3.1/bits/stl_stack.h ****       __glibcxx_class_requires(_Tp, _SGIAssignableConcept)
 106:/Library/DaisyToolchain/0.2.0/arm/arm-none-eabi/include/c++/10.3.1/bits/stl_stack.h ****       __glibcxx_class_requires(_Sequence, _BackInsertionSequenceConcept)
 107:/Library/DaisyToolchain/0.2.0/arm/arm-none-eabi/include/c++/10.3.1/bits/stl_stack.h **** # endif
 108:/Library/DaisyToolchain/0.2.0/arm/arm-none-eabi/include/c++/10.3.1/bits/stl_stack.h ****       __glibcxx_class_requires2(_Tp, _Sequence_value_type, _SameTypeConcept)
 109:/Library/DaisyToolchain/0.2.0/arm/arm-none-eabi/include/c++/10.3.1/bits/stl_stack.h **** #endif
 110:/Library/DaisyToolchain/0.2.0/arm/arm-none-eabi/include/c++/10.3.1/bits/stl_stack.h **** 
 111:/Library/DaisyToolchain/0.2.0/arm/arm-none-eabi/include/c++/10.3.1/bits/stl_stack.h ****       template<typename _Tp1, typename _Seq1>
 112:/Library/DaisyToolchain/0.2.0/arm/arm-none-eabi/include/c++/10.3.1/bits/stl_stack.h **** 	friend bool
 113:/Library/DaisyToolchain/0.2.0/arm/arm-none-eabi/include/c++/10.3.1/bits/stl_stack.h **** 	operator==(const stack<_Tp1, _Seq1>&, const stack<_Tp1, _Seq1>&);
 114:/Library/DaisyToolchain/0.2.0/arm/arm-none-eabi/include/c++/10.3.1/bits/stl_stack.h **** 
 115:/Library/DaisyToolchain/0.2.0/arm/arm-none-eabi/include/c++/10.3.1/bits/stl_stack.h ****       template<typename _Tp1, typename _Seq1>
 116:/Library/DaisyToolchain/0.2.0/arm/arm-none-eabi/include/c++/10.3.1/bits/stl_stack.h **** 	friend bool
 117:/Library/DaisyToolchain/0.2.0/arm/arm-none-eabi/include/c++/10.3.1/bits/stl_stack.h **** 	operator<(const stack<_Tp1, _Seq1>&, const stack<_Tp1, _Seq1>&);
 118:/Library/DaisyToolchain/0.2.0/arm/arm-none-eabi/include/c++/10.3.1/bits/stl_stack.h **** 
 119:/Library/DaisyToolchain/0.2.0/arm/arm-none-eabi/include/c++/10.3.1/bits/stl_stack.h **** #if __cpp_lib_three_way_comparison
 120:/Library/DaisyToolchain/0.2.0/arm/arm-none-eabi/include/c++/10.3.1/bits/stl_stack.h ****       template<typename _Tp1, three_way_comparable _Seq1>
 121:/Library/DaisyToolchain/0.2.0/arm/arm-none-eabi/include/c++/10.3.1/bits/stl_stack.h **** 	friend compare_three_way_result_t<_Seq1>
 122:/Library/DaisyToolchain/0.2.0/arm/arm-none-eabi/include/c++/10.3.1/bits/stl_stack.h **** 	operator<=>(const stack<_Tp1, _Seq1>&, const stack<_Tp1, _Seq1>&);
 123:/Library/DaisyToolchain/0.2.0/arm/arm-none-eabi/include/c++/10.3.1/bits/stl_stack.h **** #endif
 124:/Library/DaisyToolchain/0.2.0/arm/arm-none-eabi/include/c++/10.3.1/bits/stl_stack.h **** 
 125:/Library/DaisyToolchain/0.2.0/arm/arm-none-eabi/include/c++/10.3.1/bits/stl_stack.h **** #if __cplusplus >= 201103L
ARM GAS  /var/folders/s6/2bsynnl15rj0bwtb9pgx4dc00000gn/T//cc76hY55.s 			page 50


 126:/Library/DaisyToolchain/0.2.0/arm/arm-none-eabi/include/c++/10.3.1/bits/stl_stack.h ****       template<typename _Alloc>
 127:/Library/DaisyToolchain/0.2.0/arm/arm-none-eabi/include/c++/10.3.1/bits/stl_stack.h **** 	using _Uses = typename
 128:/Library/DaisyToolchain/0.2.0/arm/arm-none-eabi/include/c++/10.3.1/bits/stl_stack.h **** 	  enable_if<uses_allocator<_Sequence, _Alloc>::value>::type;
 129:/Library/DaisyToolchain/0.2.0/arm/arm-none-eabi/include/c++/10.3.1/bits/stl_stack.h **** 
 130:/Library/DaisyToolchain/0.2.0/arm/arm-none-eabi/include/c++/10.3.1/bits/stl_stack.h **** #if __cplusplus >= 201703L
 131:/Library/DaisyToolchain/0.2.0/arm/arm-none-eabi/include/c++/10.3.1/bits/stl_stack.h ****       // _GLIBCXX_RESOLVE_LIB_DEFECTS
 132:/Library/DaisyToolchain/0.2.0/arm/arm-none-eabi/include/c++/10.3.1/bits/stl_stack.h ****       // 2566. Requirements on the first template parameter of container
 133:/Library/DaisyToolchain/0.2.0/arm/arm-none-eabi/include/c++/10.3.1/bits/stl_stack.h ****       // adaptors
 134:/Library/DaisyToolchain/0.2.0/arm/arm-none-eabi/include/c++/10.3.1/bits/stl_stack.h ****       static_assert(is_same<_Tp, typename _Sequence::value_type>::value,
 135:/Library/DaisyToolchain/0.2.0/arm/arm-none-eabi/include/c++/10.3.1/bits/stl_stack.h **** 	  "value_type must be the same as the underlying container");
 136:/Library/DaisyToolchain/0.2.0/arm/arm-none-eabi/include/c++/10.3.1/bits/stl_stack.h **** #endif // C++17
 137:/Library/DaisyToolchain/0.2.0/arm/arm-none-eabi/include/c++/10.3.1/bits/stl_stack.h **** #endif // C++11
 138:/Library/DaisyToolchain/0.2.0/arm/arm-none-eabi/include/c++/10.3.1/bits/stl_stack.h **** 
 139:/Library/DaisyToolchain/0.2.0/arm/arm-none-eabi/include/c++/10.3.1/bits/stl_stack.h ****     public:
 140:/Library/DaisyToolchain/0.2.0/arm/arm-none-eabi/include/c++/10.3.1/bits/stl_stack.h ****       typedef typename _Sequence::value_type		value_type;
 141:/Library/DaisyToolchain/0.2.0/arm/arm-none-eabi/include/c++/10.3.1/bits/stl_stack.h ****       typedef typename _Sequence::reference		reference;
 142:/Library/DaisyToolchain/0.2.0/arm/arm-none-eabi/include/c++/10.3.1/bits/stl_stack.h ****       typedef typename _Sequence::const_reference	const_reference;
 143:/Library/DaisyToolchain/0.2.0/arm/arm-none-eabi/include/c++/10.3.1/bits/stl_stack.h ****       typedef typename _Sequence::size_type		size_type;
 144:/Library/DaisyToolchain/0.2.0/arm/arm-none-eabi/include/c++/10.3.1/bits/stl_stack.h ****       typedef	       _Sequence			container_type;
 145:/Library/DaisyToolchain/0.2.0/arm/arm-none-eabi/include/c++/10.3.1/bits/stl_stack.h **** 
 146:/Library/DaisyToolchain/0.2.0/arm/arm-none-eabi/include/c++/10.3.1/bits/stl_stack.h ****     protected:
 147:/Library/DaisyToolchain/0.2.0/arm/arm-none-eabi/include/c++/10.3.1/bits/stl_stack.h ****       //  See queue::c for notes on this name.
 148:/Library/DaisyToolchain/0.2.0/arm/arm-none-eabi/include/c++/10.3.1/bits/stl_stack.h ****       _Sequence c;
 149:/Library/DaisyToolchain/0.2.0/arm/arm-none-eabi/include/c++/10.3.1/bits/stl_stack.h **** 
 150:/Library/DaisyToolchain/0.2.0/arm/arm-none-eabi/include/c++/10.3.1/bits/stl_stack.h ****     public:
 151:/Library/DaisyToolchain/0.2.0/arm/arm-none-eabi/include/c++/10.3.1/bits/stl_stack.h ****       // XXX removed old def ctor, added def arg to this one to match 14882
 152:/Library/DaisyToolchain/0.2.0/arm/arm-none-eabi/include/c++/10.3.1/bits/stl_stack.h ****       /**
 153:/Library/DaisyToolchain/0.2.0/arm/arm-none-eabi/include/c++/10.3.1/bits/stl_stack.h ****        *  @brief  Default constructor creates no elements.
 154:/Library/DaisyToolchain/0.2.0/arm/arm-none-eabi/include/c++/10.3.1/bits/stl_stack.h ****        */
 155:/Library/DaisyToolchain/0.2.0/arm/arm-none-eabi/include/c++/10.3.1/bits/stl_stack.h **** #if __cplusplus < 201103L
 156:/Library/DaisyToolchain/0.2.0/arm/arm-none-eabi/include/c++/10.3.1/bits/stl_stack.h ****       explicit
 157:/Library/DaisyToolchain/0.2.0/arm/arm-none-eabi/include/c++/10.3.1/bits/stl_stack.h ****       stack(const _Sequence& __c = _Sequence())
 158:/Library/DaisyToolchain/0.2.0/arm/arm-none-eabi/include/c++/10.3.1/bits/stl_stack.h ****       : c(__c) { }
 159:/Library/DaisyToolchain/0.2.0/arm/arm-none-eabi/include/c++/10.3.1/bits/stl_stack.h **** #else
 160:/Library/DaisyToolchain/0.2.0/arm/arm-none-eabi/include/c++/10.3.1/bits/stl_stack.h ****       template<typename _Seq = _Sequence, typename _Requires = typename
 161:/Library/DaisyToolchain/0.2.0/arm/arm-none-eabi/include/c++/10.3.1/bits/stl_stack.h **** 	       enable_if<is_default_constructible<_Seq>::value>::type>
 162:/Library/DaisyToolchain/0.2.0/arm/arm-none-eabi/include/c++/10.3.1/bits/stl_stack.h **** 	stack()
 163:/Library/DaisyToolchain/0.2.0/arm/arm-none-eabi/include/c++/10.3.1/bits/stl_stack.h **** 	: c() { }
 164:/Library/DaisyToolchain/0.2.0/arm/arm-none-eabi/include/c++/10.3.1/bits/stl_stack.h **** 
 165:/Library/DaisyToolchain/0.2.0/arm/arm-none-eabi/include/c++/10.3.1/bits/stl_stack.h ****       explicit
 166:/Library/DaisyToolchain/0.2.0/arm/arm-none-eabi/include/c++/10.3.1/bits/stl_stack.h ****       stack(const _Sequence& __c)
 167:/Library/DaisyToolchain/0.2.0/arm/arm-none-eabi/include/c++/10.3.1/bits/stl_stack.h ****       : c(__c) { }
 168:/Library/DaisyToolchain/0.2.0/arm/arm-none-eabi/include/c++/10.3.1/bits/stl_stack.h **** 
 169:/Library/DaisyToolchain/0.2.0/arm/arm-none-eabi/include/c++/10.3.1/bits/stl_stack.h ****       explicit
 170:/Library/DaisyToolchain/0.2.0/arm/arm-none-eabi/include/c++/10.3.1/bits/stl_stack.h ****       stack(_Sequence&& __c)
 171:/Library/DaisyToolchain/0.2.0/arm/arm-none-eabi/include/c++/10.3.1/bits/stl_stack.h ****       : c(std::move(__c)) { }
 172:/Library/DaisyToolchain/0.2.0/arm/arm-none-eabi/include/c++/10.3.1/bits/stl_stack.h **** 
 173:/Library/DaisyToolchain/0.2.0/arm/arm-none-eabi/include/c++/10.3.1/bits/stl_stack.h ****       template<typename _Alloc, typename _Requires = _Uses<_Alloc>>
 174:/Library/DaisyToolchain/0.2.0/arm/arm-none-eabi/include/c++/10.3.1/bits/stl_stack.h **** 	explicit
 175:/Library/DaisyToolchain/0.2.0/arm/arm-none-eabi/include/c++/10.3.1/bits/stl_stack.h **** 	stack(const _Alloc& __a)
 176:/Library/DaisyToolchain/0.2.0/arm/arm-none-eabi/include/c++/10.3.1/bits/stl_stack.h **** 	: c(__a) { }
 177:/Library/DaisyToolchain/0.2.0/arm/arm-none-eabi/include/c++/10.3.1/bits/stl_stack.h **** 
 178:/Library/DaisyToolchain/0.2.0/arm/arm-none-eabi/include/c++/10.3.1/bits/stl_stack.h ****       template<typename _Alloc, typename _Requires = _Uses<_Alloc>>
 179:/Library/DaisyToolchain/0.2.0/arm/arm-none-eabi/include/c++/10.3.1/bits/stl_stack.h **** 	stack(const _Sequence& __c, const _Alloc& __a)
 180:/Library/DaisyToolchain/0.2.0/arm/arm-none-eabi/include/c++/10.3.1/bits/stl_stack.h **** 	: c(__c, __a) { }
 181:/Library/DaisyToolchain/0.2.0/arm/arm-none-eabi/include/c++/10.3.1/bits/stl_stack.h **** 
 182:/Library/DaisyToolchain/0.2.0/arm/arm-none-eabi/include/c++/10.3.1/bits/stl_stack.h ****       template<typename _Alloc, typename _Requires = _Uses<_Alloc>>
ARM GAS  /var/folders/s6/2bsynnl15rj0bwtb9pgx4dc00000gn/T//cc76hY55.s 			page 51


 183:/Library/DaisyToolchain/0.2.0/arm/arm-none-eabi/include/c++/10.3.1/bits/stl_stack.h **** 	stack(_Sequence&& __c, const _Alloc& __a)
 184:/Library/DaisyToolchain/0.2.0/arm/arm-none-eabi/include/c++/10.3.1/bits/stl_stack.h **** 	: c(std::move(__c), __a) { }
 185:/Library/DaisyToolchain/0.2.0/arm/arm-none-eabi/include/c++/10.3.1/bits/stl_stack.h **** 
 186:/Library/DaisyToolchain/0.2.0/arm/arm-none-eabi/include/c++/10.3.1/bits/stl_stack.h ****       template<typename _Alloc, typename _Requires = _Uses<_Alloc>>
 187:/Library/DaisyToolchain/0.2.0/arm/arm-none-eabi/include/c++/10.3.1/bits/stl_stack.h **** 	stack(const stack& __q, const _Alloc& __a)
 188:/Library/DaisyToolchain/0.2.0/arm/arm-none-eabi/include/c++/10.3.1/bits/stl_stack.h **** 	: c(__q.c, __a) { }
 189:/Library/DaisyToolchain/0.2.0/arm/arm-none-eabi/include/c++/10.3.1/bits/stl_stack.h **** 
 190:/Library/DaisyToolchain/0.2.0/arm/arm-none-eabi/include/c++/10.3.1/bits/stl_stack.h ****       template<typename _Alloc, typename _Requires = _Uses<_Alloc>>
 191:/Library/DaisyToolchain/0.2.0/arm/arm-none-eabi/include/c++/10.3.1/bits/stl_stack.h **** 	stack(stack&& __q, const _Alloc& __a)
 192:/Library/DaisyToolchain/0.2.0/arm/arm-none-eabi/include/c++/10.3.1/bits/stl_stack.h **** 	: c(std::move(__q.c), __a) { }
 193:/Library/DaisyToolchain/0.2.0/arm/arm-none-eabi/include/c++/10.3.1/bits/stl_stack.h **** #endif
 194:/Library/DaisyToolchain/0.2.0/arm/arm-none-eabi/include/c++/10.3.1/bits/stl_stack.h **** 
 195:/Library/DaisyToolchain/0.2.0/arm/arm-none-eabi/include/c++/10.3.1/bits/stl_stack.h ****       /**
 196:/Library/DaisyToolchain/0.2.0/arm/arm-none-eabi/include/c++/10.3.1/bits/stl_stack.h ****        *  Returns true if the %stack is empty.
 197:/Library/DaisyToolchain/0.2.0/arm/arm-none-eabi/include/c++/10.3.1/bits/stl_stack.h ****        */
 198:/Library/DaisyToolchain/0.2.0/arm/arm-none-eabi/include/c++/10.3.1/bits/stl_stack.h ****       _GLIBCXX_NODISCARD bool
 199:/Library/DaisyToolchain/0.2.0/arm/arm-none-eabi/include/c++/10.3.1/bits/stl_stack.h ****       empty() const
 200:/Library/DaisyToolchain/0.2.0/arm/arm-none-eabi/include/c++/10.3.1/bits/stl_stack.h ****       { return c.empty(); }
 201:/Library/DaisyToolchain/0.2.0/arm/arm-none-eabi/include/c++/10.3.1/bits/stl_stack.h **** 
 202:/Library/DaisyToolchain/0.2.0/arm/arm-none-eabi/include/c++/10.3.1/bits/stl_stack.h ****       /**  Returns the number of elements in the %stack.  */
 203:/Library/DaisyToolchain/0.2.0/arm/arm-none-eabi/include/c++/10.3.1/bits/stl_stack.h ****       size_type
 204:/Library/DaisyToolchain/0.2.0/arm/arm-none-eabi/include/c++/10.3.1/bits/stl_stack.h ****       size() const
 205:/Library/DaisyToolchain/0.2.0/arm/arm-none-eabi/include/c++/10.3.1/bits/stl_stack.h ****       { return c.size(); }
 206:/Library/DaisyToolchain/0.2.0/arm/arm-none-eabi/include/c++/10.3.1/bits/stl_stack.h **** 
 207:/Library/DaisyToolchain/0.2.0/arm/arm-none-eabi/include/c++/10.3.1/bits/stl_stack.h ****       /**
 208:/Library/DaisyToolchain/0.2.0/arm/arm-none-eabi/include/c++/10.3.1/bits/stl_stack.h ****        *  Returns a read/write reference to the data at the first
 209:/Library/DaisyToolchain/0.2.0/arm/arm-none-eabi/include/c++/10.3.1/bits/stl_stack.h ****        *  element of the %stack.
 210:/Library/DaisyToolchain/0.2.0/arm/arm-none-eabi/include/c++/10.3.1/bits/stl_stack.h ****        */
 211:/Library/DaisyToolchain/0.2.0/arm/arm-none-eabi/include/c++/10.3.1/bits/stl_stack.h ****       reference
 212:/Library/DaisyToolchain/0.2.0/arm/arm-none-eabi/include/c++/10.3.1/bits/stl_stack.h ****       top()
 213:/Library/DaisyToolchain/0.2.0/arm/arm-none-eabi/include/c++/10.3.1/bits/stl_stack.h ****       {
 214:/Library/DaisyToolchain/0.2.0/arm/arm-none-eabi/include/c++/10.3.1/bits/stl_stack.h **** 	__glibcxx_requires_nonempty();
 215:/Library/DaisyToolchain/0.2.0/arm/arm-none-eabi/include/c++/10.3.1/bits/stl_stack.h **** 	return c.back();
 216:/Library/DaisyToolchain/0.2.0/arm/arm-none-eabi/include/c++/10.3.1/bits/stl_stack.h ****       }
 217:/Library/DaisyToolchain/0.2.0/arm/arm-none-eabi/include/c++/10.3.1/bits/stl_stack.h **** 
 218:/Library/DaisyToolchain/0.2.0/arm/arm-none-eabi/include/c++/10.3.1/bits/stl_stack.h ****       /**
 219:/Library/DaisyToolchain/0.2.0/arm/arm-none-eabi/include/c++/10.3.1/bits/stl_stack.h ****        *  Returns a read-only (constant) reference to the data at the first
 220:/Library/DaisyToolchain/0.2.0/arm/arm-none-eabi/include/c++/10.3.1/bits/stl_stack.h ****        *  element of the %stack.
 221:/Library/DaisyToolchain/0.2.0/arm/arm-none-eabi/include/c++/10.3.1/bits/stl_stack.h ****        */
 222:/Library/DaisyToolchain/0.2.0/arm/arm-none-eabi/include/c++/10.3.1/bits/stl_stack.h ****       const_reference
 223:/Library/DaisyToolchain/0.2.0/arm/arm-none-eabi/include/c++/10.3.1/bits/stl_stack.h ****       top() const
 224:/Library/DaisyToolchain/0.2.0/arm/arm-none-eabi/include/c++/10.3.1/bits/stl_stack.h ****       {
 225:/Library/DaisyToolchain/0.2.0/arm/arm-none-eabi/include/c++/10.3.1/bits/stl_stack.h **** 	__glibcxx_requires_nonempty();
 226:/Library/DaisyToolchain/0.2.0/arm/arm-none-eabi/include/c++/10.3.1/bits/stl_stack.h **** 	return c.back();
 227:/Library/DaisyToolchain/0.2.0/arm/arm-none-eabi/include/c++/10.3.1/bits/stl_stack.h ****       }
 228:/Library/DaisyToolchain/0.2.0/arm/arm-none-eabi/include/c++/10.3.1/bits/stl_stack.h **** 
 229:/Library/DaisyToolchain/0.2.0/arm/arm-none-eabi/include/c++/10.3.1/bits/stl_stack.h ****       /**
 230:/Library/DaisyToolchain/0.2.0/arm/arm-none-eabi/include/c++/10.3.1/bits/stl_stack.h ****        *  @brief  Add data to the top of the %stack.
 231:/Library/DaisyToolchain/0.2.0/arm/arm-none-eabi/include/c++/10.3.1/bits/stl_stack.h ****        *  @param  __x  Data to be added.
 232:/Library/DaisyToolchain/0.2.0/arm/arm-none-eabi/include/c++/10.3.1/bits/stl_stack.h ****        *
 233:/Library/DaisyToolchain/0.2.0/arm/arm-none-eabi/include/c++/10.3.1/bits/stl_stack.h ****        *  This is a typical %stack operation.  The function creates an
 234:/Library/DaisyToolchain/0.2.0/arm/arm-none-eabi/include/c++/10.3.1/bits/stl_stack.h ****        *  element at the top of the %stack and assigns the given data
 235:/Library/DaisyToolchain/0.2.0/arm/arm-none-eabi/include/c++/10.3.1/bits/stl_stack.h ****        *  to it.  The time complexity of the operation depends on the
 236:/Library/DaisyToolchain/0.2.0/arm/arm-none-eabi/include/c++/10.3.1/bits/stl_stack.h ****        *  underlying sequence.
 237:/Library/DaisyToolchain/0.2.0/arm/arm-none-eabi/include/c++/10.3.1/bits/stl_stack.h ****        */
 238:/Library/DaisyToolchain/0.2.0/arm/arm-none-eabi/include/c++/10.3.1/bits/stl_stack.h ****       void
 239:/Library/DaisyToolchain/0.2.0/arm/arm-none-eabi/include/c++/10.3.1/bits/stl_stack.h ****       push(const value_type& __x)
ARM GAS  /var/folders/s6/2bsynnl15rj0bwtb9pgx4dc00000gn/T//cc76hY55.s 			page 52


 1402              		.loc 13 239 7 view .LVU355
 1403              	.LBB693:
 1404              	.LBI693:
 1405              		.file 14 "/Library/DaisyToolchain/0.2.0/arm/arm-none-eabi/include/c++/10.3.1/bits/stl_deque.h"
   1:/Library/DaisyToolchain/0.2.0/arm/arm-none-eabi/include/c++/10.3.1/bits/stl_deque.h **** // Deque implementation -*- C++ -*-
   2:/Library/DaisyToolchain/0.2.0/arm/arm-none-eabi/include/c++/10.3.1/bits/stl_deque.h **** 
   3:/Library/DaisyToolchain/0.2.0/arm/arm-none-eabi/include/c++/10.3.1/bits/stl_deque.h **** // Copyright (C) 2001-2020 Free Software Foundation, Inc.
   4:/Library/DaisyToolchain/0.2.0/arm/arm-none-eabi/include/c++/10.3.1/bits/stl_deque.h **** //
   5:/Library/DaisyToolchain/0.2.0/arm/arm-none-eabi/include/c++/10.3.1/bits/stl_deque.h **** // This file is part of the GNU ISO C++ Library.  This library is free
   6:/Library/DaisyToolchain/0.2.0/arm/arm-none-eabi/include/c++/10.3.1/bits/stl_deque.h **** // software; you can redistribute it and/or modify it under the
   7:/Library/DaisyToolchain/0.2.0/arm/arm-none-eabi/include/c++/10.3.1/bits/stl_deque.h **** // terms of the GNU General Public License as published by the
   8:/Library/DaisyToolchain/0.2.0/arm/arm-none-eabi/include/c++/10.3.1/bits/stl_deque.h **** // Free Software Foundation; either version 3, or (at your option)
   9:/Library/DaisyToolchain/0.2.0/arm/arm-none-eabi/include/c++/10.3.1/bits/stl_deque.h **** // any later version.
  10:/Library/DaisyToolchain/0.2.0/arm/arm-none-eabi/include/c++/10.3.1/bits/stl_deque.h **** 
  11:/Library/DaisyToolchain/0.2.0/arm/arm-none-eabi/include/c++/10.3.1/bits/stl_deque.h **** // This library is distributed in the hope that it will be useful,
  12:/Library/DaisyToolchain/0.2.0/arm/arm-none-eabi/include/c++/10.3.1/bits/stl_deque.h **** // but WITHOUT ANY WARRANTY; without even the implied warranty of
  13:/Library/DaisyToolchain/0.2.0/arm/arm-none-eabi/include/c++/10.3.1/bits/stl_deque.h **** // MERCHANTABILITY or FITNESS FOR A PARTICULAR PURPOSE.  See the
  14:/Library/DaisyToolchain/0.2.0/arm/arm-none-eabi/include/c++/10.3.1/bits/stl_deque.h **** // GNU General Public License for more details.
  15:/Library/DaisyToolchain/0.2.0/arm/arm-none-eabi/include/c++/10.3.1/bits/stl_deque.h **** 
  16:/Library/DaisyToolchain/0.2.0/arm/arm-none-eabi/include/c++/10.3.1/bits/stl_deque.h **** // Under Section 7 of GPL version 3, you are granted additional
  17:/Library/DaisyToolchain/0.2.0/arm/arm-none-eabi/include/c++/10.3.1/bits/stl_deque.h **** // permissions described in the GCC Runtime Library Exception, version
  18:/Library/DaisyToolchain/0.2.0/arm/arm-none-eabi/include/c++/10.3.1/bits/stl_deque.h **** // 3.1, as published by the Free Software Foundation.
  19:/Library/DaisyToolchain/0.2.0/arm/arm-none-eabi/include/c++/10.3.1/bits/stl_deque.h **** 
  20:/Library/DaisyToolchain/0.2.0/arm/arm-none-eabi/include/c++/10.3.1/bits/stl_deque.h **** // You should have received a copy of the GNU General Public License and
  21:/Library/DaisyToolchain/0.2.0/arm/arm-none-eabi/include/c++/10.3.1/bits/stl_deque.h **** // a copy of the GCC Runtime Library Exception along with this program;
  22:/Library/DaisyToolchain/0.2.0/arm/arm-none-eabi/include/c++/10.3.1/bits/stl_deque.h **** // see the files COPYING3 and COPYING.RUNTIME respectively.  If not, see
  23:/Library/DaisyToolchain/0.2.0/arm/arm-none-eabi/include/c++/10.3.1/bits/stl_deque.h **** // <http://www.gnu.org/licenses/>.
  24:/Library/DaisyToolchain/0.2.0/arm/arm-none-eabi/include/c++/10.3.1/bits/stl_deque.h **** 
  25:/Library/DaisyToolchain/0.2.0/arm/arm-none-eabi/include/c++/10.3.1/bits/stl_deque.h **** /*
  26:/Library/DaisyToolchain/0.2.0/arm/arm-none-eabi/include/c++/10.3.1/bits/stl_deque.h ****  *
  27:/Library/DaisyToolchain/0.2.0/arm/arm-none-eabi/include/c++/10.3.1/bits/stl_deque.h ****  * Copyright (c) 1994
  28:/Library/DaisyToolchain/0.2.0/arm/arm-none-eabi/include/c++/10.3.1/bits/stl_deque.h ****  * Hewlett-Packard Company
  29:/Library/DaisyToolchain/0.2.0/arm/arm-none-eabi/include/c++/10.3.1/bits/stl_deque.h ****  *
  30:/Library/DaisyToolchain/0.2.0/arm/arm-none-eabi/include/c++/10.3.1/bits/stl_deque.h ****  * Permission to use, copy, modify, distribute and sell this software
  31:/Library/DaisyToolchain/0.2.0/arm/arm-none-eabi/include/c++/10.3.1/bits/stl_deque.h ****  * and its documentation for any purpose is hereby granted without fee,
  32:/Library/DaisyToolchain/0.2.0/arm/arm-none-eabi/include/c++/10.3.1/bits/stl_deque.h ****  * provided that the above copyright notice appear in all copies and
  33:/Library/DaisyToolchain/0.2.0/arm/arm-none-eabi/include/c++/10.3.1/bits/stl_deque.h ****  * that both that copyright notice and this permission notice appear
  34:/Library/DaisyToolchain/0.2.0/arm/arm-none-eabi/include/c++/10.3.1/bits/stl_deque.h ****  * in supporting documentation.  Hewlett-Packard Company makes no
  35:/Library/DaisyToolchain/0.2.0/arm/arm-none-eabi/include/c++/10.3.1/bits/stl_deque.h ****  * representations about the suitability of this software for any
  36:/Library/DaisyToolchain/0.2.0/arm/arm-none-eabi/include/c++/10.3.1/bits/stl_deque.h ****  * purpose.  It is provided "as is" without express or implied warranty.
  37:/Library/DaisyToolchain/0.2.0/arm/arm-none-eabi/include/c++/10.3.1/bits/stl_deque.h ****  *
  38:/Library/DaisyToolchain/0.2.0/arm/arm-none-eabi/include/c++/10.3.1/bits/stl_deque.h ****  *
  39:/Library/DaisyToolchain/0.2.0/arm/arm-none-eabi/include/c++/10.3.1/bits/stl_deque.h ****  * Copyright (c) 1997
  40:/Library/DaisyToolchain/0.2.0/arm/arm-none-eabi/include/c++/10.3.1/bits/stl_deque.h ****  * Silicon Graphics Computer Systems, Inc.
  41:/Library/DaisyToolchain/0.2.0/arm/arm-none-eabi/include/c++/10.3.1/bits/stl_deque.h ****  *
  42:/Library/DaisyToolchain/0.2.0/arm/arm-none-eabi/include/c++/10.3.1/bits/stl_deque.h ****  * Permission to use, copy, modify, distribute and sell this software
  43:/Library/DaisyToolchain/0.2.0/arm/arm-none-eabi/include/c++/10.3.1/bits/stl_deque.h ****  * and its documentation for any purpose is hereby granted without fee,
  44:/Library/DaisyToolchain/0.2.0/arm/arm-none-eabi/include/c++/10.3.1/bits/stl_deque.h ****  * provided that the above copyright notice appear in all copies and
  45:/Library/DaisyToolchain/0.2.0/arm/arm-none-eabi/include/c++/10.3.1/bits/stl_deque.h ****  * that both that copyright notice and this permission notice appear
  46:/Library/DaisyToolchain/0.2.0/arm/arm-none-eabi/include/c++/10.3.1/bits/stl_deque.h ****  * in supporting documentation.  Silicon Graphics makes no
  47:/Library/DaisyToolchain/0.2.0/arm/arm-none-eabi/include/c++/10.3.1/bits/stl_deque.h ****  * representations about the suitability of this software for any
  48:/Library/DaisyToolchain/0.2.0/arm/arm-none-eabi/include/c++/10.3.1/bits/stl_deque.h ****  * purpose.  It is provided "as is" without express or implied warranty.
  49:/Library/DaisyToolchain/0.2.0/arm/arm-none-eabi/include/c++/10.3.1/bits/stl_deque.h ****  */
  50:/Library/DaisyToolchain/0.2.0/arm/arm-none-eabi/include/c++/10.3.1/bits/stl_deque.h **** 
  51:/Library/DaisyToolchain/0.2.0/arm/arm-none-eabi/include/c++/10.3.1/bits/stl_deque.h **** /** @file bits/stl_deque.h
  52:/Library/DaisyToolchain/0.2.0/arm/arm-none-eabi/include/c++/10.3.1/bits/stl_deque.h ****  *  This is an internal header file, included by other library headers.
  53:/Library/DaisyToolchain/0.2.0/arm/arm-none-eabi/include/c++/10.3.1/bits/stl_deque.h ****  *  Do not attempt to use it directly. @headername{deque}
ARM GAS  /var/folders/s6/2bsynnl15rj0bwtb9pgx4dc00000gn/T//cc76hY55.s 			page 53


  54:/Library/DaisyToolchain/0.2.0/arm/arm-none-eabi/include/c++/10.3.1/bits/stl_deque.h ****  */
  55:/Library/DaisyToolchain/0.2.0/arm/arm-none-eabi/include/c++/10.3.1/bits/stl_deque.h **** 
  56:/Library/DaisyToolchain/0.2.0/arm/arm-none-eabi/include/c++/10.3.1/bits/stl_deque.h **** #ifndef _STL_DEQUE_H
  57:/Library/DaisyToolchain/0.2.0/arm/arm-none-eabi/include/c++/10.3.1/bits/stl_deque.h **** #define _STL_DEQUE_H 1
  58:/Library/DaisyToolchain/0.2.0/arm/arm-none-eabi/include/c++/10.3.1/bits/stl_deque.h **** 
  59:/Library/DaisyToolchain/0.2.0/arm/arm-none-eabi/include/c++/10.3.1/bits/stl_deque.h **** #include <bits/concept_check.h>
  60:/Library/DaisyToolchain/0.2.0/arm/arm-none-eabi/include/c++/10.3.1/bits/stl_deque.h **** #include <bits/stl_iterator_base_types.h>
  61:/Library/DaisyToolchain/0.2.0/arm/arm-none-eabi/include/c++/10.3.1/bits/stl_deque.h **** #include <bits/stl_iterator_base_funcs.h>
  62:/Library/DaisyToolchain/0.2.0/arm/arm-none-eabi/include/c++/10.3.1/bits/stl_deque.h **** #if __cplusplus >= 201103L
  63:/Library/DaisyToolchain/0.2.0/arm/arm-none-eabi/include/c++/10.3.1/bits/stl_deque.h **** #include <initializer_list>
  64:/Library/DaisyToolchain/0.2.0/arm/arm-none-eabi/include/c++/10.3.1/bits/stl_deque.h **** #include <bits/stl_uninitialized.h> // for __is_bitwise_relocatable
  65:/Library/DaisyToolchain/0.2.0/arm/arm-none-eabi/include/c++/10.3.1/bits/stl_deque.h **** #endif
  66:/Library/DaisyToolchain/0.2.0/arm/arm-none-eabi/include/c++/10.3.1/bits/stl_deque.h **** #if __cplusplus > 201703L
  67:/Library/DaisyToolchain/0.2.0/arm/arm-none-eabi/include/c++/10.3.1/bits/stl_deque.h **** # include <compare>
  68:/Library/DaisyToolchain/0.2.0/arm/arm-none-eabi/include/c++/10.3.1/bits/stl_deque.h **** #endif
  69:/Library/DaisyToolchain/0.2.0/arm/arm-none-eabi/include/c++/10.3.1/bits/stl_deque.h **** 
  70:/Library/DaisyToolchain/0.2.0/arm/arm-none-eabi/include/c++/10.3.1/bits/stl_deque.h **** #include <debug/assertions.h>
  71:/Library/DaisyToolchain/0.2.0/arm/arm-none-eabi/include/c++/10.3.1/bits/stl_deque.h **** 
  72:/Library/DaisyToolchain/0.2.0/arm/arm-none-eabi/include/c++/10.3.1/bits/stl_deque.h **** namespace std _GLIBCXX_VISIBILITY(default)
  73:/Library/DaisyToolchain/0.2.0/arm/arm-none-eabi/include/c++/10.3.1/bits/stl_deque.h **** {
  74:/Library/DaisyToolchain/0.2.0/arm/arm-none-eabi/include/c++/10.3.1/bits/stl_deque.h **** _GLIBCXX_BEGIN_NAMESPACE_VERSION
  75:/Library/DaisyToolchain/0.2.0/arm/arm-none-eabi/include/c++/10.3.1/bits/stl_deque.h **** _GLIBCXX_BEGIN_NAMESPACE_CONTAINER
  76:/Library/DaisyToolchain/0.2.0/arm/arm-none-eabi/include/c++/10.3.1/bits/stl_deque.h **** 
  77:/Library/DaisyToolchain/0.2.0/arm/arm-none-eabi/include/c++/10.3.1/bits/stl_deque.h ****   /**
  78:/Library/DaisyToolchain/0.2.0/arm/arm-none-eabi/include/c++/10.3.1/bits/stl_deque.h ****    *  @brief This function controls the size of memory nodes.
  79:/Library/DaisyToolchain/0.2.0/arm/arm-none-eabi/include/c++/10.3.1/bits/stl_deque.h ****    *  @param  __size  The size of an element.
  80:/Library/DaisyToolchain/0.2.0/arm/arm-none-eabi/include/c++/10.3.1/bits/stl_deque.h ****    *  @return   The number (not byte size) of elements per node.
  81:/Library/DaisyToolchain/0.2.0/arm/arm-none-eabi/include/c++/10.3.1/bits/stl_deque.h ****    *
  82:/Library/DaisyToolchain/0.2.0/arm/arm-none-eabi/include/c++/10.3.1/bits/stl_deque.h ****    *  This function started off as a compiler kludge from SGI, but
  83:/Library/DaisyToolchain/0.2.0/arm/arm-none-eabi/include/c++/10.3.1/bits/stl_deque.h ****    *  seems to be a useful wrapper around a repeated constant
  84:/Library/DaisyToolchain/0.2.0/arm/arm-none-eabi/include/c++/10.3.1/bits/stl_deque.h ****    *  expression.  The @b 512 is tunable (and no other code needs to
  85:/Library/DaisyToolchain/0.2.0/arm/arm-none-eabi/include/c++/10.3.1/bits/stl_deque.h ****    *  change), but no investigation has been done since inheriting the
  86:/Library/DaisyToolchain/0.2.0/arm/arm-none-eabi/include/c++/10.3.1/bits/stl_deque.h ****    *  SGI code.  Touch _GLIBCXX_DEQUE_BUF_SIZE only if you know what
  87:/Library/DaisyToolchain/0.2.0/arm/arm-none-eabi/include/c++/10.3.1/bits/stl_deque.h ****    *  you are doing, however: changing it breaks the binary
  88:/Library/DaisyToolchain/0.2.0/arm/arm-none-eabi/include/c++/10.3.1/bits/stl_deque.h ****    *  compatibility!!
  89:/Library/DaisyToolchain/0.2.0/arm/arm-none-eabi/include/c++/10.3.1/bits/stl_deque.h ****   */
  90:/Library/DaisyToolchain/0.2.0/arm/arm-none-eabi/include/c++/10.3.1/bits/stl_deque.h **** 
  91:/Library/DaisyToolchain/0.2.0/arm/arm-none-eabi/include/c++/10.3.1/bits/stl_deque.h **** #ifndef _GLIBCXX_DEQUE_BUF_SIZE
  92:/Library/DaisyToolchain/0.2.0/arm/arm-none-eabi/include/c++/10.3.1/bits/stl_deque.h **** #define _GLIBCXX_DEQUE_BUF_SIZE 512
  93:/Library/DaisyToolchain/0.2.0/arm/arm-none-eabi/include/c++/10.3.1/bits/stl_deque.h **** #endif
  94:/Library/DaisyToolchain/0.2.0/arm/arm-none-eabi/include/c++/10.3.1/bits/stl_deque.h **** 
  95:/Library/DaisyToolchain/0.2.0/arm/arm-none-eabi/include/c++/10.3.1/bits/stl_deque.h ****   _GLIBCXX_CONSTEXPR inline size_t
  96:/Library/DaisyToolchain/0.2.0/arm/arm-none-eabi/include/c++/10.3.1/bits/stl_deque.h ****   __deque_buf_size(size_t __size)
  97:/Library/DaisyToolchain/0.2.0/arm/arm-none-eabi/include/c++/10.3.1/bits/stl_deque.h ****   { return (__size < _GLIBCXX_DEQUE_BUF_SIZE
  98:/Library/DaisyToolchain/0.2.0/arm/arm-none-eabi/include/c++/10.3.1/bits/stl_deque.h **** 	    ? size_t(_GLIBCXX_DEQUE_BUF_SIZE / __size) : size_t(1)); }
  99:/Library/DaisyToolchain/0.2.0/arm/arm-none-eabi/include/c++/10.3.1/bits/stl_deque.h **** 
 100:/Library/DaisyToolchain/0.2.0/arm/arm-none-eabi/include/c++/10.3.1/bits/stl_deque.h **** 
 101:/Library/DaisyToolchain/0.2.0/arm/arm-none-eabi/include/c++/10.3.1/bits/stl_deque.h ****   /**
 102:/Library/DaisyToolchain/0.2.0/arm/arm-none-eabi/include/c++/10.3.1/bits/stl_deque.h ****    *  @brief A deque::iterator.
 103:/Library/DaisyToolchain/0.2.0/arm/arm-none-eabi/include/c++/10.3.1/bits/stl_deque.h ****    *
 104:/Library/DaisyToolchain/0.2.0/arm/arm-none-eabi/include/c++/10.3.1/bits/stl_deque.h ****    *  Quite a bit of intelligence here.  Much of the functionality of
 105:/Library/DaisyToolchain/0.2.0/arm/arm-none-eabi/include/c++/10.3.1/bits/stl_deque.h ****    *  deque is actually passed off to this class.  A deque holds two
 106:/Library/DaisyToolchain/0.2.0/arm/arm-none-eabi/include/c++/10.3.1/bits/stl_deque.h ****    *  of these internally, marking its valid range.  Access to
 107:/Library/DaisyToolchain/0.2.0/arm/arm-none-eabi/include/c++/10.3.1/bits/stl_deque.h ****    *  elements is done as offsets of either of those two, relying on
 108:/Library/DaisyToolchain/0.2.0/arm/arm-none-eabi/include/c++/10.3.1/bits/stl_deque.h ****    *  operator overloading in this class.
 109:/Library/DaisyToolchain/0.2.0/arm/arm-none-eabi/include/c++/10.3.1/bits/stl_deque.h ****    *
 110:/Library/DaisyToolchain/0.2.0/arm/arm-none-eabi/include/c++/10.3.1/bits/stl_deque.h ****    *  All the functions are op overloads except for _M_set_node.
ARM GAS  /var/folders/s6/2bsynnl15rj0bwtb9pgx4dc00000gn/T//cc76hY55.s 			page 54


 111:/Library/DaisyToolchain/0.2.0/arm/arm-none-eabi/include/c++/10.3.1/bits/stl_deque.h ****   */
 112:/Library/DaisyToolchain/0.2.0/arm/arm-none-eabi/include/c++/10.3.1/bits/stl_deque.h ****   template<typename _Tp, typename _Ref, typename _Ptr>
 113:/Library/DaisyToolchain/0.2.0/arm/arm-none-eabi/include/c++/10.3.1/bits/stl_deque.h ****     struct _Deque_iterator
 114:/Library/DaisyToolchain/0.2.0/arm/arm-none-eabi/include/c++/10.3.1/bits/stl_deque.h ****     {
 115:/Library/DaisyToolchain/0.2.0/arm/arm-none-eabi/include/c++/10.3.1/bits/stl_deque.h **** #if __cplusplus < 201103L
 116:/Library/DaisyToolchain/0.2.0/arm/arm-none-eabi/include/c++/10.3.1/bits/stl_deque.h ****       typedef _Deque_iterator<_Tp, _Tp&, _Tp*>		   iterator;
 117:/Library/DaisyToolchain/0.2.0/arm/arm-none-eabi/include/c++/10.3.1/bits/stl_deque.h ****       typedef _Deque_iterator<_Tp, const _Tp&, const _Tp*> const_iterator;
 118:/Library/DaisyToolchain/0.2.0/arm/arm-none-eabi/include/c++/10.3.1/bits/stl_deque.h ****       typedef _Tp*					   _Elt_pointer;
 119:/Library/DaisyToolchain/0.2.0/arm/arm-none-eabi/include/c++/10.3.1/bits/stl_deque.h ****       typedef _Tp**					   _Map_pointer;
 120:/Library/DaisyToolchain/0.2.0/arm/arm-none-eabi/include/c++/10.3.1/bits/stl_deque.h **** #else
 121:/Library/DaisyToolchain/0.2.0/arm/arm-none-eabi/include/c++/10.3.1/bits/stl_deque.h ****     private:
 122:/Library/DaisyToolchain/0.2.0/arm/arm-none-eabi/include/c++/10.3.1/bits/stl_deque.h ****       template<typename _CvTp>
 123:/Library/DaisyToolchain/0.2.0/arm/arm-none-eabi/include/c++/10.3.1/bits/stl_deque.h **** 	using __iter = _Deque_iterator<_Tp, _CvTp&, __ptr_rebind<_Ptr, _CvTp>>;
 124:/Library/DaisyToolchain/0.2.0/arm/arm-none-eabi/include/c++/10.3.1/bits/stl_deque.h ****     public:
 125:/Library/DaisyToolchain/0.2.0/arm/arm-none-eabi/include/c++/10.3.1/bits/stl_deque.h ****       typedef __iter<_Tp>				   iterator;
 126:/Library/DaisyToolchain/0.2.0/arm/arm-none-eabi/include/c++/10.3.1/bits/stl_deque.h ****       typedef __iter<const _Tp>				   const_iterator;
 127:/Library/DaisyToolchain/0.2.0/arm/arm-none-eabi/include/c++/10.3.1/bits/stl_deque.h ****       typedef __ptr_rebind<_Ptr, _Tp>			   _Elt_pointer;
 128:/Library/DaisyToolchain/0.2.0/arm/arm-none-eabi/include/c++/10.3.1/bits/stl_deque.h ****       typedef __ptr_rebind<_Ptr, _Elt_pointer>		   _Map_pointer;
 129:/Library/DaisyToolchain/0.2.0/arm/arm-none-eabi/include/c++/10.3.1/bits/stl_deque.h **** #endif
 130:/Library/DaisyToolchain/0.2.0/arm/arm-none-eabi/include/c++/10.3.1/bits/stl_deque.h **** 
 131:/Library/DaisyToolchain/0.2.0/arm/arm-none-eabi/include/c++/10.3.1/bits/stl_deque.h ****       static size_t _S_buffer_size() _GLIBCXX_NOEXCEPT
 132:/Library/DaisyToolchain/0.2.0/arm/arm-none-eabi/include/c++/10.3.1/bits/stl_deque.h ****       { return __deque_buf_size(sizeof(_Tp)); }
 133:/Library/DaisyToolchain/0.2.0/arm/arm-none-eabi/include/c++/10.3.1/bits/stl_deque.h **** 
 134:/Library/DaisyToolchain/0.2.0/arm/arm-none-eabi/include/c++/10.3.1/bits/stl_deque.h ****       typedef std::random_access_iterator_tag	iterator_category;
 135:/Library/DaisyToolchain/0.2.0/arm/arm-none-eabi/include/c++/10.3.1/bits/stl_deque.h ****       typedef _Tp				value_type;
 136:/Library/DaisyToolchain/0.2.0/arm/arm-none-eabi/include/c++/10.3.1/bits/stl_deque.h ****       typedef _Ptr				pointer;
 137:/Library/DaisyToolchain/0.2.0/arm/arm-none-eabi/include/c++/10.3.1/bits/stl_deque.h ****       typedef _Ref				reference;
 138:/Library/DaisyToolchain/0.2.0/arm/arm-none-eabi/include/c++/10.3.1/bits/stl_deque.h ****       typedef size_t				size_type;
 139:/Library/DaisyToolchain/0.2.0/arm/arm-none-eabi/include/c++/10.3.1/bits/stl_deque.h ****       typedef ptrdiff_t				difference_type;
 140:/Library/DaisyToolchain/0.2.0/arm/arm-none-eabi/include/c++/10.3.1/bits/stl_deque.h ****       typedef _Deque_iterator			_Self;
 141:/Library/DaisyToolchain/0.2.0/arm/arm-none-eabi/include/c++/10.3.1/bits/stl_deque.h **** 
 142:/Library/DaisyToolchain/0.2.0/arm/arm-none-eabi/include/c++/10.3.1/bits/stl_deque.h ****       _Elt_pointer _M_cur;
 143:/Library/DaisyToolchain/0.2.0/arm/arm-none-eabi/include/c++/10.3.1/bits/stl_deque.h ****       _Elt_pointer _M_first;
 144:/Library/DaisyToolchain/0.2.0/arm/arm-none-eabi/include/c++/10.3.1/bits/stl_deque.h ****       _Elt_pointer _M_last;
 145:/Library/DaisyToolchain/0.2.0/arm/arm-none-eabi/include/c++/10.3.1/bits/stl_deque.h ****       _Map_pointer _M_node;
 146:/Library/DaisyToolchain/0.2.0/arm/arm-none-eabi/include/c++/10.3.1/bits/stl_deque.h **** 
 147:/Library/DaisyToolchain/0.2.0/arm/arm-none-eabi/include/c++/10.3.1/bits/stl_deque.h ****       _Deque_iterator(_Elt_pointer __x, _Map_pointer __y) _GLIBCXX_NOEXCEPT
 148:/Library/DaisyToolchain/0.2.0/arm/arm-none-eabi/include/c++/10.3.1/bits/stl_deque.h ****       : _M_cur(__x), _M_first(*__y),
 149:/Library/DaisyToolchain/0.2.0/arm/arm-none-eabi/include/c++/10.3.1/bits/stl_deque.h **** 	_M_last(*__y + _S_buffer_size()), _M_node(__y) { }
 150:/Library/DaisyToolchain/0.2.0/arm/arm-none-eabi/include/c++/10.3.1/bits/stl_deque.h **** 
 151:/Library/DaisyToolchain/0.2.0/arm/arm-none-eabi/include/c++/10.3.1/bits/stl_deque.h ****       _Deque_iterator() _GLIBCXX_NOEXCEPT
 152:/Library/DaisyToolchain/0.2.0/arm/arm-none-eabi/include/c++/10.3.1/bits/stl_deque.h ****       : _M_cur(), _M_first(), _M_last(), _M_node() { }
 153:/Library/DaisyToolchain/0.2.0/arm/arm-none-eabi/include/c++/10.3.1/bits/stl_deque.h **** 
 154:/Library/DaisyToolchain/0.2.0/arm/arm-none-eabi/include/c++/10.3.1/bits/stl_deque.h **** #if __cplusplus < 201103L
 155:/Library/DaisyToolchain/0.2.0/arm/arm-none-eabi/include/c++/10.3.1/bits/stl_deque.h ****       // Conversion from iterator to const_iterator.
 156:/Library/DaisyToolchain/0.2.0/arm/arm-none-eabi/include/c++/10.3.1/bits/stl_deque.h ****       _Deque_iterator(const iterator& __x) _GLIBCXX_NOEXCEPT
 157:/Library/DaisyToolchain/0.2.0/arm/arm-none-eabi/include/c++/10.3.1/bits/stl_deque.h ****       : _M_cur(__x._M_cur), _M_first(__x._M_first),
 158:/Library/DaisyToolchain/0.2.0/arm/arm-none-eabi/include/c++/10.3.1/bits/stl_deque.h **** 	_M_last(__x._M_last), _M_node(__x._M_node) { }
 159:/Library/DaisyToolchain/0.2.0/arm/arm-none-eabi/include/c++/10.3.1/bits/stl_deque.h **** #else
 160:/Library/DaisyToolchain/0.2.0/arm/arm-none-eabi/include/c++/10.3.1/bits/stl_deque.h ****       // Conversion from iterator to const_iterator.
 161:/Library/DaisyToolchain/0.2.0/arm/arm-none-eabi/include/c++/10.3.1/bits/stl_deque.h ****       template<typename _Iter,
 162:/Library/DaisyToolchain/0.2.0/arm/arm-none-eabi/include/c++/10.3.1/bits/stl_deque.h **** 	       typename = _Require<is_same<_Self, const_iterator>,
 163:/Library/DaisyToolchain/0.2.0/arm/arm-none-eabi/include/c++/10.3.1/bits/stl_deque.h **** 				   is_same<_Iter, iterator>>>
 164:/Library/DaisyToolchain/0.2.0/arm/arm-none-eabi/include/c++/10.3.1/bits/stl_deque.h ****        _Deque_iterator(const _Iter& __x) noexcept
 165:/Library/DaisyToolchain/0.2.0/arm/arm-none-eabi/include/c++/10.3.1/bits/stl_deque.h ****        : _M_cur(__x._M_cur), _M_first(__x._M_first),
 166:/Library/DaisyToolchain/0.2.0/arm/arm-none-eabi/include/c++/10.3.1/bits/stl_deque.h **** 	 _M_last(__x._M_last), _M_node(__x._M_node) { }
 167:/Library/DaisyToolchain/0.2.0/arm/arm-none-eabi/include/c++/10.3.1/bits/stl_deque.h **** 
ARM GAS  /var/folders/s6/2bsynnl15rj0bwtb9pgx4dc00000gn/T//cc76hY55.s 			page 55


 168:/Library/DaisyToolchain/0.2.0/arm/arm-none-eabi/include/c++/10.3.1/bits/stl_deque.h ****       _Deque_iterator(const _Deque_iterator& __x) noexcept
 169:/Library/DaisyToolchain/0.2.0/arm/arm-none-eabi/include/c++/10.3.1/bits/stl_deque.h ****        : _M_cur(__x._M_cur), _M_first(__x._M_first),
 170:/Library/DaisyToolchain/0.2.0/arm/arm-none-eabi/include/c++/10.3.1/bits/stl_deque.h **** 	 _M_last(__x._M_last), _M_node(__x._M_node) { }
 171:/Library/DaisyToolchain/0.2.0/arm/arm-none-eabi/include/c++/10.3.1/bits/stl_deque.h **** 
 172:/Library/DaisyToolchain/0.2.0/arm/arm-none-eabi/include/c++/10.3.1/bits/stl_deque.h ****       _Deque_iterator& operator=(const _Deque_iterator&) = default;
 173:/Library/DaisyToolchain/0.2.0/arm/arm-none-eabi/include/c++/10.3.1/bits/stl_deque.h **** #endif
 174:/Library/DaisyToolchain/0.2.0/arm/arm-none-eabi/include/c++/10.3.1/bits/stl_deque.h **** 
 175:/Library/DaisyToolchain/0.2.0/arm/arm-none-eabi/include/c++/10.3.1/bits/stl_deque.h ****       iterator
 176:/Library/DaisyToolchain/0.2.0/arm/arm-none-eabi/include/c++/10.3.1/bits/stl_deque.h ****       _M_const_cast() const _GLIBCXX_NOEXCEPT
 177:/Library/DaisyToolchain/0.2.0/arm/arm-none-eabi/include/c++/10.3.1/bits/stl_deque.h ****       { return iterator(_M_cur, _M_node); }
 178:/Library/DaisyToolchain/0.2.0/arm/arm-none-eabi/include/c++/10.3.1/bits/stl_deque.h **** 
 179:/Library/DaisyToolchain/0.2.0/arm/arm-none-eabi/include/c++/10.3.1/bits/stl_deque.h ****       reference
 180:/Library/DaisyToolchain/0.2.0/arm/arm-none-eabi/include/c++/10.3.1/bits/stl_deque.h ****       operator*() const _GLIBCXX_NOEXCEPT
 181:/Library/DaisyToolchain/0.2.0/arm/arm-none-eabi/include/c++/10.3.1/bits/stl_deque.h ****       { return *_M_cur; }
 182:/Library/DaisyToolchain/0.2.0/arm/arm-none-eabi/include/c++/10.3.1/bits/stl_deque.h **** 
 183:/Library/DaisyToolchain/0.2.0/arm/arm-none-eabi/include/c++/10.3.1/bits/stl_deque.h ****       pointer
 184:/Library/DaisyToolchain/0.2.0/arm/arm-none-eabi/include/c++/10.3.1/bits/stl_deque.h ****       operator->() const _GLIBCXX_NOEXCEPT
 185:/Library/DaisyToolchain/0.2.0/arm/arm-none-eabi/include/c++/10.3.1/bits/stl_deque.h ****       { return _M_cur; }
 186:/Library/DaisyToolchain/0.2.0/arm/arm-none-eabi/include/c++/10.3.1/bits/stl_deque.h **** 
 187:/Library/DaisyToolchain/0.2.0/arm/arm-none-eabi/include/c++/10.3.1/bits/stl_deque.h ****       _Self&
 188:/Library/DaisyToolchain/0.2.0/arm/arm-none-eabi/include/c++/10.3.1/bits/stl_deque.h ****       operator++() _GLIBCXX_NOEXCEPT
 189:/Library/DaisyToolchain/0.2.0/arm/arm-none-eabi/include/c++/10.3.1/bits/stl_deque.h ****       {
 190:/Library/DaisyToolchain/0.2.0/arm/arm-none-eabi/include/c++/10.3.1/bits/stl_deque.h **** 	++_M_cur;
 191:/Library/DaisyToolchain/0.2.0/arm/arm-none-eabi/include/c++/10.3.1/bits/stl_deque.h **** 	if (_M_cur == _M_last)
 192:/Library/DaisyToolchain/0.2.0/arm/arm-none-eabi/include/c++/10.3.1/bits/stl_deque.h **** 	  {
 193:/Library/DaisyToolchain/0.2.0/arm/arm-none-eabi/include/c++/10.3.1/bits/stl_deque.h **** 	    _M_set_node(_M_node + 1);
 194:/Library/DaisyToolchain/0.2.0/arm/arm-none-eabi/include/c++/10.3.1/bits/stl_deque.h **** 	    _M_cur = _M_first;
 195:/Library/DaisyToolchain/0.2.0/arm/arm-none-eabi/include/c++/10.3.1/bits/stl_deque.h **** 	  }
 196:/Library/DaisyToolchain/0.2.0/arm/arm-none-eabi/include/c++/10.3.1/bits/stl_deque.h **** 	return *this;
 197:/Library/DaisyToolchain/0.2.0/arm/arm-none-eabi/include/c++/10.3.1/bits/stl_deque.h ****       }
 198:/Library/DaisyToolchain/0.2.0/arm/arm-none-eabi/include/c++/10.3.1/bits/stl_deque.h **** 
 199:/Library/DaisyToolchain/0.2.0/arm/arm-none-eabi/include/c++/10.3.1/bits/stl_deque.h ****       _Self
 200:/Library/DaisyToolchain/0.2.0/arm/arm-none-eabi/include/c++/10.3.1/bits/stl_deque.h ****       operator++(int) _GLIBCXX_NOEXCEPT
 201:/Library/DaisyToolchain/0.2.0/arm/arm-none-eabi/include/c++/10.3.1/bits/stl_deque.h ****       {
 202:/Library/DaisyToolchain/0.2.0/arm/arm-none-eabi/include/c++/10.3.1/bits/stl_deque.h **** 	_Self __tmp = *this;
 203:/Library/DaisyToolchain/0.2.0/arm/arm-none-eabi/include/c++/10.3.1/bits/stl_deque.h **** 	++*this;
 204:/Library/DaisyToolchain/0.2.0/arm/arm-none-eabi/include/c++/10.3.1/bits/stl_deque.h **** 	return __tmp;
 205:/Library/DaisyToolchain/0.2.0/arm/arm-none-eabi/include/c++/10.3.1/bits/stl_deque.h ****       }
 206:/Library/DaisyToolchain/0.2.0/arm/arm-none-eabi/include/c++/10.3.1/bits/stl_deque.h **** 
 207:/Library/DaisyToolchain/0.2.0/arm/arm-none-eabi/include/c++/10.3.1/bits/stl_deque.h ****       _Self&
 208:/Library/DaisyToolchain/0.2.0/arm/arm-none-eabi/include/c++/10.3.1/bits/stl_deque.h ****       operator--() _GLIBCXX_NOEXCEPT
 209:/Library/DaisyToolchain/0.2.0/arm/arm-none-eabi/include/c++/10.3.1/bits/stl_deque.h ****       {
 210:/Library/DaisyToolchain/0.2.0/arm/arm-none-eabi/include/c++/10.3.1/bits/stl_deque.h **** 	if (_M_cur == _M_first)
 211:/Library/DaisyToolchain/0.2.0/arm/arm-none-eabi/include/c++/10.3.1/bits/stl_deque.h **** 	  {
 212:/Library/DaisyToolchain/0.2.0/arm/arm-none-eabi/include/c++/10.3.1/bits/stl_deque.h **** 	    _M_set_node(_M_node - 1);
 213:/Library/DaisyToolchain/0.2.0/arm/arm-none-eabi/include/c++/10.3.1/bits/stl_deque.h **** 	    _M_cur = _M_last;
 214:/Library/DaisyToolchain/0.2.0/arm/arm-none-eabi/include/c++/10.3.1/bits/stl_deque.h **** 	  }
 215:/Library/DaisyToolchain/0.2.0/arm/arm-none-eabi/include/c++/10.3.1/bits/stl_deque.h **** 	--_M_cur;
 216:/Library/DaisyToolchain/0.2.0/arm/arm-none-eabi/include/c++/10.3.1/bits/stl_deque.h **** 	return *this;
 217:/Library/DaisyToolchain/0.2.0/arm/arm-none-eabi/include/c++/10.3.1/bits/stl_deque.h ****       }
 218:/Library/DaisyToolchain/0.2.0/arm/arm-none-eabi/include/c++/10.3.1/bits/stl_deque.h **** 
 219:/Library/DaisyToolchain/0.2.0/arm/arm-none-eabi/include/c++/10.3.1/bits/stl_deque.h ****       _Self
 220:/Library/DaisyToolchain/0.2.0/arm/arm-none-eabi/include/c++/10.3.1/bits/stl_deque.h ****       operator--(int) _GLIBCXX_NOEXCEPT
 221:/Library/DaisyToolchain/0.2.0/arm/arm-none-eabi/include/c++/10.3.1/bits/stl_deque.h ****       {
 222:/Library/DaisyToolchain/0.2.0/arm/arm-none-eabi/include/c++/10.3.1/bits/stl_deque.h **** 	_Self __tmp = *this;
 223:/Library/DaisyToolchain/0.2.0/arm/arm-none-eabi/include/c++/10.3.1/bits/stl_deque.h **** 	--*this;
 224:/Library/DaisyToolchain/0.2.0/arm/arm-none-eabi/include/c++/10.3.1/bits/stl_deque.h **** 	return __tmp;
ARM GAS  /var/folders/s6/2bsynnl15rj0bwtb9pgx4dc00000gn/T//cc76hY55.s 			page 56


 225:/Library/DaisyToolchain/0.2.0/arm/arm-none-eabi/include/c++/10.3.1/bits/stl_deque.h ****       }
 226:/Library/DaisyToolchain/0.2.0/arm/arm-none-eabi/include/c++/10.3.1/bits/stl_deque.h **** 
 227:/Library/DaisyToolchain/0.2.0/arm/arm-none-eabi/include/c++/10.3.1/bits/stl_deque.h ****       _Self&
 228:/Library/DaisyToolchain/0.2.0/arm/arm-none-eabi/include/c++/10.3.1/bits/stl_deque.h ****       operator+=(difference_type __n) _GLIBCXX_NOEXCEPT
 229:/Library/DaisyToolchain/0.2.0/arm/arm-none-eabi/include/c++/10.3.1/bits/stl_deque.h ****       {
 230:/Library/DaisyToolchain/0.2.0/arm/arm-none-eabi/include/c++/10.3.1/bits/stl_deque.h **** 	const difference_type __offset = __n + (_M_cur - _M_first);
 231:/Library/DaisyToolchain/0.2.0/arm/arm-none-eabi/include/c++/10.3.1/bits/stl_deque.h **** 	if (__offset >= 0 && __offset < difference_type(_S_buffer_size()))
 232:/Library/DaisyToolchain/0.2.0/arm/arm-none-eabi/include/c++/10.3.1/bits/stl_deque.h **** 	  _M_cur += __n;
 233:/Library/DaisyToolchain/0.2.0/arm/arm-none-eabi/include/c++/10.3.1/bits/stl_deque.h **** 	else
 234:/Library/DaisyToolchain/0.2.0/arm/arm-none-eabi/include/c++/10.3.1/bits/stl_deque.h **** 	  {
 235:/Library/DaisyToolchain/0.2.0/arm/arm-none-eabi/include/c++/10.3.1/bits/stl_deque.h **** 	    const difference_type __node_offset =
 236:/Library/DaisyToolchain/0.2.0/arm/arm-none-eabi/include/c++/10.3.1/bits/stl_deque.h **** 	      __offset > 0 ? __offset / difference_type(_S_buffer_size())
 237:/Library/DaisyToolchain/0.2.0/arm/arm-none-eabi/include/c++/10.3.1/bits/stl_deque.h **** 			   : -difference_type((-__offset - 1)
 238:/Library/DaisyToolchain/0.2.0/arm/arm-none-eabi/include/c++/10.3.1/bits/stl_deque.h **** 					      / _S_buffer_size()) - 1;
 239:/Library/DaisyToolchain/0.2.0/arm/arm-none-eabi/include/c++/10.3.1/bits/stl_deque.h **** 	    _M_set_node(_M_node + __node_offset);
 240:/Library/DaisyToolchain/0.2.0/arm/arm-none-eabi/include/c++/10.3.1/bits/stl_deque.h **** 	    _M_cur = _M_first + (__offset - __node_offset
 241:/Library/DaisyToolchain/0.2.0/arm/arm-none-eabi/include/c++/10.3.1/bits/stl_deque.h **** 				 * difference_type(_S_buffer_size()));
 242:/Library/DaisyToolchain/0.2.0/arm/arm-none-eabi/include/c++/10.3.1/bits/stl_deque.h **** 	  }
 243:/Library/DaisyToolchain/0.2.0/arm/arm-none-eabi/include/c++/10.3.1/bits/stl_deque.h **** 	return *this;
 244:/Library/DaisyToolchain/0.2.0/arm/arm-none-eabi/include/c++/10.3.1/bits/stl_deque.h ****       }
 245:/Library/DaisyToolchain/0.2.0/arm/arm-none-eabi/include/c++/10.3.1/bits/stl_deque.h **** 
 246:/Library/DaisyToolchain/0.2.0/arm/arm-none-eabi/include/c++/10.3.1/bits/stl_deque.h ****       _Self&
 247:/Library/DaisyToolchain/0.2.0/arm/arm-none-eabi/include/c++/10.3.1/bits/stl_deque.h ****       operator-=(difference_type __n) _GLIBCXX_NOEXCEPT
 248:/Library/DaisyToolchain/0.2.0/arm/arm-none-eabi/include/c++/10.3.1/bits/stl_deque.h ****       { return *this += -__n; }
 249:/Library/DaisyToolchain/0.2.0/arm/arm-none-eabi/include/c++/10.3.1/bits/stl_deque.h **** 
 250:/Library/DaisyToolchain/0.2.0/arm/arm-none-eabi/include/c++/10.3.1/bits/stl_deque.h ****       reference
 251:/Library/DaisyToolchain/0.2.0/arm/arm-none-eabi/include/c++/10.3.1/bits/stl_deque.h ****       operator[](difference_type __n) const _GLIBCXX_NOEXCEPT
 252:/Library/DaisyToolchain/0.2.0/arm/arm-none-eabi/include/c++/10.3.1/bits/stl_deque.h ****       { return *(*this + __n); }
 253:/Library/DaisyToolchain/0.2.0/arm/arm-none-eabi/include/c++/10.3.1/bits/stl_deque.h **** 
 254:/Library/DaisyToolchain/0.2.0/arm/arm-none-eabi/include/c++/10.3.1/bits/stl_deque.h ****       /**
 255:/Library/DaisyToolchain/0.2.0/arm/arm-none-eabi/include/c++/10.3.1/bits/stl_deque.h ****        *  Prepares to traverse new_node.  Sets everything except
 256:/Library/DaisyToolchain/0.2.0/arm/arm-none-eabi/include/c++/10.3.1/bits/stl_deque.h ****        *  _M_cur, which should therefore be set by the caller
 257:/Library/DaisyToolchain/0.2.0/arm/arm-none-eabi/include/c++/10.3.1/bits/stl_deque.h ****        *  immediately afterwards, based on _M_first and _M_last.
 258:/Library/DaisyToolchain/0.2.0/arm/arm-none-eabi/include/c++/10.3.1/bits/stl_deque.h ****        */
 259:/Library/DaisyToolchain/0.2.0/arm/arm-none-eabi/include/c++/10.3.1/bits/stl_deque.h ****       void
 260:/Library/DaisyToolchain/0.2.0/arm/arm-none-eabi/include/c++/10.3.1/bits/stl_deque.h ****       _M_set_node(_Map_pointer __new_node) _GLIBCXX_NOEXCEPT
 261:/Library/DaisyToolchain/0.2.0/arm/arm-none-eabi/include/c++/10.3.1/bits/stl_deque.h ****       {
 262:/Library/DaisyToolchain/0.2.0/arm/arm-none-eabi/include/c++/10.3.1/bits/stl_deque.h **** 	_M_node = __new_node;
 263:/Library/DaisyToolchain/0.2.0/arm/arm-none-eabi/include/c++/10.3.1/bits/stl_deque.h **** 	_M_first = *__new_node;
 264:/Library/DaisyToolchain/0.2.0/arm/arm-none-eabi/include/c++/10.3.1/bits/stl_deque.h **** 	_M_last = _M_first + difference_type(_S_buffer_size());
 265:/Library/DaisyToolchain/0.2.0/arm/arm-none-eabi/include/c++/10.3.1/bits/stl_deque.h ****       }
 266:/Library/DaisyToolchain/0.2.0/arm/arm-none-eabi/include/c++/10.3.1/bits/stl_deque.h **** 
 267:/Library/DaisyToolchain/0.2.0/arm/arm-none-eabi/include/c++/10.3.1/bits/stl_deque.h ****       friend bool
 268:/Library/DaisyToolchain/0.2.0/arm/arm-none-eabi/include/c++/10.3.1/bits/stl_deque.h ****       operator==(const _Self& __x, const _Self& __y) _GLIBCXX_NOEXCEPT
 269:/Library/DaisyToolchain/0.2.0/arm/arm-none-eabi/include/c++/10.3.1/bits/stl_deque.h ****       { return __x._M_cur == __y._M_cur; }
 270:/Library/DaisyToolchain/0.2.0/arm/arm-none-eabi/include/c++/10.3.1/bits/stl_deque.h **** 
 271:/Library/DaisyToolchain/0.2.0/arm/arm-none-eabi/include/c++/10.3.1/bits/stl_deque.h ****       // Note: we also provide overloads whose operands are of the same type in
 272:/Library/DaisyToolchain/0.2.0/arm/arm-none-eabi/include/c++/10.3.1/bits/stl_deque.h ****       // order to avoid ambiguous overload resolution when std::rel_ops
 273:/Library/DaisyToolchain/0.2.0/arm/arm-none-eabi/include/c++/10.3.1/bits/stl_deque.h ****       // operators are in scope (for additional details, see libstdc++/3628)
 274:/Library/DaisyToolchain/0.2.0/arm/arm-none-eabi/include/c++/10.3.1/bits/stl_deque.h ****       template<typename _RefR, typename _PtrR>
 275:/Library/DaisyToolchain/0.2.0/arm/arm-none-eabi/include/c++/10.3.1/bits/stl_deque.h **** 	friend bool
 276:/Library/DaisyToolchain/0.2.0/arm/arm-none-eabi/include/c++/10.3.1/bits/stl_deque.h **** 	operator==(const _Self& __x,
 277:/Library/DaisyToolchain/0.2.0/arm/arm-none-eabi/include/c++/10.3.1/bits/stl_deque.h **** 		   const _Deque_iterator<_Tp, _RefR, _PtrR>& __y)
 278:/Library/DaisyToolchain/0.2.0/arm/arm-none-eabi/include/c++/10.3.1/bits/stl_deque.h **** 	_GLIBCXX_NOEXCEPT
 279:/Library/DaisyToolchain/0.2.0/arm/arm-none-eabi/include/c++/10.3.1/bits/stl_deque.h **** 	{ return __x._M_cur == __y._M_cur; }
 280:/Library/DaisyToolchain/0.2.0/arm/arm-none-eabi/include/c++/10.3.1/bits/stl_deque.h **** 
 281:/Library/DaisyToolchain/0.2.0/arm/arm-none-eabi/include/c++/10.3.1/bits/stl_deque.h **** #if __cpp_lib_three_way_comparison
ARM GAS  /var/folders/s6/2bsynnl15rj0bwtb9pgx4dc00000gn/T//cc76hY55.s 			page 57


 282:/Library/DaisyToolchain/0.2.0/arm/arm-none-eabi/include/c++/10.3.1/bits/stl_deque.h ****       friend strong_ordering
 283:/Library/DaisyToolchain/0.2.0/arm/arm-none-eabi/include/c++/10.3.1/bits/stl_deque.h ****       operator<=>(const _Self& __x, const _Self& __y) noexcept
 284:/Library/DaisyToolchain/0.2.0/arm/arm-none-eabi/include/c++/10.3.1/bits/stl_deque.h ****       {
 285:/Library/DaisyToolchain/0.2.0/arm/arm-none-eabi/include/c++/10.3.1/bits/stl_deque.h **** 	if (const auto __cmp = __x._M_node <=> __y._M_node; __cmp != 0)
 286:/Library/DaisyToolchain/0.2.0/arm/arm-none-eabi/include/c++/10.3.1/bits/stl_deque.h **** 	  return __cmp;
 287:/Library/DaisyToolchain/0.2.0/arm/arm-none-eabi/include/c++/10.3.1/bits/stl_deque.h **** 	return __x._M_cur <=> __y._M_cur;
 288:/Library/DaisyToolchain/0.2.0/arm/arm-none-eabi/include/c++/10.3.1/bits/stl_deque.h ****       }
 289:/Library/DaisyToolchain/0.2.0/arm/arm-none-eabi/include/c++/10.3.1/bits/stl_deque.h **** #else
 290:/Library/DaisyToolchain/0.2.0/arm/arm-none-eabi/include/c++/10.3.1/bits/stl_deque.h ****       friend bool
 291:/Library/DaisyToolchain/0.2.0/arm/arm-none-eabi/include/c++/10.3.1/bits/stl_deque.h ****       operator!=(const _Self& __x, const _Self& __y) _GLIBCXX_NOEXCEPT
 292:/Library/DaisyToolchain/0.2.0/arm/arm-none-eabi/include/c++/10.3.1/bits/stl_deque.h ****       { return !(__x == __y); }
 293:/Library/DaisyToolchain/0.2.0/arm/arm-none-eabi/include/c++/10.3.1/bits/stl_deque.h **** 
 294:/Library/DaisyToolchain/0.2.0/arm/arm-none-eabi/include/c++/10.3.1/bits/stl_deque.h ****       template<typename _RefR, typename _PtrR>
 295:/Library/DaisyToolchain/0.2.0/arm/arm-none-eabi/include/c++/10.3.1/bits/stl_deque.h **** 	friend bool
 296:/Library/DaisyToolchain/0.2.0/arm/arm-none-eabi/include/c++/10.3.1/bits/stl_deque.h **** 	operator!=(const _Self& __x,
 297:/Library/DaisyToolchain/0.2.0/arm/arm-none-eabi/include/c++/10.3.1/bits/stl_deque.h **** 		   const _Deque_iterator<_Tp, _RefR, _PtrR>& __y)
 298:/Library/DaisyToolchain/0.2.0/arm/arm-none-eabi/include/c++/10.3.1/bits/stl_deque.h **** 	_GLIBCXX_NOEXCEPT
 299:/Library/DaisyToolchain/0.2.0/arm/arm-none-eabi/include/c++/10.3.1/bits/stl_deque.h **** 	{ return !(__x == __y); }
 300:/Library/DaisyToolchain/0.2.0/arm/arm-none-eabi/include/c++/10.3.1/bits/stl_deque.h **** 
 301:/Library/DaisyToolchain/0.2.0/arm/arm-none-eabi/include/c++/10.3.1/bits/stl_deque.h ****       friend bool
 302:/Library/DaisyToolchain/0.2.0/arm/arm-none-eabi/include/c++/10.3.1/bits/stl_deque.h ****       operator<(const _Self& __x, const _Self& __y) _GLIBCXX_NOEXCEPT
 303:/Library/DaisyToolchain/0.2.0/arm/arm-none-eabi/include/c++/10.3.1/bits/stl_deque.h ****       {
 304:/Library/DaisyToolchain/0.2.0/arm/arm-none-eabi/include/c++/10.3.1/bits/stl_deque.h **** 	return (__x._M_node == __y._M_node)
 305:/Library/DaisyToolchain/0.2.0/arm/arm-none-eabi/include/c++/10.3.1/bits/stl_deque.h **** 	  ? (__x._M_cur < __y._M_cur) : (__x._M_node < __y._M_node);
 306:/Library/DaisyToolchain/0.2.0/arm/arm-none-eabi/include/c++/10.3.1/bits/stl_deque.h ****       }
 307:/Library/DaisyToolchain/0.2.0/arm/arm-none-eabi/include/c++/10.3.1/bits/stl_deque.h **** 
 308:/Library/DaisyToolchain/0.2.0/arm/arm-none-eabi/include/c++/10.3.1/bits/stl_deque.h ****       template<typename _RefR, typename _PtrR>
 309:/Library/DaisyToolchain/0.2.0/arm/arm-none-eabi/include/c++/10.3.1/bits/stl_deque.h **** 	friend bool
 310:/Library/DaisyToolchain/0.2.0/arm/arm-none-eabi/include/c++/10.3.1/bits/stl_deque.h **** 	operator<(const _Self& __x,
 311:/Library/DaisyToolchain/0.2.0/arm/arm-none-eabi/include/c++/10.3.1/bits/stl_deque.h **** 		  const _Deque_iterator<_Tp, _RefR, _PtrR>& __y)
 312:/Library/DaisyToolchain/0.2.0/arm/arm-none-eabi/include/c++/10.3.1/bits/stl_deque.h **** 	_GLIBCXX_NOEXCEPT
 313:/Library/DaisyToolchain/0.2.0/arm/arm-none-eabi/include/c++/10.3.1/bits/stl_deque.h **** 	{
 314:/Library/DaisyToolchain/0.2.0/arm/arm-none-eabi/include/c++/10.3.1/bits/stl_deque.h **** 	  return (__x._M_node == __y._M_node)
 315:/Library/DaisyToolchain/0.2.0/arm/arm-none-eabi/include/c++/10.3.1/bits/stl_deque.h **** 	    ? (__x._M_cur < __y._M_cur) : (__x._M_node < __y._M_node);
 316:/Library/DaisyToolchain/0.2.0/arm/arm-none-eabi/include/c++/10.3.1/bits/stl_deque.h **** 	}
 317:/Library/DaisyToolchain/0.2.0/arm/arm-none-eabi/include/c++/10.3.1/bits/stl_deque.h **** 
 318:/Library/DaisyToolchain/0.2.0/arm/arm-none-eabi/include/c++/10.3.1/bits/stl_deque.h ****       friend bool
 319:/Library/DaisyToolchain/0.2.0/arm/arm-none-eabi/include/c++/10.3.1/bits/stl_deque.h ****       operator>(const _Self& __x, const _Self& __y) _GLIBCXX_NOEXCEPT
 320:/Library/DaisyToolchain/0.2.0/arm/arm-none-eabi/include/c++/10.3.1/bits/stl_deque.h ****       { return __y < __x; }
 321:/Library/DaisyToolchain/0.2.0/arm/arm-none-eabi/include/c++/10.3.1/bits/stl_deque.h **** 
 322:/Library/DaisyToolchain/0.2.0/arm/arm-none-eabi/include/c++/10.3.1/bits/stl_deque.h ****       template<typename _RefR, typename _PtrR>
 323:/Library/DaisyToolchain/0.2.0/arm/arm-none-eabi/include/c++/10.3.1/bits/stl_deque.h **** 	friend bool
 324:/Library/DaisyToolchain/0.2.0/arm/arm-none-eabi/include/c++/10.3.1/bits/stl_deque.h **** 	operator>(const _Self& __x,
 325:/Library/DaisyToolchain/0.2.0/arm/arm-none-eabi/include/c++/10.3.1/bits/stl_deque.h **** 		  const _Deque_iterator<_Tp, _RefR, _PtrR>& __y)
 326:/Library/DaisyToolchain/0.2.0/arm/arm-none-eabi/include/c++/10.3.1/bits/stl_deque.h **** 	_GLIBCXX_NOEXCEPT
 327:/Library/DaisyToolchain/0.2.0/arm/arm-none-eabi/include/c++/10.3.1/bits/stl_deque.h **** 	{ return __y < __x; }
 328:/Library/DaisyToolchain/0.2.0/arm/arm-none-eabi/include/c++/10.3.1/bits/stl_deque.h **** 
 329:/Library/DaisyToolchain/0.2.0/arm/arm-none-eabi/include/c++/10.3.1/bits/stl_deque.h ****       friend bool
 330:/Library/DaisyToolchain/0.2.0/arm/arm-none-eabi/include/c++/10.3.1/bits/stl_deque.h ****       operator<=(const _Self& __x, const _Self& __y) _GLIBCXX_NOEXCEPT
 331:/Library/DaisyToolchain/0.2.0/arm/arm-none-eabi/include/c++/10.3.1/bits/stl_deque.h ****       { return !(__y < __x); }
 332:/Library/DaisyToolchain/0.2.0/arm/arm-none-eabi/include/c++/10.3.1/bits/stl_deque.h **** 
 333:/Library/DaisyToolchain/0.2.0/arm/arm-none-eabi/include/c++/10.3.1/bits/stl_deque.h ****       template<typename _RefR, typename _PtrR>
 334:/Library/DaisyToolchain/0.2.0/arm/arm-none-eabi/include/c++/10.3.1/bits/stl_deque.h **** 	friend bool
 335:/Library/DaisyToolchain/0.2.0/arm/arm-none-eabi/include/c++/10.3.1/bits/stl_deque.h **** 	operator<=(const _Self& __x,
 336:/Library/DaisyToolchain/0.2.0/arm/arm-none-eabi/include/c++/10.3.1/bits/stl_deque.h **** 		   const _Deque_iterator<_Tp, _RefR, _PtrR>& __y)
 337:/Library/DaisyToolchain/0.2.0/arm/arm-none-eabi/include/c++/10.3.1/bits/stl_deque.h **** 	_GLIBCXX_NOEXCEPT
 338:/Library/DaisyToolchain/0.2.0/arm/arm-none-eabi/include/c++/10.3.1/bits/stl_deque.h **** 	{ return !(__y < __x); }
ARM GAS  /var/folders/s6/2bsynnl15rj0bwtb9pgx4dc00000gn/T//cc76hY55.s 			page 58


 339:/Library/DaisyToolchain/0.2.0/arm/arm-none-eabi/include/c++/10.3.1/bits/stl_deque.h **** 
 340:/Library/DaisyToolchain/0.2.0/arm/arm-none-eabi/include/c++/10.3.1/bits/stl_deque.h ****       friend bool
 341:/Library/DaisyToolchain/0.2.0/arm/arm-none-eabi/include/c++/10.3.1/bits/stl_deque.h ****       operator>=(const _Self& __x, const _Self& __y) _GLIBCXX_NOEXCEPT
 342:/Library/DaisyToolchain/0.2.0/arm/arm-none-eabi/include/c++/10.3.1/bits/stl_deque.h ****       { return !(__x < __y); }
 343:/Library/DaisyToolchain/0.2.0/arm/arm-none-eabi/include/c++/10.3.1/bits/stl_deque.h **** 
 344:/Library/DaisyToolchain/0.2.0/arm/arm-none-eabi/include/c++/10.3.1/bits/stl_deque.h ****       template<typename _RefR, typename _PtrR>
 345:/Library/DaisyToolchain/0.2.0/arm/arm-none-eabi/include/c++/10.3.1/bits/stl_deque.h **** 	friend bool
 346:/Library/DaisyToolchain/0.2.0/arm/arm-none-eabi/include/c++/10.3.1/bits/stl_deque.h **** 	operator>=(const _Self& __x,
 347:/Library/DaisyToolchain/0.2.0/arm/arm-none-eabi/include/c++/10.3.1/bits/stl_deque.h **** 		   const _Deque_iterator<_Tp, _RefR, _PtrR>& __y)
 348:/Library/DaisyToolchain/0.2.0/arm/arm-none-eabi/include/c++/10.3.1/bits/stl_deque.h **** 	_GLIBCXX_NOEXCEPT
 349:/Library/DaisyToolchain/0.2.0/arm/arm-none-eabi/include/c++/10.3.1/bits/stl_deque.h **** 	{ return !(__x < __y); }
 350:/Library/DaisyToolchain/0.2.0/arm/arm-none-eabi/include/c++/10.3.1/bits/stl_deque.h **** #endif // three-way comparison
 351:/Library/DaisyToolchain/0.2.0/arm/arm-none-eabi/include/c++/10.3.1/bits/stl_deque.h **** 
 352:/Library/DaisyToolchain/0.2.0/arm/arm-none-eabi/include/c++/10.3.1/bits/stl_deque.h ****       friend difference_type
 353:/Library/DaisyToolchain/0.2.0/arm/arm-none-eabi/include/c++/10.3.1/bits/stl_deque.h ****       operator-(const _Self& __x, const _Self& __y) _GLIBCXX_NOEXCEPT
 354:/Library/DaisyToolchain/0.2.0/arm/arm-none-eabi/include/c++/10.3.1/bits/stl_deque.h ****       {
 355:/Library/DaisyToolchain/0.2.0/arm/arm-none-eabi/include/c++/10.3.1/bits/stl_deque.h **** 	return difference_type(_S_buffer_size())
 356:/Library/DaisyToolchain/0.2.0/arm/arm-none-eabi/include/c++/10.3.1/bits/stl_deque.h **** 	  * (__x._M_node - __y._M_node - 1) + (__x._M_cur - __x._M_first)
 357:/Library/DaisyToolchain/0.2.0/arm/arm-none-eabi/include/c++/10.3.1/bits/stl_deque.h **** 	  + (__y._M_last - __y._M_cur);
 358:/Library/DaisyToolchain/0.2.0/arm/arm-none-eabi/include/c++/10.3.1/bits/stl_deque.h ****       }
 359:/Library/DaisyToolchain/0.2.0/arm/arm-none-eabi/include/c++/10.3.1/bits/stl_deque.h **** 
 360:/Library/DaisyToolchain/0.2.0/arm/arm-none-eabi/include/c++/10.3.1/bits/stl_deque.h ****       // _GLIBCXX_RESOLVE_LIB_DEFECTS
 361:/Library/DaisyToolchain/0.2.0/arm/arm-none-eabi/include/c++/10.3.1/bits/stl_deque.h ****       // According to the resolution of DR179 not only the various comparison
 362:/Library/DaisyToolchain/0.2.0/arm/arm-none-eabi/include/c++/10.3.1/bits/stl_deque.h ****       // operators but also operator- must accept mixed iterator/const_iterator
 363:/Library/DaisyToolchain/0.2.0/arm/arm-none-eabi/include/c++/10.3.1/bits/stl_deque.h ****       // parameters.
 364:/Library/DaisyToolchain/0.2.0/arm/arm-none-eabi/include/c++/10.3.1/bits/stl_deque.h ****       template<typename _RefR, typename _PtrR>
 365:/Library/DaisyToolchain/0.2.0/arm/arm-none-eabi/include/c++/10.3.1/bits/stl_deque.h **** 	friend difference_type
 366:/Library/DaisyToolchain/0.2.0/arm/arm-none-eabi/include/c++/10.3.1/bits/stl_deque.h **** 	operator-(const _Self& __x,
 367:/Library/DaisyToolchain/0.2.0/arm/arm-none-eabi/include/c++/10.3.1/bits/stl_deque.h **** 		  const _Deque_iterator<_Tp, _RefR, _PtrR>& __y) _GLIBCXX_NOEXCEPT
 368:/Library/DaisyToolchain/0.2.0/arm/arm-none-eabi/include/c++/10.3.1/bits/stl_deque.h **** 	{
 369:/Library/DaisyToolchain/0.2.0/arm/arm-none-eabi/include/c++/10.3.1/bits/stl_deque.h **** 	  return difference_type(_S_buffer_size())
 370:/Library/DaisyToolchain/0.2.0/arm/arm-none-eabi/include/c++/10.3.1/bits/stl_deque.h **** 	    * (__x._M_node - __y._M_node - 1) + (__x._M_cur - __x._M_first)
 371:/Library/DaisyToolchain/0.2.0/arm/arm-none-eabi/include/c++/10.3.1/bits/stl_deque.h **** 	    + (__y._M_last - __y._M_cur);
 372:/Library/DaisyToolchain/0.2.0/arm/arm-none-eabi/include/c++/10.3.1/bits/stl_deque.h **** 	}
 373:/Library/DaisyToolchain/0.2.0/arm/arm-none-eabi/include/c++/10.3.1/bits/stl_deque.h **** 
 374:/Library/DaisyToolchain/0.2.0/arm/arm-none-eabi/include/c++/10.3.1/bits/stl_deque.h ****       friend _Self
 375:/Library/DaisyToolchain/0.2.0/arm/arm-none-eabi/include/c++/10.3.1/bits/stl_deque.h ****       operator+(const _Self& __x, difference_type __n) _GLIBCXX_NOEXCEPT
 376:/Library/DaisyToolchain/0.2.0/arm/arm-none-eabi/include/c++/10.3.1/bits/stl_deque.h ****       {
 377:/Library/DaisyToolchain/0.2.0/arm/arm-none-eabi/include/c++/10.3.1/bits/stl_deque.h **** 	_Self __tmp = __x;
 378:/Library/DaisyToolchain/0.2.0/arm/arm-none-eabi/include/c++/10.3.1/bits/stl_deque.h **** 	__tmp += __n;
 379:/Library/DaisyToolchain/0.2.0/arm/arm-none-eabi/include/c++/10.3.1/bits/stl_deque.h **** 	return __tmp;
 380:/Library/DaisyToolchain/0.2.0/arm/arm-none-eabi/include/c++/10.3.1/bits/stl_deque.h ****       }
 381:/Library/DaisyToolchain/0.2.0/arm/arm-none-eabi/include/c++/10.3.1/bits/stl_deque.h **** 
 382:/Library/DaisyToolchain/0.2.0/arm/arm-none-eabi/include/c++/10.3.1/bits/stl_deque.h ****       friend _Self
 383:/Library/DaisyToolchain/0.2.0/arm/arm-none-eabi/include/c++/10.3.1/bits/stl_deque.h ****       operator-(const _Self& __x, difference_type __n) _GLIBCXX_NOEXCEPT
 384:/Library/DaisyToolchain/0.2.0/arm/arm-none-eabi/include/c++/10.3.1/bits/stl_deque.h ****       {
 385:/Library/DaisyToolchain/0.2.0/arm/arm-none-eabi/include/c++/10.3.1/bits/stl_deque.h **** 	_Self __tmp = __x;
 386:/Library/DaisyToolchain/0.2.0/arm/arm-none-eabi/include/c++/10.3.1/bits/stl_deque.h **** 	__tmp -= __n;
 387:/Library/DaisyToolchain/0.2.0/arm/arm-none-eabi/include/c++/10.3.1/bits/stl_deque.h **** 	return __tmp;
 388:/Library/DaisyToolchain/0.2.0/arm/arm-none-eabi/include/c++/10.3.1/bits/stl_deque.h ****       }
 389:/Library/DaisyToolchain/0.2.0/arm/arm-none-eabi/include/c++/10.3.1/bits/stl_deque.h **** 
 390:/Library/DaisyToolchain/0.2.0/arm/arm-none-eabi/include/c++/10.3.1/bits/stl_deque.h ****       friend _Self
 391:/Library/DaisyToolchain/0.2.0/arm/arm-none-eabi/include/c++/10.3.1/bits/stl_deque.h ****       operator+(difference_type __n, const _Self& __x) _GLIBCXX_NOEXCEPT
 392:/Library/DaisyToolchain/0.2.0/arm/arm-none-eabi/include/c++/10.3.1/bits/stl_deque.h ****       { return __x + __n; }
 393:/Library/DaisyToolchain/0.2.0/arm/arm-none-eabi/include/c++/10.3.1/bits/stl_deque.h ****     };
 394:/Library/DaisyToolchain/0.2.0/arm/arm-none-eabi/include/c++/10.3.1/bits/stl_deque.h **** 
 395:/Library/DaisyToolchain/0.2.0/arm/arm-none-eabi/include/c++/10.3.1/bits/stl_deque.h ****   /**
ARM GAS  /var/folders/s6/2bsynnl15rj0bwtb9pgx4dc00000gn/T//cc76hY55.s 			page 59


 396:/Library/DaisyToolchain/0.2.0/arm/arm-none-eabi/include/c++/10.3.1/bits/stl_deque.h ****    *  Deque base class.  This class provides the unified face for %deque's
 397:/Library/DaisyToolchain/0.2.0/arm/arm-none-eabi/include/c++/10.3.1/bits/stl_deque.h ****    *  allocation.  This class's constructor and destructor allocate and
 398:/Library/DaisyToolchain/0.2.0/arm/arm-none-eabi/include/c++/10.3.1/bits/stl_deque.h ****    *  deallocate (but do not initialize) storage.  This makes %exception
 399:/Library/DaisyToolchain/0.2.0/arm/arm-none-eabi/include/c++/10.3.1/bits/stl_deque.h ****    *  safety easier.
 400:/Library/DaisyToolchain/0.2.0/arm/arm-none-eabi/include/c++/10.3.1/bits/stl_deque.h ****    *
 401:/Library/DaisyToolchain/0.2.0/arm/arm-none-eabi/include/c++/10.3.1/bits/stl_deque.h ****    *  Nothing in this class ever constructs or destroys an actual Tp element.
 402:/Library/DaisyToolchain/0.2.0/arm/arm-none-eabi/include/c++/10.3.1/bits/stl_deque.h ****    *  (Deque handles that itself.)  Only/All memory management is performed
 403:/Library/DaisyToolchain/0.2.0/arm/arm-none-eabi/include/c++/10.3.1/bits/stl_deque.h ****    *  here.
 404:/Library/DaisyToolchain/0.2.0/arm/arm-none-eabi/include/c++/10.3.1/bits/stl_deque.h ****   */
 405:/Library/DaisyToolchain/0.2.0/arm/arm-none-eabi/include/c++/10.3.1/bits/stl_deque.h ****   template<typename _Tp, typename _Alloc>
 406:/Library/DaisyToolchain/0.2.0/arm/arm-none-eabi/include/c++/10.3.1/bits/stl_deque.h ****     class _Deque_base
 407:/Library/DaisyToolchain/0.2.0/arm/arm-none-eabi/include/c++/10.3.1/bits/stl_deque.h ****     {
 408:/Library/DaisyToolchain/0.2.0/arm/arm-none-eabi/include/c++/10.3.1/bits/stl_deque.h ****     protected:
 409:/Library/DaisyToolchain/0.2.0/arm/arm-none-eabi/include/c++/10.3.1/bits/stl_deque.h ****       typedef typename __gnu_cxx::__alloc_traits<_Alloc>::template
 410:/Library/DaisyToolchain/0.2.0/arm/arm-none-eabi/include/c++/10.3.1/bits/stl_deque.h **** 	rebind<_Tp>::other _Tp_alloc_type;
 411:/Library/DaisyToolchain/0.2.0/arm/arm-none-eabi/include/c++/10.3.1/bits/stl_deque.h ****       typedef __gnu_cxx::__alloc_traits<_Tp_alloc_type>	 _Alloc_traits;
 412:/Library/DaisyToolchain/0.2.0/arm/arm-none-eabi/include/c++/10.3.1/bits/stl_deque.h **** 
 413:/Library/DaisyToolchain/0.2.0/arm/arm-none-eabi/include/c++/10.3.1/bits/stl_deque.h **** #if __cplusplus < 201103L
 414:/Library/DaisyToolchain/0.2.0/arm/arm-none-eabi/include/c++/10.3.1/bits/stl_deque.h ****       typedef _Tp*					_Ptr;
 415:/Library/DaisyToolchain/0.2.0/arm/arm-none-eabi/include/c++/10.3.1/bits/stl_deque.h ****       typedef const _Tp*				_Ptr_const;
 416:/Library/DaisyToolchain/0.2.0/arm/arm-none-eabi/include/c++/10.3.1/bits/stl_deque.h **** #else
 417:/Library/DaisyToolchain/0.2.0/arm/arm-none-eabi/include/c++/10.3.1/bits/stl_deque.h ****       typedef typename _Alloc_traits::pointer		_Ptr;
 418:/Library/DaisyToolchain/0.2.0/arm/arm-none-eabi/include/c++/10.3.1/bits/stl_deque.h ****       typedef typename _Alloc_traits::const_pointer	_Ptr_const;
 419:/Library/DaisyToolchain/0.2.0/arm/arm-none-eabi/include/c++/10.3.1/bits/stl_deque.h **** #endif
 420:/Library/DaisyToolchain/0.2.0/arm/arm-none-eabi/include/c++/10.3.1/bits/stl_deque.h **** 
 421:/Library/DaisyToolchain/0.2.0/arm/arm-none-eabi/include/c++/10.3.1/bits/stl_deque.h ****       typedef typename _Alloc_traits::template rebind<_Ptr>::other
 422:/Library/DaisyToolchain/0.2.0/arm/arm-none-eabi/include/c++/10.3.1/bits/stl_deque.h **** 	_Map_alloc_type;
 423:/Library/DaisyToolchain/0.2.0/arm/arm-none-eabi/include/c++/10.3.1/bits/stl_deque.h ****       typedef __gnu_cxx::__alloc_traits<_Map_alloc_type> _Map_alloc_traits;
 424:/Library/DaisyToolchain/0.2.0/arm/arm-none-eabi/include/c++/10.3.1/bits/stl_deque.h **** 
 425:/Library/DaisyToolchain/0.2.0/arm/arm-none-eabi/include/c++/10.3.1/bits/stl_deque.h ****       typedef _Alloc		  allocator_type;
 426:/Library/DaisyToolchain/0.2.0/arm/arm-none-eabi/include/c++/10.3.1/bits/stl_deque.h **** 
 427:/Library/DaisyToolchain/0.2.0/arm/arm-none-eabi/include/c++/10.3.1/bits/stl_deque.h ****       allocator_type
 428:/Library/DaisyToolchain/0.2.0/arm/arm-none-eabi/include/c++/10.3.1/bits/stl_deque.h ****       get_allocator() const _GLIBCXX_NOEXCEPT
 429:/Library/DaisyToolchain/0.2.0/arm/arm-none-eabi/include/c++/10.3.1/bits/stl_deque.h ****       { return allocator_type(_M_get_Tp_allocator()); }
 430:/Library/DaisyToolchain/0.2.0/arm/arm-none-eabi/include/c++/10.3.1/bits/stl_deque.h **** 
 431:/Library/DaisyToolchain/0.2.0/arm/arm-none-eabi/include/c++/10.3.1/bits/stl_deque.h ****       typedef _Deque_iterator<_Tp, _Tp&, _Ptr>	  iterator;
 432:/Library/DaisyToolchain/0.2.0/arm/arm-none-eabi/include/c++/10.3.1/bits/stl_deque.h ****       typedef _Deque_iterator<_Tp, const _Tp&, _Ptr_const>   const_iterator;
 433:/Library/DaisyToolchain/0.2.0/arm/arm-none-eabi/include/c++/10.3.1/bits/stl_deque.h **** 
 434:/Library/DaisyToolchain/0.2.0/arm/arm-none-eabi/include/c++/10.3.1/bits/stl_deque.h ****       _Deque_base()
 435:/Library/DaisyToolchain/0.2.0/arm/arm-none-eabi/include/c++/10.3.1/bits/stl_deque.h ****       : _M_impl()
 436:/Library/DaisyToolchain/0.2.0/arm/arm-none-eabi/include/c++/10.3.1/bits/stl_deque.h ****       { _M_initialize_map(0); }
 437:/Library/DaisyToolchain/0.2.0/arm/arm-none-eabi/include/c++/10.3.1/bits/stl_deque.h **** 
 438:/Library/DaisyToolchain/0.2.0/arm/arm-none-eabi/include/c++/10.3.1/bits/stl_deque.h ****       _Deque_base(size_t __num_elements)
 439:/Library/DaisyToolchain/0.2.0/arm/arm-none-eabi/include/c++/10.3.1/bits/stl_deque.h ****       : _M_impl()
 440:/Library/DaisyToolchain/0.2.0/arm/arm-none-eabi/include/c++/10.3.1/bits/stl_deque.h ****       { _M_initialize_map(__num_elements); }
 441:/Library/DaisyToolchain/0.2.0/arm/arm-none-eabi/include/c++/10.3.1/bits/stl_deque.h **** 
 442:/Library/DaisyToolchain/0.2.0/arm/arm-none-eabi/include/c++/10.3.1/bits/stl_deque.h ****       _Deque_base(const allocator_type& __a, size_t __num_elements)
 443:/Library/DaisyToolchain/0.2.0/arm/arm-none-eabi/include/c++/10.3.1/bits/stl_deque.h ****       : _M_impl(__a)
 444:/Library/DaisyToolchain/0.2.0/arm/arm-none-eabi/include/c++/10.3.1/bits/stl_deque.h ****       { _M_initialize_map(__num_elements); }
 445:/Library/DaisyToolchain/0.2.0/arm/arm-none-eabi/include/c++/10.3.1/bits/stl_deque.h **** 
 446:/Library/DaisyToolchain/0.2.0/arm/arm-none-eabi/include/c++/10.3.1/bits/stl_deque.h ****       _Deque_base(const allocator_type& __a)
 447:/Library/DaisyToolchain/0.2.0/arm/arm-none-eabi/include/c++/10.3.1/bits/stl_deque.h ****       : _M_impl(__a)
 448:/Library/DaisyToolchain/0.2.0/arm/arm-none-eabi/include/c++/10.3.1/bits/stl_deque.h ****       { /* Caller must initialize map. */ }
 449:/Library/DaisyToolchain/0.2.0/arm/arm-none-eabi/include/c++/10.3.1/bits/stl_deque.h **** 
 450:/Library/DaisyToolchain/0.2.0/arm/arm-none-eabi/include/c++/10.3.1/bits/stl_deque.h **** #if __cplusplus >= 201103L
 451:/Library/DaisyToolchain/0.2.0/arm/arm-none-eabi/include/c++/10.3.1/bits/stl_deque.h ****       _Deque_base(_Deque_base&& __x)
 452:/Library/DaisyToolchain/0.2.0/arm/arm-none-eabi/include/c++/10.3.1/bits/stl_deque.h ****       : _M_impl(std::move(__x._M_get_Tp_allocator()))
ARM GAS  /var/folders/s6/2bsynnl15rj0bwtb9pgx4dc00000gn/T//cc76hY55.s 			page 60


 453:/Library/DaisyToolchain/0.2.0/arm/arm-none-eabi/include/c++/10.3.1/bits/stl_deque.h ****       {
 454:/Library/DaisyToolchain/0.2.0/arm/arm-none-eabi/include/c++/10.3.1/bits/stl_deque.h **** 	_M_initialize_map(0);
 455:/Library/DaisyToolchain/0.2.0/arm/arm-none-eabi/include/c++/10.3.1/bits/stl_deque.h **** 	if (__x._M_impl._M_map)
 456:/Library/DaisyToolchain/0.2.0/arm/arm-none-eabi/include/c++/10.3.1/bits/stl_deque.h **** 	  this->_M_impl._M_swap_data(__x._M_impl);
 457:/Library/DaisyToolchain/0.2.0/arm/arm-none-eabi/include/c++/10.3.1/bits/stl_deque.h ****       }
 458:/Library/DaisyToolchain/0.2.0/arm/arm-none-eabi/include/c++/10.3.1/bits/stl_deque.h **** 
 459:/Library/DaisyToolchain/0.2.0/arm/arm-none-eabi/include/c++/10.3.1/bits/stl_deque.h ****       _Deque_base(_Deque_base&& __x, const allocator_type& __a)
 460:/Library/DaisyToolchain/0.2.0/arm/arm-none-eabi/include/c++/10.3.1/bits/stl_deque.h ****       : _M_impl(std::move(__x._M_impl), _Tp_alloc_type(__a))
 461:/Library/DaisyToolchain/0.2.0/arm/arm-none-eabi/include/c++/10.3.1/bits/stl_deque.h ****       { __x._M_initialize_map(0); }
 462:/Library/DaisyToolchain/0.2.0/arm/arm-none-eabi/include/c++/10.3.1/bits/stl_deque.h **** 
 463:/Library/DaisyToolchain/0.2.0/arm/arm-none-eabi/include/c++/10.3.1/bits/stl_deque.h ****       _Deque_base(_Deque_base&& __x, const allocator_type& __a, size_t __n)
 464:/Library/DaisyToolchain/0.2.0/arm/arm-none-eabi/include/c++/10.3.1/bits/stl_deque.h ****       : _M_impl(__a)
 465:/Library/DaisyToolchain/0.2.0/arm/arm-none-eabi/include/c++/10.3.1/bits/stl_deque.h ****       {
 466:/Library/DaisyToolchain/0.2.0/arm/arm-none-eabi/include/c++/10.3.1/bits/stl_deque.h **** 	if (__x.get_allocator() == __a)
 467:/Library/DaisyToolchain/0.2.0/arm/arm-none-eabi/include/c++/10.3.1/bits/stl_deque.h **** 	  {
 468:/Library/DaisyToolchain/0.2.0/arm/arm-none-eabi/include/c++/10.3.1/bits/stl_deque.h **** 	    if (__x._M_impl._M_map)
 469:/Library/DaisyToolchain/0.2.0/arm/arm-none-eabi/include/c++/10.3.1/bits/stl_deque.h **** 	      {
 470:/Library/DaisyToolchain/0.2.0/arm/arm-none-eabi/include/c++/10.3.1/bits/stl_deque.h **** 		_M_initialize_map(0);
 471:/Library/DaisyToolchain/0.2.0/arm/arm-none-eabi/include/c++/10.3.1/bits/stl_deque.h **** 		this->_M_impl._M_swap_data(__x._M_impl);
 472:/Library/DaisyToolchain/0.2.0/arm/arm-none-eabi/include/c++/10.3.1/bits/stl_deque.h **** 	      }
 473:/Library/DaisyToolchain/0.2.0/arm/arm-none-eabi/include/c++/10.3.1/bits/stl_deque.h **** 	  }
 474:/Library/DaisyToolchain/0.2.0/arm/arm-none-eabi/include/c++/10.3.1/bits/stl_deque.h **** 	else
 475:/Library/DaisyToolchain/0.2.0/arm/arm-none-eabi/include/c++/10.3.1/bits/stl_deque.h **** 	  {
 476:/Library/DaisyToolchain/0.2.0/arm/arm-none-eabi/include/c++/10.3.1/bits/stl_deque.h **** 	    _M_initialize_map(__n);
 477:/Library/DaisyToolchain/0.2.0/arm/arm-none-eabi/include/c++/10.3.1/bits/stl_deque.h **** 	  }
 478:/Library/DaisyToolchain/0.2.0/arm/arm-none-eabi/include/c++/10.3.1/bits/stl_deque.h ****       }
 479:/Library/DaisyToolchain/0.2.0/arm/arm-none-eabi/include/c++/10.3.1/bits/stl_deque.h **** #endif
 480:/Library/DaisyToolchain/0.2.0/arm/arm-none-eabi/include/c++/10.3.1/bits/stl_deque.h **** 
 481:/Library/DaisyToolchain/0.2.0/arm/arm-none-eabi/include/c++/10.3.1/bits/stl_deque.h ****       ~_Deque_base() _GLIBCXX_NOEXCEPT;
 482:/Library/DaisyToolchain/0.2.0/arm/arm-none-eabi/include/c++/10.3.1/bits/stl_deque.h **** 
 483:/Library/DaisyToolchain/0.2.0/arm/arm-none-eabi/include/c++/10.3.1/bits/stl_deque.h ****       typedef typename iterator::_Map_pointer _Map_pointer;
 484:/Library/DaisyToolchain/0.2.0/arm/arm-none-eabi/include/c++/10.3.1/bits/stl_deque.h **** 
 485:/Library/DaisyToolchain/0.2.0/arm/arm-none-eabi/include/c++/10.3.1/bits/stl_deque.h ****       struct _Deque_impl_data
 486:/Library/DaisyToolchain/0.2.0/arm/arm-none-eabi/include/c++/10.3.1/bits/stl_deque.h ****       {
 487:/Library/DaisyToolchain/0.2.0/arm/arm-none-eabi/include/c++/10.3.1/bits/stl_deque.h **** 	_Map_pointer _M_map;
 488:/Library/DaisyToolchain/0.2.0/arm/arm-none-eabi/include/c++/10.3.1/bits/stl_deque.h **** 	size_t _M_map_size;
 489:/Library/DaisyToolchain/0.2.0/arm/arm-none-eabi/include/c++/10.3.1/bits/stl_deque.h **** 	iterator _M_start;
 490:/Library/DaisyToolchain/0.2.0/arm/arm-none-eabi/include/c++/10.3.1/bits/stl_deque.h **** 	iterator _M_finish;
 491:/Library/DaisyToolchain/0.2.0/arm/arm-none-eabi/include/c++/10.3.1/bits/stl_deque.h **** 
 492:/Library/DaisyToolchain/0.2.0/arm/arm-none-eabi/include/c++/10.3.1/bits/stl_deque.h **** 	_Deque_impl_data() _GLIBCXX_NOEXCEPT
 493:/Library/DaisyToolchain/0.2.0/arm/arm-none-eabi/include/c++/10.3.1/bits/stl_deque.h **** 	: _M_map(), _M_map_size(), _M_start(), _M_finish()
 494:/Library/DaisyToolchain/0.2.0/arm/arm-none-eabi/include/c++/10.3.1/bits/stl_deque.h **** 	{ }
 495:/Library/DaisyToolchain/0.2.0/arm/arm-none-eabi/include/c++/10.3.1/bits/stl_deque.h **** 
 496:/Library/DaisyToolchain/0.2.0/arm/arm-none-eabi/include/c++/10.3.1/bits/stl_deque.h **** #if __cplusplus >= 201103L
 497:/Library/DaisyToolchain/0.2.0/arm/arm-none-eabi/include/c++/10.3.1/bits/stl_deque.h **** 	_Deque_impl_data(const _Deque_impl_data&) = default;
 498:/Library/DaisyToolchain/0.2.0/arm/arm-none-eabi/include/c++/10.3.1/bits/stl_deque.h **** 	_Deque_impl_data&
 499:/Library/DaisyToolchain/0.2.0/arm/arm-none-eabi/include/c++/10.3.1/bits/stl_deque.h **** 	operator=(const _Deque_impl_data&) = default;
 500:/Library/DaisyToolchain/0.2.0/arm/arm-none-eabi/include/c++/10.3.1/bits/stl_deque.h **** 
 501:/Library/DaisyToolchain/0.2.0/arm/arm-none-eabi/include/c++/10.3.1/bits/stl_deque.h **** 	_Deque_impl_data(_Deque_impl_data&& __x) noexcept
 502:/Library/DaisyToolchain/0.2.0/arm/arm-none-eabi/include/c++/10.3.1/bits/stl_deque.h **** 	: _Deque_impl_data(__x)
 503:/Library/DaisyToolchain/0.2.0/arm/arm-none-eabi/include/c++/10.3.1/bits/stl_deque.h **** 	{ __x = _Deque_impl_data(); }
 504:/Library/DaisyToolchain/0.2.0/arm/arm-none-eabi/include/c++/10.3.1/bits/stl_deque.h **** #endif
 505:/Library/DaisyToolchain/0.2.0/arm/arm-none-eabi/include/c++/10.3.1/bits/stl_deque.h **** 
 506:/Library/DaisyToolchain/0.2.0/arm/arm-none-eabi/include/c++/10.3.1/bits/stl_deque.h **** 	void
 507:/Library/DaisyToolchain/0.2.0/arm/arm-none-eabi/include/c++/10.3.1/bits/stl_deque.h **** 	_M_swap_data(_Deque_impl_data& __x) _GLIBCXX_NOEXCEPT
 508:/Library/DaisyToolchain/0.2.0/arm/arm-none-eabi/include/c++/10.3.1/bits/stl_deque.h **** 	{
 509:/Library/DaisyToolchain/0.2.0/arm/arm-none-eabi/include/c++/10.3.1/bits/stl_deque.h **** 	  // Do not use std::swap(_M_start, __x._M_start), etc as it loses
ARM GAS  /var/folders/s6/2bsynnl15rj0bwtb9pgx4dc00000gn/T//cc76hY55.s 			page 61


 510:/Library/DaisyToolchain/0.2.0/arm/arm-none-eabi/include/c++/10.3.1/bits/stl_deque.h **** 	  // information used by TBAA.
 511:/Library/DaisyToolchain/0.2.0/arm/arm-none-eabi/include/c++/10.3.1/bits/stl_deque.h **** 	  std::swap(*this, __x);
 512:/Library/DaisyToolchain/0.2.0/arm/arm-none-eabi/include/c++/10.3.1/bits/stl_deque.h **** 	}
 513:/Library/DaisyToolchain/0.2.0/arm/arm-none-eabi/include/c++/10.3.1/bits/stl_deque.h ****       };
 514:/Library/DaisyToolchain/0.2.0/arm/arm-none-eabi/include/c++/10.3.1/bits/stl_deque.h **** 
 515:/Library/DaisyToolchain/0.2.0/arm/arm-none-eabi/include/c++/10.3.1/bits/stl_deque.h ****       // This struct encapsulates the implementation of the std::deque
 516:/Library/DaisyToolchain/0.2.0/arm/arm-none-eabi/include/c++/10.3.1/bits/stl_deque.h ****       // standard container and at the same time makes use of the EBO
 517:/Library/DaisyToolchain/0.2.0/arm/arm-none-eabi/include/c++/10.3.1/bits/stl_deque.h ****       // for empty allocators.
 518:/Library/DaisyToolchain/0.2.0/arm/arm-none-eabi/include/c++/10.3.1/bits/stl_deque.h ****       struct _Deque_impl
 519:/Library/DaisyToolchain/0.2.0/arm/arm-none-eabi/include/c++/10.3.1/bits/stl_deque.h ****       : public _Tp_alloc_type, public _Deque_impl_data
 520:/Library/DaisyToolchain/0.2.0/arm/arm-none-eabi/include/c++/10.3.1/bits/stl_deque.h ****       {
 521:/Library/DaisyToolchain/0.2.0/arm/arm-none-eabi/include/c++/10.3.1/bits/stl_deque.h **** 	_Deque_impl() _GLIBCXX_NOEXCEPT_IF(
 522:/Library/DaisyToolchain/0.2.0/arm/arm-none-eabi/include/c++/10.3.1/bits/stl_deque.h **** 	  is_nothrow_default_constructible<_Tp_alloc_type>::value)
 523:/Library/DaisyToolchain/0.2.0/arm/arm-none-eabi/include/c++/10.3.1/bits/stl_deque.h **** 	: _Tp_alloc_type()
 524:/Library/DaisyToolchain/0.2.0/arm/arm-none-eabi/include/c++/10.3.1/bits/stl_deque.h **** 	{ }
 525:/Library/DaisyToolchain/0.2.0/arm/arm-none-eabi/include/c++/10.3.1/bits/stl_deque.h **** 
 526:/Library/DaisyToolchain/0.2.0/arm/arm-none-eabi/include/c++/10.3.1/bits/stl_deque.h **** 	_Deque_impl(const _Tp_alloc_type& __a) _GLIBCXX_NOEXCEPT
 527:/Library/DaisyToolchain/0.2.0/arm/arm-none-eabi/include/c++/10.3.1/bits/stl_deque.h **** 	: _Tp_alloc_type(__a)
 528:/Library/DaisyToolchain/0.2.0/arm/arm-none-eabi/include/c++/10.3.1/bits/stl_deque.h **** 	{ }
 529:/Library/DaisyToolchain/0.2.0/arm/arm-none-eabi/include/c++/10.3.1/bits/stl_deque.h **** 
 530:/Library/DaisyToolchain/0.2.0/arm/arm-none-eabi/include/c++/10.3.1/bits/stl_deque.h **** #if __cplusplus >= 201103L
 531:/Library/DaisyToolchain/0.2.0/arm/arm-none-eabi/include/c++/10.3.1/bits/stl_deque.h **** 	_Deque_impl(_Deque_impl&&) = default;
 532:/Library/DaisyToolchain/0.2.0/arm/arm-none-eabi/include/c++/10.3.1/bits/stl_deque.h **** 
 533:/Library/DaisyToolchain/0.2.0/arm/arm-none-eabi/include/c++/10.3.1/bits/stl_deque.h **** 	_Deque_impl(_Tp_alloc_type&& __a) noexcept
 534:/Library/DaisyToolchain/0.2.0/arm/arm-none-eabi/include/c++/10.3.1/bits/stl_deque.h **** 	: _Tp_alloc_type(std::move(__a))
 535:/Library/DaisyToolchain/0.2.0/arm/arm-none-eabi/include/c++/10.3.1/bits/stl_deque.h **** 	{ }
 536:/Library/DaisyToolchain/0.2.0/arm/arm-none-eabi/include/c++/10.3.1/bits/stl_deque.h **** 
 537:/Library/DaisyToolchain/0.2.0/arm/arm-none-eabi/include/c++/10.3.1/bits/stl_deque.h **** 	_Deque_impl(_Deque_impl&& __d, _Tp_alloc_type&& __a)
 538:/Library/DaisyToolchain/0.2.0/arm/arm-none-eabi/include/c++/10.3.1/bits/stl_deque.h **** 	: _Tp_alloc_type(std::move(__a)), _Deque_impl_data(std::move(__d))
 539:/Library/DaisyToolchain/0.2.0/arm/arm-none-eabi/include/c++/10.3.1/bits/stl_deque.h **** 	{ }
 540:/Library/DaisyToolchain/0.2.0/arm/arm-none-eabi/include/c++/10.3.1/bits/stl_deque.h **** #endif
 541:/Library/DaisyToolchain/0.2.0/arm/arm-none-eabi/include/c++/10.3.1/bits/stl_deque.h ****       };
 542:/Library/DaisyToolchain/0.2.0/arm/arm-none-eabi/include/c++/10.3.1/bits/stl_deque.h **** 
 543:/Library/DaisyToolchain/0.2.0/arm/arm-none-eabi/include/c++/10.3.1/bits/stl_deque.h ****       _Tp_alloc_type&
 544:/Library/DaisyToolchain/0.2.0/arm/arm-none-eabi/include/c++/10.3.1/bits/stl_deque.h ****       _M_get_Tp_allocator() _GLIBCXX_NOEXCEPT
 545:/Library/DaisyToolchain/0.2.0/arm/arm-none-eabi/include/c++/10.3.1/bits/stl_deque.h ****       { return this->_M_impl; }
 546:/Library/DaisyToolchain/0.2.0/arm/arm-none-eabi/include/c++/10.3.1/bits/stl_deque.h **** 
 547:/Library/DaisyToolchain/0.2.0/arm/arm-none-eabi/include/c++/10.3.1/bits/stl_deque.h ****       const _Tp_alloc_type&
 548:/Library/DaisyToolchain/0.2.0/arm/arm-none-eabi/include/c++/10.3.1/bits/stl_deque.h ****       _M_get_Tp_allocator() const _GLIBCXX_NOEXCEPT
 549:/Library/DaisyToolchain/0.2.0/arm/arm-none-eabi/include/c++/10.3.1/bits/stl_deque.h ****       { return this->_M_impl; }
 550:/Library/DaisyToolchain/0.2.0/arm/arm-none-eabi/include/c++/10.3.1/bits/stl_deque.h **** 
 551:/Library/DaisyToolchain/0.2.0/arm/arm-none-eabi/include/c++/10.3.1/bits/stl_deque.h ****       _Map_alloc_type
 552:/Library/DaisyToolchain/0.2.0/arm/arm-none-eabi/include/c++/10.3.1/bits/stl_deque.h ****       _M_get_map_allocator() const _GLIBCXX_NOEXCEPT
 553:/Library/DaisyToolchain/0.2.0/arm/arm-none-eabi/include/c++/10.3.1/bits/stl_deque.h ****       { return _Map_alloc_type(_M_get_Tp_allocator()); }
 554:/Library/DaisyToolchain/0.2.0/arm/arm-none-eabi/include/c++/10.3.1/bits/stl_deque.h **** 
 555:/Library/DaisyToolchain/0.2.0/arm/arm-none-eabi/include/c++/10.3.1/bits/stl_deque.h ****       _Ptr
 556:/Library/DaisyToolchain/0.2.0/arm/arm-none-eabi/include/c++/10.3.1/bits/stl_deque.h ****       _M_allocate_node()
 557:/Library/DaisyToolchain/0.2.0/arm/arm-none-eabi/include/c++/10.3.1/bits/stl_deque.h ****       {
 558:/Library/DaisyToolchain/0.2.0/arm/arm-none-eabi/include/c++/10.3.1/bits/stl_deque.h **** 	typedef __gnu_cxx::__alloc_traits<_Tp_alloc_type> _Traits;
 559:/Library/DaisyToolchain/0.2.0/arm/arm-none-eabi/include/c++/10.3.1/bits/stl_deque.h **** 	return _Traits::allocate(_M_impl, __deque_buf_size(sizeof(_Tp)));
 560:/Library/DaisyToolchain/0.2.0/arm/arm-none-eabi/include/c++/10.3.1/bits/stl_deque.h ****       }
 561:/Library/DaisyToolchain/0.2.0/arm/arm-none-eabi/include/c++/10.3.1/bits/stl_deque.h **** 
 562:/Library/DaisyToolchain/0.2.0/arm/arm-none-eabi/include/c++/10.3.1/bits/stl_deque.h ****       void
 563:/Library/DaisyToolchain/0.2.0/arm/arm-none-eabi/include/c++/10.3.1/bits/stl_deque.h ****       _M_deallocate_node(_Ptr __p) _GLIBCXX_NOEXCEPT
 564:/Library/DaisyToolchain/0.2.0/arm/arm-none-eabi/include/c++/10.3.1/bits/stl_deque.h ****       {
 565:/Library/DaisyToolchain/0.2.0/arm/arm-none-eabi/include/c++/10.3.1/bits/stl_deque.h **** 	typedef __gnu_cxx::__alloc_traits<_Tp_alloc_type> _Traits;
 566:/Library/DaisyToolchain/0.2.0/arm/arm-none-eabi/include/c++/10.3.1/bits/stl_deque.h **** 	_Traits::deallocate(_M_impl, __p, __deque_buf_size(sizeof(_Tp)));
ARM GAS  /var/folders/s6/2bsynnl15rj0bwtb9pgx4dc00000gn/T//cc76hY55.s 			page 62


 567:/Library/DaisyToolchain/0.2.0/arm/arm-none-eabi/include/c++/10.3.1/bits/stl_deque.h ****       }
 568:/Library/DaisyToolchain/0.2.0/arm/arm-none-eabi/include/c++/10.3.1/bits/stl_deque.h **** 
 569:/Library/DaisyToolchain/0.2.0/arm/arm-none-eabi/include/c++/10.3.1/bits/stl_deque.h ****       _Map_pointer
 570:/Library/DaisyToolchain/0.2.0/arm/arm-none-eabi/include/c++/10.3.1/bits/stl_deque.h ****       _M_allocate_map(size_t __n)
 571:/Library/DaisyToolchain/0.2.0/arm/arm-none-eabi/include/c++/10.3.1/bits/stl_deque.h ****       {
 572:/Library/DaisyToolchain/0.2.0/arm/arm-none-eabi/include/c++/10.3.1/bits/stl_deque.h **** 	_Map_alloc_type __map_alloc = _M_get_map_allocator();
 573:/Library/DaisyToolchain/0.2.0/arm/arm-none-eabi/include/c++/10.3.1/bits/stl_deque.h **** 	return _Map_alloc_traits::allocate(__map_alloc, __n);
 574:/Library/DaisyToolchain/0.2.0/arm/arm-none-eabi/include/c++/10.3.1/bits/stl_deque.h ****       }
 575:/Library/DaisyToolchain/0.2.0/arm/arm-none-eabi/include/c++/10.3.1/bits/stl_deque.h **** 
 576:/Library/DaisyToolchain/0.2.0/arm/arm-none-eabi/include/c++/10.3.1/bits/stl_deque.h ****       void
 577:/Library/DaisyToolchain/0.2.0/arm/arm-none-eabi/include/c++/10.3.1/bits/stl_deque.h ****       _M_deallocate_map(_Map_pointer __p, size_t __n) _GLIBCXX_NOEXCEPT
 578:/Library/DaisyToolchain/0.2.0/arm/arm-none-eabi/include/c++/10.3.1/bits/stl_deque.h ****       {
 579:/Library/DaisyToolchain/0.2.0/arm/arm-none-eabi/include/c++/10.3.1/bits/stl_deque.h **** 	_Map_alloc_type __map_alloc = _M_get_map_allocator();
 580:/Library/DaisyToolchain/0.2.0/arm/arm-none-eabi/include/c++/10.3.1/bits/stl_deque.h **** 	_Map_alloc_traits::deallocate(__map_alloc, __p, __n);
 581:/Library/DaisyToolchain/0.2.0/arm/arm-none-eabi/include/c++/10.3.1/bits/stl_deque.h ****       }
 582:/Library/DaisyToolchain/0.2.0/arm/arm-none-eabi/include/c++/10.3.1/bits/stl_deque.h **** 
 583:/Library/DaisyToolchain/0.2.0/arm/arm-none-eabi/include/c++/10.3.1/bits/stl_deque.h ****       void _M_initialize_map(size_t);
 584:/Library/DaisyToolchain/0.2.0/arm/arm-none-eabi/include/c++/10.3.1/bits/stl_deque.h ****       void _M_create_nodes(_Map_pointer __nstart, _Map_pointer __nfinish);
 585:/Library/DaisyToolchain/0.2.0/arm/arm-none-eabi/include/c++/10.3.1/bits/stl_deque.h ****       void _M_destroy_nodes(_Map_pointer __nstart,
 586:/Library/DaisyToolchain/0.2.0/arm/arm-none-eabi/include/c++/10.3.1/bits/stl_deque.h **** 			    _Map_pointer __nfinish) _GLIBCXX_NOEXCEPT;
 587:/Library/DaisyToolchain/0.2.0/arm/arm-none-eabi/include/c++/10.3.1/bits/stl_deque.h ****       enum { _S_initial_map_size = 8 };
 588:/Library/DaisyToolchain/0.2.0/arm/arm-none-eabi/include/c++/10.3.1/bits/stl_deque.h **** 
 589:/Library/DaisyToolchain/0.2.0/arm/arm-none-eabi/include/c++/10.3.1/bits/stl_deque.h ****       _Deque_impl _M_impl;
 590:/Library/DaisyToolchain/0.2.0/arm/arm-none-eabi/include/c++/10.3.1/bits/stl_deque.h ****     };
 591:/Library/DaisyToolchain/0.2.0/arm/arm-none-eabi/include/c++/10.3.1/bits/stl_deque.h **** 
 592:/Library/DaisyToolchain/0.2.0/arm/arm-none-eabi/include/c++/10.3.1/bits/stl_deque.h ****   template<typename _Tp, typename _Alloc>
 593:/Library/DaisyToolchain/0.2.0/arm/arm-none-eabi/include/c++/10.3.1/bits/stl_deque.h ****     _Deque_base<_Tp, _Alloc>::
 594:/Library/DaisyToolchain/0.2.0/arm/arm-none-eabi/include/c++/10.3.1/bits/stl_deque.h ****     ~_Deque_base() _GLIBCXX_NOEXCEPT
 595:/Library/DaisyToolchain/0.2.0/arm/arm-none-eabi/include/c++/10.3.1/bits/stl_deque.h ****     {
 596:/Library/DaisyToolchain/0.2.0/arm/arm-none-eabi/include/c++/10.3.1/bits/stl_deque.h ****       if (this->_M_impl._M_map)
 597:/Library/DaisyToolchain/0.2.0/arm/arm-none-eabi/include/c++/10.3.1/bits/stl_deque.h **** 	{
 598:/Library/DaisyToolchain/0.2.0/arm/arm-none-eabi/include/c++/10.3.1/bits/stl_deque.h **** 	  _M_destroy_nodes(this->_M_impl._M_start._M_node,
 599:/Library/DaisyToolchain/0.2.0/arm/arm-none-eabi/include/c++/10.3.1/bits/stl_deque.h **** 			   this->_M_impl._M_finish._M_node + 1);
 600:/Library/DaisyToolchain/0.2.0/arm/arm-none-eabi/include/c++/10.3.1/bits/stl_deque.h **** 	  _M_deallocate_map(this->_M_impl._M_map, this->_M_impl._M_map_size);
 601:/Library/DaisyToolchain/0.2.0/arm/arm-none-eabi/include/c++/10.3.1/bits/stl_deque.h **** 	}
 602:/Library/DaisyToolchain/0.2.0/arm/arm-none-eabi/include/c++/10.3.1/bits/stl_deque.h ****     }
 603:/Library/DaisyToolchain/0.2.0/arm/arm-none-eabi/include/c++/10.3.1/bits/stl_deque.h **** 
 604:/Library/DaisyToolchain/0.2.0/arm/arm-none-eabi/include/c++/10.3.1/bits/stl_deque.h ****   /**
 605:/Library/DaisyToolchain/0.2.0/arm/arm-none-eabi/include/c++/10.3.1/bits/stl_deque.h ****    *  @brief Layout storage.
 606:/Library/DaisyToolchain/0.2.0/arm/arm-none-eabi/include/c++/10.3.1/bits/stl_deque.h ****    *  @param  __num_elements  The count of T's for which to allocate space
 607:/Library/DaisyToolchain/0.2.0/arm/arm-none-eabi/include/c++/10.3.1/bits/stl_deque.h ****    *                          at first.
 608:/Library/DaisyToolchain/0.2.0/arm/arm-none-eabi/include/c++/10.3.1/bits/stl_deque.h ****    *  @return   Nothing.
 609:/Library/DaisyToolchain/0.2.0/arm/arm-none-eabi/include/c++/10.3.1/bits/stl_deque.h ****    *
 610:/Library/DaisyToolchain/0.2.0/arm/arm-none-eabi/include/c++/10.3.1/bits/stl_deque.h ****    *  The initial underlying memory layout is a bit complicated...
 611:/Library/DaisyToolchain/0.2.0/arm/arm-none-eabi/include/c++/10.3.1/bits/stl_deque.h ****   */
