ARM GAS  /var/folders/s6/2bsynnl15rj0bwtb9pgx4dc00000gn/T//cc76hY55.s 			page 1


   1              		.cpu cortex-m7
   2              		.arch armv7e-m
   3              		.fpu fpv5-d16
   4              		.eabi_attribute 28, 1
   5              		.eabi_attribute 20, 1
   6              		.eabi_attribute 21, 1
   7              		.eabi_attribute 23, 3
   8              		.eabi_attribute 24, 1
   9              		.eabi_attribute 25, 1
  10              		.eabi_attribute 26, 1
  11              		.eabi_attribute 30, 2
  12              		.eabi_attribute 34, 1
  13              		.eabi_attribute 18, 4
  14              		.file	"TestTFT.cpp"
  15              		.text
  16              	.Ltext0:
  17              		.cfi_sections	.debug_frame
  18              		.section	.text._ZN5daisy7EncoderD2Ev,"axG",%progbits,_ZN5daisy7EncoderD5Ev,comdat
  19              		.align	1
  20              		.p2align 2,,3
  21              		.weak	_ZN5daisy7EncoderD2Ev
  22              		.syntax unified
  23              		.thumb
  24              		.thumb_func
  26              	_ZN5daisy7EncoderD2Ev:
  27              	.LVL0:
  28              	.LFB1652:
  29              		.file 1 "./libDaisy/src/hid/encoder.h"
   1:./libDaisy/src/hid/encoder.h **** #pragma once
   2:./libDaisy/src/hid/encoder.h **** #ifndef DSY_ENCODER_H
   3:./libDaisy/src/hid/encoder.h **** #define DSY_ENCODER_H
   4:./libDaisy/src/hid/encoder.h **** #include "daisy_core.h"
   5:./libDaisy/src/hid/encoder.h **** #include "per/gpio.h"
   6:./libDaisy/src/hid/encoder.h **** #include "hid/switch.h"
   7:./libDaisy/src/hid/encoder.h **** 
   8:./libDaisy/src/hid/encoder.h **** namespace daisy
   9:./libDaisy/src/hid/encoder.h **** {
  10:./libDaisy/src/hid/encoder.h **** /** 
  11:./libDaisy/src/hid/encoder.h ****     @brief Generic Class for handling Quadrature Encoders \n 
  12:./libDaisy/src/hid/encoder.h ****     Inspired/influenced by Mutable Instruments (pichenettes) Encoder classes
  13:./libDaisy/src/hid/encoder.h ****     @author Stephen Hensley
  14:./libDaisy/src/hid/encoder.h ****     @date December 2019
  15:./libDaisy/src/hid/encoder.h ****     @ingroup controls
  16:./libDaisy/src/hid/encoder.h **** */
  17:./libDaisy/src/hid/encoder.h **** class Encoder
  18:./libDaisy/src/hid/encoder.h **** {
  19:./libDaisy/src/hid/encoder.h ****   public:
  20:./libDaisy/src/hid/encoder.h ****     Encoder() {}
  21:./libDaisy/src/hid/encoder.h ****     ~Encoder() {}
  30              		.loc 1 21 5 view -0
  31              		.cfi_startproc
  32              		@ args = 0, pretend = 0, frame = 0
  33              		@ frame_needed = 0, uses_anonymous_args = 0
  34              		@ link register save eliminated.
  35              	.LBB455:
  36              	.LBI455:
  37              		.file 2 "./libDaisy/src/hid/switch.h"
ARM GAS  /var/folders/s6/2bsynnl15rj0bwtb9pgx4dc00000gn/T//cc76hY55.s 			page 2


   1:./libDaisy/src/hid/switch.h **** #pragma once
   2:./libDaisy/src/hid/switch.h **** #ifndef DSY_SWITCH_H
   3:./libDaisy/src/hid/switch.h **** #define DSY_SWITCH_H
   4:./libDaisy/src/hid/switch.h **** #include "daisy_core.h"
   5:./libDaisy/src/hid/switch.h **** #include "per/gpio.h"
   6:./libDaisy/src/hid/switch.h **** #include "sys/system.h"
   7:./libDaisy/src/hid/switch.h **** 
   8:./libDaisy/src/hid/switch.h **** namespace daisy
   9:./libDaisy/src/hid/switch.h **** {
  10:./libDaisy/src/hid/switch.h **** /** 
  11:./libDaisy/src/hid/switch.h ****     Generic Class for handling momentary/latching switches \n 
  12:./libDaisy/src/hid/switch.h ****     Inspired/influenced by Mutable Instruments (pichenettes) Switch classes
  13:./libDaisy/src/hid/switch.h ****     @author Stephen Hensley
  14:./libDaisy/src/hid/switch.h ****     @date December 2019
  15:./libDaisy/src/hid/switch.h ****     @ingroup controls
  16:./libDaisy/src/hid/switch.h **** */
  17:./libDaisy/src/hid/switch.h **** class Switch
  18:./libDaisy/src/hid/switch.h **** {
  19:./libDaisy/src/hid/switch.h ****   public:
  20:./libDaisy/src/hid/switch.h ****     /** Specifies the expected behavior of the switch */
  21:./libDaisy/src/hid/switch.h ****     enum Type
  22:./libDaisy/src/hid/switch.h ****     {
  23:./libDaisy/src/hid/switch.h ****         TYPE_TOGGLE,    /**< & */
  24:./libDaisy/src/hid/switch.h ****         TYPE_MOMENTARY, /**< & */
  25:./libDaisy/src/hid/switch.h ****     };
  26:./libDaisy/src/hid/switch.h ****     /** Specifies whether the pressed is HIGH or LOW. */
  27:./libDaisy/src/hid/switch.h ****     enum Polarity
  28:./libDaisy/src/hid/switch.h ****     {
  29:./libDaisy/src/hid/switch.h ****         POLARITY_NORMAL,   /**< & */
  30:./libDaisy/src/hid/switch.h ****         POLARITY_INVERTED, /**< & */
  31:./libDaisy/src/hid/switch.h ****     };
  32:./libDaisy/src/hid/switch.h **** 
  33:./libDaisy/src/hid/switch.h ****     /** Specifies whether to use built-in Pull Up/Down resistors to hold button at a given state wh
  34:./libDaisy/src/hid/switch.h ****     enum Pull
  35:./libDaisy/src/hid/switch.h ****     {
  36:./libDaisy/src/hid/switch.h ****         PULL_UP,   /**< & */
  37:./libDaisy/src/hid/switch.h ****         PULL_DOWN, /**< & */
  38:./libDaisy/src/hid/switch.h ****         PULL_NONE, /**< & */
  39:./libDaisy/src/hid/switch.h ****     };
  40:./libDaisy/src/hid/switch.h **** 
  41:./libDaisy/src/hid/switch.h ****     Switch() {}
  42:./libDaisy/src/hid/switch.h ****     ~Switch() {}
  38              		.loc 2 42 5 view .LVU1
  39              		.loc 2 42 5 is_stmt 0 view .LVU2
  40              	.LBE455:
  41              		.loc 1 21 17 view .LVU3
  42 0000 7047     		bx	lr
  43              		.cfi_endproc
  44              	.LFE1652:
  46              		.weak	_ZN5daisy7EncoderD1Ev
  47              		.thumb_set _ZN5daisy7EncoderD1Ev,_ZN5daisy7EncoderD2Ev
  48 0002 00BF     		.section	.text._ZN5daisy9DaisySeedD2Ev,"axG",%progbits,_ZN5daisy9DaisySeedD5Ev,comdat
  49              		.align	1
  50              		.p2align 2,,3
  51              		.weak	_ZN5daisy9DaisySeedD2Ev
  52              		.syntax unified
  53              		.thumb
ARM GAS  /var/folders/s6/2bsynnl15rj0bwtb9pgx4dc00000gn/T//cc76hY55.s 			page 3


  54              		.thumb_func
  56              	_ZN5daisy9DaisySeedD2Ev:
  57              	.LVL1:
  58              	.LFB2556:
  59              		.file 3 "./libDaisy/src/daisy_seed.h"
   1:./libDaisy/src/daisy_seed.h **** #pragma once
   2:./libDaisy/src/daisy_seed.h **** #ifndef DSY_SEED_H
   3:./libDaisy/src/daisy_seed.h **** #define DSY_SEED_H
   4:./libDaisy/src/daisy_seed.h **** 
   5:./libDaisy/src/daisy_seed.h **** #include "daisy.h"
   6:./libDaisy/src/daisy_seed.h **** 
   7:./libDaisy/src/daisy_seed.h **** //Uncomment this out if you're still using the rev2 hardware
   8:./libDaisy/src/daisy_seed.h **** //#define SEED_REV2
   9:./libDaisy/src/daisy_seed.h **** 
  10:./libDaisy/src/daisy_seed.h **** namespace daisy
  11:./libDaisy/src/daisy_seed.h **** {
  12:./libDaisy/src/daisy_seed.h **** /**
  13:./libDaisy/src/daisy_seed.h ****    @brief This is the higher-level interface for the Daisy board. \n 
  14:./libDaisy/src/daisy_seed.h ****     All basic peripheral configuration/initialization is setup here. \n
  15:./libDaisy/src/daisy_seed.h **** 
  16:./libDaisy/src/daisy_seed.h ****    @ingroup boards
  17:./libDaisy/src/daisy_seed.h **** */
  18:./libDaisy/src/daisy_seed.h **** class DaisySeed
  19:./libDaisy/src/daisy_seed.h **** {
  20:./libDaisy/src/daisy_seed.h ****   public:
  21:./libDaisy/src/daisy_seed.h ****     DaisySeed() {}
  22:./libDaisy/src/daisy_seed.h ****     ~DaisySeed() {}
  60              		.loc 3 22 5 is_stmt 1 view -0
  61              		.cfi_startproc
  62              		@ args = 0, pretend = 0, frame = 0
  63              		@ frame_needed = 0, uses_anonymous_args = 0
  64              		@ link register save eliminated.
  65              	.LBB456:
  66              	.LBI456:
  67              		.file 4 "./libDaisy/src/sys/system.h"
   1:./libDaisy/src/sys/system.h **** #ifndef DSY_SYSTEM_H
   2:./libDaisy/src/sys/system.h **** #define DSY_SYSTEM_H
   3:./libDaisy/src/sys/system.h **** 
   4:./libDaisy/src/sys/system.h **** #ifndef UNIT_TEST // for unit tests, a dummy implementation is provided below
   5:./libDaisy/src/sys/system.h **** 
   6:./libDaisy/src/sys/system.h **** #include <cstdint>
   7:./libDaisy/src/sys/system.h **** #include "per/tim.h"
   8:./libDaisy/src/sys/system.h **** 
   9:./libDaisy/src/sys/system.h **** namespace daisy
  10:./libDaisy/src/sys/system.h **** {
  11:./libDaisy/src/sys/system.h **** /** A handle for interacting with the Core System.
  12:./libDaisy/src/sys/system.h ****  ** This includes the Clock tree, MPU, global DMA initialization,
  13:./libDaisy/src/sys/system.h ****  ** cache handling, and any other necessary global initiailzation
  14:./libDaisy/src/sys/system.h ****  **
  15:./libDaisy/src/sys/system.h ****  ** @author shensley
  16:./libDaisy/src/sys/system.h ****  ** @ingroup system
  17:./libDaisy/src/sys/system.h ****  */
  18:./libDaisy/src/sys/system.h **** class System
  19:./libDaisy/src/sys/system.h **** {
  20:./libDaisy/src/sys/system.h ****   public:
  21:./libDaisy/src/sys/system.h ****     /** Contains settings for initializing the System */
  22:./libDaisy/src/sys/system.h ****     struct Config
ARM GAS  /var/folders/s6/2bsynnl15rj0bwtb9pgx4dc00000gn/T//cc76hY55.s 			page 4


  23:./libDaisy/src/sys/system.h ****     {
  24:./libDaisy/src/sys/system.h ****         /** Specifies the system clock frequency that feeds APB/AHB clocks, etc. */
  25:./libDaisy/src/sys/system.h ****         enum class SysClkFreq
  26:./libDaisy/src/sys/system.h ****         {
  27:./libDaisy/src/sys/system.h ****             FREQ_400MHZ,
  28:./libDaisy/src/sys/system.h ****             FREQ_480MHZ,
  29:./libDaisy/src/sys/system.h ****         };
  30:./libDaisy/src/sys/system.h **** 
  31:./libDaisy/src/sys/system.h ****         /** Method to call on the struct to set to defaults
  32:./libDaisy/src/sys/system.h ****          ** CPU Freq set to 400MHz
  33:./libDaisy/src/sys/system.h ****          ** Cache Enabled
  34:./libDaisy/src/sys/system.h ****          ** */
  35:./libDaisy/src/sys/system.h ****         void Defaults()
  36:./libDaisy/src/sys/system.h ****         {
  37:./libDaisy/src/sys/system.h ****             cpu_freq    = SysClkFreq::FREQ_400MHZ;
  38:./libDaisy/src/sys/system.h ****             use_dcache  = true;
  39:./libDaisy/src/sys/system.h ****             use_icache  = true;
  40:./libDaisy/src/sys/system.h ****             skip_clocks = false;
  41:./libDaisy/src/sys/system.h ****         }
  42:./libDaisy/src/sys/system.h **** 
  43:./libDaisy/src/sys/system.h ****         /** Method to call on the struct to set to boost mode:
  44:./libDaisy/src/sys/system.h ****          ** CPU Freq set to 480MHz
  45:./libDaisy/src/sys/system.h ****          ** Cache Enabled
  46:./libDaisy/src/sys/system.h ****          ** */
  47:./libDaisy/src/sys/system.h ****         void Boost()
  48:./libDaisy/src/sys/system.h ****         {
  49:./libDaisy/src/sys/system.h ****             cpu_freq    = SysClkFreq::FREQ_480MHZ;
  50:./libDaisy/src/sys/system.h ****             use_dcache  = true;
  51:./libDaisy/src/sys/system.h ****             use_icache  = true;
  52:./libDaisy/src/sys/system.h ****             skip_clocks = false;
  53:./libDaisy/src/sys/system.h ****         }
  54:./libDaisy/src/sys/system.h **** 
  55:./libDaisy/src/sys/system.h ****         SysClkFreq cpu_freq;
  56:./libDaisy/src/sys/system.h ****         bool       use_dcache;
  57:./libDaisy/src/sys/system.h ****         bool       use_icache;
  58:./libDaisy/src/sys/system.h ****         bool       skip_clocks;
  59:./libDaisy/src/sys/system.h ****     };
  60:./libDaisy/src/sys/system.h **** 
  61:./libDaisy/src/sys/system.h ****     /** Describes the different regions of memory available to the Daisy */
  62:./libDaisy/src/sys/system.h ****     enum MemoryRegion
  63:./libDaisy/src/sys/system.h ****     {
  64:./libDaisy/src/sys/system.h ****         INTERNAL_FLASH = 0,
  65:./libDaisy/src/sys/system.h ****         ITCMRAM,
  66:./libDaisy/src/sys/system.h ****         DTCMRAM,
  67:./libDaisy/src/sys/system.h ****         SRAM_D1,
  68:./libDaisy/src/sys/system.h ****         SRAM_D2,
  69:./libDaisy/src/sys/system.h ****         SRAM_D3,
  70:./libDaisy/src/sys/system.h ****         SDRAM,
  71:./libDaisy/src/sys/system.h ****         QSPI,
  72:./libDaisy/src/sys/system.h ****         INVALID_ADDRESS,
  73:./libDaisy/src/sys/system.h ****     };
  74:./libDaisy/src/sys/system.h **** 
  75:./libDaisy/src/sys/system.h ****     /** Bootloader struct for controlling bootloading parameters */
  76:./libDaisy/src/sys/system.h ****     struct BootInfo
  77:./libDaisy/src/sys/system.h ****     {
  78:./libDaisy/src/sys/system.h ****         enum class Type : uint32_t
  79:./libDaisy/src/sys/system.h ****         {
ARM GAS  /var/folders/s6/2bsynnl15rj0bwtb9pgx4dc00000gn/T//cc76hY55.s 			page 5


  80:./libDaisy/src/sys/system.h ****             INVALID      = 0x00000000,
  81:./libDaisy/src/sys/system.h ****             JUMP         = 0xDEADBEEF,
  82:./libDaisy/src/sys/system.h ****             SKIP_TIMEOUT = 0x5AFEB007,
  83:./libDaisy/src/sys/system.h ****             INF_TIMEOUT  = 0xB0074EFA,
  84:./libDaisy/src/sys/system.h ****         } status;
  85:./libDaisy/src/sys/system.h ****         uint32_t data;
  86:./libDaisy/src/sys/system.h ****         enum class Version : uint32_t
  87:./libDaisy/src/sys/system.h ****         {
  88:./libDaisy/src/sys/system.h ****             LT_v6_0 = 0, // Less than v6.0
  89:./libDaisy/src/sys/system.h ****             NONE,        // No bootloader present
  90:./libDaisy/src/sys/system.h ****             v6_0,        // v6.0
  91:./libDaisy/src/sys/system.h ****             v6_1,        // v6.1 or greater
  92:./libDaisy/src/sys/system.h ****             LAST
  93:./libDaisy/src/sys/system.h ****         } version;
  94:./libDaisy/src/sys/system.h ****     };
  95:./libDaisy/src/sys/system.h **** 
  96:./libDaisy/src/sys/system.h ****     System() {}
  97:./libDaisy/src/sys/system.h ****     ~System() {}
  68              		.loc 4 97 5 view .LVU5
  69              		.loc 4 97 5 is_stmt 0 view .LVU6
  70              	.LBE456:
  71              	.LBB457:
  72              	.LBI457:
  73              		.file 5 "./libDaisy/src/hid/usb.h"
   1:./libDaisy/src/hid/usb.h **** #pragma once
   2:./libDaisy/src/hid/usb.h **** #ifndef DSY_HID_USB_H
   3:./libDaisy/src/hid/usb.h **** #define DSY_HID_USB_H
   4:./libDaisy/src/hid/usb.h **** #include <stdint.h>
   5:./libDaisy/src/hid/usb.h **** #include <stdlib.h>
   6:./libDaisy/src/hid/usb.h **** 
   7:./libDaisy/src/hid/usb.h **** namespace daisy
   8:./libDaisy/src/hid/usb.h **** /** @addtogroup human_interface
   9:./libDaisy/src/hid/usb.h ****     @{
  10:./libDaisy/src/hid/usb.h **** */
  11:./libDaisy/src/hid/usb.h **** 
  12:./libDaisy/src/hid/usb.h **** {
  13:./libDaisy/src/hid/usb.h **** /** 
  14:./libDaisy/src/hid/usb.h ****     @brief Interface for initializing and using the USB Peripherals on the daisy
  15:./libDaisy/src/hid/usb.h ****     @author Stephen Hensley
  16:./libDaisy/src/hid/usb.h ****     @date December 2019
  17:./libDaisy/src/hid/usb.h **** */
  18:./libDaisy/src/hid/usb.h **** class UsbHandle
  19:./libDaisy/src/hid/usb.h **** {
  20:./libDaisy/src/hid/usb.h ****   public:
  21:./libDaisy/src/hid/usb.h ****     /** Return values for USBHandle Functions */
  22:./libDaisy/src/hid/usb.h ****     enum class Result
  23:./libDaisy/src/hid/usb.h ****     {
  24:./libDaisy/src/hid/usb.h ****         OK,
  25:./libDaisy/src/hid/usb.h ****         ERR,
  26:./libDaisy/src/hid/usb.h ****     };
  27:./libDaisy/src/hid/usb.h **** 
  28:./libDaisy/src/hid/usb.h ****     /** Specified which of the two USB Peripherals to initialize. */
  29:./libDaisy/src/hid/usb.h ****     enum UsbPeriph
  30:./libDaisy/src/hid/usb.h ****     {
  31:./libDaisy/src/hid/usb.h ****         FS_INTERNAL, /**< Internal pin */
  32:./libDaisy/src/hid/usb.h ****         FS_EXTERNAL, /**< FS External D+ pin is Pin 38 (GPIO32). FS External D- pin is Pin 37 (GPIO
  33:./libDaisy/src/hid/usb.h ****         FS_BOTH,     /**< Both */
ARM GAS  /var/folders/s6/2bsynnl15rj0bwtb9pgx4dc00000gn/T//cc76hY55.s 			page 6


  34:./libDaisy/src/hid/usb.h ****     };
  35:./libDaisy/src/hid/usb.h **** 
  36:./libDaisy/src/hid/usb.h **** 
  37:./libDaisy/src/hid/usb.h ****     /** Function called upon reception of a buffer */
  38:./libDaisy/src/hid/usb.h ****     typedef void (*ReceiveCallback)(uint8_t* buff, uint32_t* len);
  39:./libDaisy/src/hid/usb.h **** 
  40:./libDaisy/src/hid/usb.h ****     UsbHandle() {}
  41:./libDaisy/src/hid/usb.h **** 
  42:./libDaisy/src/hid/usb.h ****     ~UsbHandle() {}
  74              		.loc 5 42 5 is_stmt 1 view .LVU7
  75              		.loc 5 42 5 is_stmt 0 view .LVU8
  76              	.LBE457:
  77              	.LBB458:
  78              	.LBI458:
  79              		.file 6 "./libDaisy/src/per/adc.h"
   1:./libDaisy/src/per/adc.h **** #pragma once
   2:./libDaisy/src/per/adc.h **** #ifndef DSY_ADC_H
   3:./libDaisy/src/per/adc.h **** #define DSY_ADC_H /**< Macro */
   4:./libDaisy/src/per/adc.h **** #include <stdint.h>
   5:./libDaisy/src/per/adc.h **** #include <stdlib.h>
   6:./libDaisy/src/per/adc.h **** #include "daisy_core.h"
   7:./libDaisy/src/per/adc.h **** #include "per/gpio.h"
   8:./libDaisy/src/per/adc.h **** 
   9:./libDaisy/src/per/adc.h **** #define DSY_ADC_MAX_CHANNELS 16 /**< Maximum number of ADC channels */
  10:./libDaisy/src/per/adc.h **** 
  11:./libDaisy/src/per/adc.h **** namespace daisy
  12:./libDaisy/src/per/adc.h **** {
  13:./libDaisy/src/per/adc.h **** /** @addtogroup per_analog
  14:./libDaisy/src/per/adc.h ****     @{
  15:./libDaisy/src/per/adc.h **** */
  16:./libDaisy/src/per/adc.h **** 
  17:./libDaisy/src/per/adc.h **** /* While there may not be many configuration options here,
  18:./libDaisy/src/per/adc.h **** using a struct like this allows us to add more configuration
  19:./libDaisy/src/per/adc.h **** later without breaking existing functionality.
  20:./libDaisy/src/per/adc.h **** */
  21:./libDaisy/src/per/adc.h **** 
  22:./libDaisy/src/per/adc.h **** /** @brief   Configuration Structure for an ADC Channel 
  23:./libDaisy/src/per/adc.h ****  *  @details This can be used to configure a a single input, 
  24:./libDaisy/src/per/adc.h ****  *           or a multiplexed input, allowing up to 8 inputs on 
  25:./libDaisy/src/per/adc.h ****  *           one channel.
  26:./libDaisy/src/per/adc.h ****  *  @note    Sharing data lines to multiple muxes _is_ possible, but
  27:./libDaisy/src/per/adc.h ****  *           each channel sharing data lines must be set to the maximum
  28:./libDaisy/src/per/adc.h ****  *           number of channels, even if some multiplexers have fewer
  29:./libDaisy/src/per/adc.h ****  *           inputs connected.
  30:./libDaisy/src/per/adc.h **** */
  31:./libDaisy/src/per/adc.h **** struct AdcChannelConfig
  32:./libDaisy/src/per/adc.h **** {
  33:./libDaisy/src/per/adc.h ****     /** Which pin to use for multiplexing */
  34:./libDaisy/src/per/adc.h ****     enum MuxPin
  35:./libDaisy/src/per/adc.h ****     {
  36:./libDaisy/src/per/adc.h ****         MUX_SEL_0,    /**< & */
  37:./libDaisy/src/per/adc.h ****         MUX_SEL_1,    /**< & */
  38:./libDaisy/src/per/adc.h ****         MUX_SEL_2,    /**< & */
  39:./libDaisy/src/per/adc.h ****         MUX_SEL_LAST, /**< & */
  40:./libDaisy/src/per/adc.h ****     };
  41:./libDaisy/src/per/adc.h **** 
  42:./libDaisy/src/per/adc.h ****     /** \brief per channel conversion speed added to fixed time based on bitdepth, etc. */
ARM GAS  /var/folders/s6/2bsynnl15rj0bwtb9pgx4dc00000gn/T//cc76hY55.s 			page 7


  43:./libDaisy/src/per/adc.h ****     enum ConversionSpeed
  44:./libDaisy/src/per/adc.h ****     {
  45:./libDaisy/src/per/adc.h ****         SPEED_1CYCLES_5,
  46:./libDaisy/src/per/adc.h ****         SPEED_2CYCLES_5,
  47:./libDaisy/src/per/adc.h ****         SPEED_8CYCLES_5,
  48:./libDaisy/src/per/adc.h ****         SPEED_16CYCLES_5,
  49:./libDaisy/src/per/adc.h ****         SPEED_32CYCLES_5,
  50:./libDaisy/src/per/adc.h ****         SPEED_64CYCLES_5,
  51:./libDaisy/src/per/adc.h ****         SPEED_387CYCLES_5,
  52:./libDaisy/src/per/adc.h ****         SPEED_810CYCLES_5,
  53:./libDaisy/src/per/adc.h ****     };
  54:./libDaisy/src/per/adc.h **** 
  55:./libDaisy/src/per/adc.h ****     /** Initializes a single ADC pin as an ADC. 
  56:./libDaisy/src/per/adc.h ****     \param pin Pin to init.
  57:./libDaisy/src/per/adc.h ****     \param speed conversion speed for this pin defaults to 8.5 cycles
  58:./libDaisy/src/per/adc.h ****      */
  59:./libDaisy/src/per/adc.h ****     void InitSingle(dsy_gpio_pin pin, ConversionSpeed speed = SPEED_8CYCLES_5);
  60:./libDaisy/src/per/adc.h **** 
  61:./libDaisy/src/per/adc.h ****     /** 
  62:./libDaisy/src/per/adc.h ****     Initializes a single ADC pin as a Multiplexed ADC.
  63:./libDaisy/src/per/adc.h ****     Requires a CD405X Multiplexer connected to the pin.
  64:./libDaisy/src/per/adc.h ****     You only need to supply the mux pins that are required,
  65:./libDaisy/src/per/adc.h ****     e.g. a 4052 mux would only require mux_0 and mux_1.
  66:./libDaisy/src/per/adc.h ****     Internal Callbacks handle the pin addressing.
  67:./libDaisy/src/per/adc.h ****     \param adc_pin &
  68:./libDaisy/src/per/adc.h ****     \param mux_channels must be 1-8
  69:./libDaisy/src/per/adc.h ****     \param mux_0 First mux pin
  70:./libDaisy/src/per/adc.h ****     \param mux_1 Second mux pin
  71:./libDaisy/src/per/adc.h ****     \param mux_2 Third mux pin
  72:./libDaisy/src/per/adc.h ****     \param speed conversion speed for this pin defaults to 8.5 cycles
  73:./libDaisy/src/per/adc.h ****     */
  74:./libDaisy/src/per/adc.h ****     void InitMux(dsy_gpio_pin    adc_pin,
  75:./libDaisy/src/per/adc.h ****                  size_t          mux_channels,
  76:./libDaisy/src/per/adc.h ****                  dsy_gpio_pin    mux_0,
  77:./libDaisy/src/per/adc.h ****                  dsy_gpio_pin    mux_1 = {DSY_GPIOX, 0},
  78:./libDaisy/src/per/adc.h ****                  dsy_gpio_pin    mux_2 = {DSY_GPIOX, 0},
  79:./libDaisy/src/per/adc.h ****                  ConversionSpeed speed = SPEED_8CYCLES_5);
  80:./libDaisy/src/per/adc.h **** 
  81:./libDaisy/src/per/adc.h ****     dsy_gpio        pin_;                   /**< & */
  82:./libDaisy/src/per/adc.h ****     dsy_gpio        mux_pin_[MUX_SEL_LAST]; /**< & */
  83:./libDaisy/src/per/adc.h ****     uint8_t         mux_channels_;          /**< & */
  84:./libDaisy/src/per/adc.h ****     ConversionSpeed speed_;
  85:./libDaisy/src/per/adc.h **** };
  86:./libDaisy/src/per/adc.h **** 
  87:./libDaisy/src/per/adc.h **** /**
  88:./libDaisy/src/per/adc.h ****    @brief Handler for analog to digital conversion
  89:./libDaisy/src/per/adc.h **** */
  90:./libDaisy/src/per/adc.h **** class AdcHandle
  91:./libDaisy/src/per/adc.h **** {
  92:./libDaisy/src/per/adc.h ****   public:
  93:./libDaisy/src/per/adc.h ****     /** Supported oversampling amounts */
  94:./libDaisy/src/per/adc.h ****     enum OverSampling
  95:./libDaisy/src/per/adc.h ****     {
  96:./libDaisy/src/per/adc.h ****         OVS_NONE, /**< & */
  97:./libDaisy/src/per/adc.h ****         OVS_4,    /**< & */
  98:./libDaisy/src/per/adc.h ****         OVS_8,    /**< & */
  99:./libDaisy/src/per/adc.h ****         OVS_16,   /**< & */
ARM GAS  /var/folders/s6/2bsynnl15rj0bwtb9pgx4dc00000gn/T//cc76hY55.s 			page 8


 100:./libDaisy/src/per/adc.h ****         OVS_32,   /**< & */
 101:./libDaisy/src/per/adc.h ****         OVS_64,   /**< & */
 102:./libDaisy/src/per/adc.h ****         OVS_128,  /**< & */
 103:./libDaisy/src/per/adc.h ****         OVS_256,  /**< & */
 104:./libDaisy/src/per/adc.h ****         OVS_512,  /**< & */
 105:./libDaisy/src/per/adc.h ****         OVS_1024, /**< & */
 106:./libDaisy/src/per/adc.h ****         OVS_LAST, /**< & */
 107:./libDaisy/src/per/adc.h ****     };
 108:./libDaisy/src/per/adc.h **** 
 109:./libDaisy/src/per/adc.h ****     AdcHandle() {}
 110:./libDaisy/src/per/adc.h ****     ~AdcHandle() {}
  80              		.loc 6 110 5 is_stmt 1 view .LVU9
  81              		.loc 6 110 5 is_stmt 0 view .LVU10
  82              	.LBE458:
  83              	.LBB459:
  84              	.LBI459:
  85              		.file 7 "./libDaisy/src/hid/audio.h"
   1:./libDaisy/src/hid/audio.h **** #ifndef DSY_AUDIO_H
   2:./libDaisy/src/hid/audio.h **** #define DSY_AUDIO_H /**< & */
   3:./libDaisy/src/hid/audio.h **** 
   4:./libDaisy/src/hid/audio.h **** #include "per/sai.h"
   5:./libDaisy/src/hid/audio.h **** 
   6:./libDaisy/src/hid/audio.h **** namespace daisy
   7:./libDaisy/src/hid/audio.h **** {
   8:./libDaisy/src/hid/audio.h **** /** @brief Audio Engine Handle
   9:./libDaisy/src/hid/audio.h ****  *  @ingroup audio 
  10:./libDaisy/src/hid/audio.h ****  *  @details This class allows for higher level access to an audio engine.
  11:./libDaisy/src/hid/audio.h ****  *           If you're using a SOM like the DaisySeed or DaisyPatchSM (or any 
  12:./libDaisy/src/hid/audio.h ****  *            board that includes one of those objects) then the intialization
  13:./libDaisy/src/hid/audio.h ****  *            is already taken  care of.
  14:./libDaisy/src/hid/audio.h ****  *           If you're setting up your own custom hardware, or need to make changes
  15:./libDaisy/src/hid/audio.h ****  *           you will have to take the following steps:
  16:./libDaisy/src/hid/audio.h ****  *             1. Create and Initialize an SaiHandle or two depending on your requirements
  17:./libDaisy/src/hid/audio.h ****  *             2. Initialize the Audio Handle with the desired settings and the Initialized SaiHand
  18:./libDaisy/src/hid/audio.h ****  *             3. If the connected codec requires special configuration or initialization, do so
  19:./libDaisy/src/hid/audio.h ****  *             4. Write a callback method using either the AudioCallback or the InterleavingAudioCa
  20:./libDaisy/src/hid/audio.h ****  *             5. Start the Audio using one of the StartAudio function
  21:./libDaisy/src/hid/audio.h ****  */
  22:./libDaisy/src/hid/audio.h **** class AudioHandle
  23:./libDaisy/src/hid/audio.h **** {
  24:./libDaisy/src/hid/audio.h ****   public:
  25:./libDaisy/src/hid/audio.h ****     /** Manually configurable details about the Audio Engine */
  26:./libDaisy/src/hid/audio.h ****     /** TODO: Figure out how to get samplerate in here. */
  27:./libDaisy/src/hid/audio.h ****     struct Config
  28:./libDaisy/src/hid/audio.h ****     {
  29:./libDaisy/src/hid/audio.h ****         /** number of samples to process per callback */
  30:./libDaisy/src/hid/audio.h ****         size_t blocksize;
  31:./libDaisy/src/hid/audio.h **** 
  32:./libDaisy/src/hid/audio.h ****         /**< Sample rate of audio */
  33:./libDaisy/src/hid/audio.h ****         SaiHandle::Config::SampleRate samplerate;
  34:./libDaisy/src/hid/audio.h **** 
  35:./libDaisy/src/hid/audio.h ****         /** factor for adjustment before and after callback for hardware that may have extra headro
  36:./libDaisy/src/hid/audio.h ****         float postgain;
  37:./libDaisy/src/hid/audio.h **** 
  38:./libDaisy/src/hid/audio.h ****         /** factor for additional one-sided compensation to audio path for hardware that may
  39:./libDaisy/src/hid/audio.h ****          *  have unequal input/output ranges
  40:./libDaisy/src/hid/audio.h ****          */
ARM GAS  /var/folders/s6/2bsynnl15rj0bwtb9pgx4dc00000gn/T//cc76hY55.s 			page 9


  41:./libDaisy/src/hid/audio.h ****         float output_compensation;
  42:./libDaisy/src/hid/audio.h **** 
  43:./libDaisy/src/hid/audio.h ****         /** Sets default values for config struct */
  44:./libDaisy/src/hid/audio.h ****         Config()
  45:./libDaisy/src/hid/audio.h ****         : blocksize(48),
  46:./libDaisy/src/hid/audio.h ****           samplerate(SaiHandle::Config::SampleRate::SAI_48KHZ),
  47:./libDaisy/src/hid/audio.h ****           postgain(1.f),
  48:./libDaisy/src/hid/audio.h ****           output_compensation(1.f)
  49:./libDaisy/src/hid/audio.h ****         {
  50:./libDaisy/src/hid/audio.h ****         }
  51:./libDaisy/src/hid/audio.h ****     };
  52:./libDaisy/src/hid/audio.h **** 
  53:./libDaisy/src/hid/audio.h ****     enum class Result
  54:./libDaisy/src/hid/audio.h ****     {
  55:./libDaisy/src/hid/audio.h ****         OK,
  56:./libDaisy/src/hid/audio.h ****         ERR,
  57:./libDaisy/src/hid/audio.h ****     };
  58:./libDaisy/src/hid/audio.h **** 
  59:./libDaisy/src/hid/audio.h ****     /** Non-Interleaving input buffer
  60:./libDaisy/src/hid/audio.h ****      * Buffer arranged by float[chn][sample] 
  61:./libDaisy/src/hid/audio.h ****      * const so that the user can't modify the input
  62:./libDaisy/src/hid/audio.h ****      */
  63:./libDaisy/src/hid/audio.h ****     typedef const float* const* InputBuffer;
  64:./libDaisy/src/hid/audio.h **** 
  65:./libDaisy/src/hid/audio.h ****     /** Non-Interleaving output buffer
  66:./libDaisy/src/hid/audio.h ****      * Arranged by float[chn][sample] 
  67:./libDaisy/src/hid/audio.h ****      */
  68:./libDaisy/src/hid/audio.h ****     typedef float** OutputBuffer;
  69:./libDaisy/src/hid/audio.h **** 
  70:./libDaisy/src/hid/audio.h ****     /** Type for a Non-Interleaving audio callback 
  71:./libDaisy/src/hid/audio.h ****      * Non-Interleaving audio callbacks in daisy will be of this type
  72:./libDaisy/src/hid/audio.h ****      */
  73:./libDaisy/src/hid/audio.h ****     typedef void (*AudioCallback)(InputBuffer  in,
  74:./libDaisy/src/hid/audio.h ****                                   OutputBuffer out,
  75:./libDaisy/src/hid/audio.h ****                                   size_t       size);
  76:./libDaisy/src/hid/audio.h **** 
  77:./libDaisy/src/hid/audio.h ****     /** Interleaving Input buffer
  78:./libDaisy/src/hid/audio.h ****      ** audio is prepared as { L0, R0, L1, R1, . . . LN, RN }]
  79:./libDaisy/src/hid/audio.h ****      ** this is const, as the user shouldn't modify it
  80:./libDaisy/src/hid/audio.h ****     */
  81:./libDaisy/src/hid/audio.h ****     typedef const float* InterleavingInputBuffer;
  82:./libDaisy/src/hid/audio.h **** 
  83:./libDaisy/src/hid/audio.h ****     /** Interleaving Output buffer 
  84:./libDaisy/src/hid/audio.h ****      ** audio is prepared as { L0, R0, L1, R1, . . . LN, RN }
  85:./libDaisy/src/hid/audio.h ****     */
  86:./libDaisy/src/hid/audio.h ****     typedef float* InterleavingOutputBuffer;
  87:./libDaisy/src/hid/audio.h **** 
  88:./libDaisy/src/hid/audio.h ****     /** Interleaving Audio Callback 
  89:./libDaisy/src/hid/audio.h ****      * Interleaving audio callbacks in daisy must be of this type
  90:./libDaisy/src/hid/audio.h ****      */
  91:./libDaisy/src/hid/audio.h ****     typedef void (*InterleavingAudioCallback)(InterleavingInputBuffer  in,
  92:./libDaisy/src/hid/audio.h ****                                               InterleavingOutputBuffer out,
  93:./libDaisy/src/hid/audio.h ****                                               size_t                   size);
  94:./libDaisy/src/hid/audio.h **** 
  95:./libDaisy/src/hid/audio.h ****     AudioHandle() : pimpl_(nullptr) {}
  96:./libDaisy/src/hid/audio.h ****     ~AudioHandle() {}
  86              		.loc 7 96 5 is_stmt 1 view .LVU11
ARM GAS  /var/folders/s6/2bsynnl15rj0bwtb9pgx4dc00000gn/T//cc76hY55.s 			page 10


  87              		.loc 7 96 5 is_stmt 0 view .LVU12
  88              	.LBE459:
  89              		.loc 3 22 19 view .LVU13
  90 0000 7047     		bx	lr
  91              		.cfi_endproc
  92              	.LFE2556:
  94              		.weak	_ZN5daisy9DaisySeedD1Ev
  95              		.thumb_set _ZN5daisy9DaisySeedD1Ev,_ZN5daisy9DaisySeedD2Ev
  96 0002 00BF     		.section	.text._Z13AudioCallbackPKPKfPPfj,"ax",%progbits
  97              		.align	1
  98              		.p2align 2,,3
  99              		.global	_Z13AudioCallbackPKPKfPPfj
 100              		.syntax unified
 101              		.thumb
 102              		.thumb_func
 104              	_Z13AudioCallbackPKPKfPPfj:
 105              	.LVL2:
 106              	.LFB5018:
 107              		.file 8 "TestTFT.cpp"
   1:TestTFT.cpp   **** //Main.cpp
   2:TestTFT.cpp   **** 
   3:TestTFT.cpp   **** 
   4:TestTFT.cpp   **** #include "daisy_seed.h"
   5:TestTFT.cpp   **** #include "GFX.h"
   6:TestTFT.cpp   **** #include "Vanilla20pt.h"
   7:TestTFT.cpp   **** #include "FreeSansBold24pt.h"
   8:TestTFT.cpp   **** #include "Pap.h"
   9:TestTFT.cpp   **** #include "Buttons.h"
  10:TestTFT.cpp   **** #include "Menu.h"
  11:TestTFT.cpp   **** #include "daisy.h"
  12:TestTFT.cpp   **** #include <stdio.h>
  13:TestTFT.cpp   **** #include "Spirits.h"
  14:TestTFT.cpp   **** 
  15:TestTFT.cpp   **** 
  16:TestTFT.cpp   **** #define DSY_SDRAM_BSS_FRAMEBUFF __attribute__((section(".sdram_bss_framebuff")))
  17:TestTFT.cpp   **** #define DSY_SDRAM_BSS_PAPMAP __attribute__((section(".sdram_bss_papmap")))
  18:TestTFT.cpp   **** #define MAIN_MENU_OPTIONS 4
  19:TestTFT.cpp   **** #define CHORD_SELECTION_OPTIONS 8  // For the 7 chords in C major
  20:TestTFT.cpp   **** #define SOUND_DESIGN_OPTIONS 5     // Oscillator, ADSR, LFO, Effects, Filter
  21:TestTFT.cpp   **** #define PERFORMANCE_SETTINGS_OPTIONS 3  // Example: Arpeggiator, Chord Strumming, Velocity
  22:TestTFT.cpp   **** #define GLOBAL_SETTINGS_OPTIONS 4  // Example: MIDI, Output, Screen, Save/Load
  23:TestTFT.cpp   **** using namespace daisy;
  24:TestTFT.cpp   **** 
  25:TestTFT.cpp   **** 
  26:TestTFT.cpp   **** Spirits spirits;
  27:TestTFT.cpp   **** Spirits sound2;
  28:TestTFT.cpp   **** Spirits option3Sound;
  29:TestTFT.cpp   **** 
  30:TestTFT.cpp   **** DaisySeed hw;
  31:TestTFT.cpp   **** int projectBPM = 120;
  32:TestTFT.cpp   **** 
  33:TestTFT.cpp   **** FIFO_Data DMA_BUFFER_MEM_SECTION __Fifo;
  34:TestTFT.cpp   **** RGB DSY_SDRAM_BSS_FRAMEBUFF __FrameBuff[TFT_WIDTH * TFT_HEIGHT];
  35:TestTFT.cpp   **** cGFX __Display;
  36:TestTFT.cpp   **** cFont FreeSans15(&FreeSans15pt7b);
  37:TestTFT.cpp   **** //cFont FreeSans30B(&FreeSansBold30pt7b);
  38:TestTFT.cpp   **** uint32_t lastTriggerTime = 0;
ARM GAS  /var/folders/s6/2bsynnl15rj0bwtb9pgx4dc00000gn/T//cc76hY55.s 			page 11


  39:TestTFT.cpp   **** 
  40:TestTFT.cpp   **** Encoder encoder;
  41:TestTFT.cpp   **** 
  42:TestTFT.cpp   **** void AudioCallback(AudioHandle::InputBuffer in, AudioHandle::OutputBuffer out, size_t size)
  43:TestTFT.cpp   **** {
 108              		.loc 8 43 1 is_stmt 1 view -0
 109              		.cfi_startproc
 110              		@ args = 0, pretend = 0, frame = 0
 111              		@ frame_needed = 0, uses_anonymous_args = 0
  44:TestTFT.cpp   ****     for (size_t i = 0; i < size; i++)
 112              		.loc 8 44 5 view .LVU15
 113              	.LBB460:
 114              		.loc 8 44 26 view .LVU16
 115 0000 32B3     		cbz	r2, .L12
 116              	.LBE460:
  43:TestTFT.cpp   ****     for (size_t i = 0; i < size; i++)
 117              		.loc 8 43 1 is_stmt 0 view .LVU17
 118 0002 70B5     		push	{r4, r5, r6, lr}
 119              		.cfi_def_cfa_offset 16
 120              		.cfi_offset 4, -16
 121              		.cfi_offset 5, -12
 122              		.cfi_offset 6, -8
 123              		.cfi_offset 14, -4
 124 0004 0D46     		mov	r5, r1
 125 0006 1646     		mov	r6, r2
 126              	.LBB464:
 127              		.loc 8 44 17 view .LVU18
 128 0008 0024     		movs	r4, #0
 129              	.LBE464:
  43:TestTFT.cpp   ****     for (size_t i = 0; i < size; i++)
 130              		.loc 8 43 1 view .LVU19
 131 000a 2DED028B 		vpush.64	{d8}
 132              		.cfi_def_cfa_offset 24
 133              		.cfi_offset 80, -24
 134              		.cfi_offset 81, -20
 135              	.LVL3:
 136              	.L6:
 137              	.LBB465:
 138              	.LBB461:
  45:TestTFT.cpp   ****     {
  46:TestTFT.cpp   ****         float spirit_out = spirits.Process();
 139              		.loc 8 46 9 is_stmt 1 discriminator 2 view .LVU20
 140              		.loc 8 46 43 is_stmt 0 discriminator 2 view .LVU21
 141 000e 1148     		ldr	r0, .L15
 142 0010 FFF7FEFF 		bl	_ZN7Spirits7ProcessEv
 143              	.LVL4:
  47:TestTFT.cpp   ****         float sound2_out = sound2.Process();
 144              		.loc 8 47 42 discriminator 2 view .LVU22
 145 0014 1048     		ldr	r0, .L15+4
  46:TestTFT.cpp   ****         float sound2_out = sound2.Process();
 146              		.loc 8 46 43 discriminator 2 view .LVU23
 147 0016 B0EE408A 		vmov.f32	s16, s0
 148              	.LVL5:
 149              		.loc 8 47 9 is_stmt 1 discriminator 2 view .LVU24
 150              		.loc 8 47 42 is_stmt 0 discriminator 2 view .LVU25
 151 001a FFF7FEFF 		bl	_ZN7Spirits7ProcessEv
 152              	.LVL6:
ARM GAS  /var/folders/s6/2bsynnl15rj0bwtb9pgx4dc00000gn/T//cc76hY55.s 			page 12


 153              		.loc 8 47 42 discriminator 2 view .LVU26
 154 001e F0EE408A 		vmov.f32	s17, s0
 155              	.LVL7:
  48:TestTFT.cpp   ****         float option3_out = option3Sound.Process();
 156              		.loc 8 48 9 is_stmt 1 discriminator 2 view .LVU27
 157              		.loc 8 48 49 is_stmt 0 discriminator 2 view .LVU28
 158 0022 0E48     		ldr	r0, .L15+8
 159 0024 FFF7FEFF 		bl	_ZN7Spirits7ProcessEv
 160              	.LVL8:
  49:TestTFT.cpp   ****         
  50:TestTFT.cpp   ****         // Mix the sounds or choose which one to output based on your requirements
  51:TestTFT.cpp   ****         float mixed_out = spirit_out + sound2_out + option3_out;  // Simple mixing, adjust as neede
 161              		.loc 8 51 9 is_stmt 1 discriminator 2 view .LVU29
  52:TestTFT.cpp   ****         
  53:TestTFT.cpp   ****         out[0][i] = mixed_out;
 162              		.loc 8 53 19 is_stmt 0 discriminator 2 view .LVU30
 163 0028 2868     		ldr	r0, [r5]
  54:TestTFT.cpp   ****         out[1][i] = mixed_out;
 164              		.loc 8 54 19 discriminator 2 view .LVU31
 165 002a 6B68     		ldr	r3, [r5, #4]
  51:TestTFT.cpp   ****         
 166              		.loc 8 51 38 discriminator 2 view .LVU32
 167 002c 38EE288A 		vadd.f32	s16, s16, s17
 168              	.LVL9:
  53:TestTFT.cpp   ****         out[1][i] = mixed_out;
 169              		.loc 8 53 19 discriminator 2 view .LVU33
 170 0030 00EB8400 		add	r0, r0, r4, lsl #2
 171              		.loc 8 54 19 discriminator 2 view .LVU34
 172 0034 03EB8403 		add	r3, r3, r4, lsl #2
 173              	.LBE461:
  44:TestTFT.cpp   ****     {
 174              		.loc 8 44 5 discriminator 2 view .LVU35
 175 0038 0134     		adds	r4, r4, #1
 176              	.LVL10:
 177              	.LBB462:
  51:TestTFT.cpp   ****         
 178              		.loc 8 51 15 discriminator 2 view .LVU36
 179 003a 38EE000A 		vadd.f32	s0, s16, s0
 180              	.LVL11:
  53:TestTFT.cpp   ****         out[1][i] = mixed_out;
 181              		.loc 8 53 9 is_stmt 1 discriminator 2 view .LVU37
 182              	.LBE462:
  44:TestTFT.cpp   ****     {
 183              		.loc 8 44 26 is_stmt 0 discriminator 2 view .LVU38
 184 003e A642     		cmp	r6, r4
 185              	.LBB463:
  53:TestTFT.cpp   ****         out[1][i] = mixed_out;
 186              		.loc 8 53 19 discriminator 2 view .LVU39
 187 0040 80ED000A 		vstr.32	s0, [r0]
 188              		.loc 8 54 9 is_stmt 1 discriminator 2 view .LVU40
 189              		.loc 8 54 19 is_stmt 0 discriminator 2 view .LVU41
 190 0044 83ED000A 		vstr.32	s0, [r3]
 191              	.LBE463:
  44:TestTFT.cpp   ****     {
 192              		.loc 8 44 5 is_stmt 1 discriminator 2 view .LVU42
 193              	.LVL12:
  44:TestTFT.cpp   ****     {
ARM GAS  /var/folders/s6/2bsynnl15rj0bwtb9pgx4dc00000gn/T//cc76hY55.s 			page 13


 194              		.loc 8 44 26 discriminator 2 view .LVU43
 195 0048 E1D1     		bne	.L6
 196              	.LBE465:
  55:TestTFT.cpp   ****     }
  56:TestTFT.cpp   **** }
 197              		.loc 8 56 1 is_stmt 0 view .LVU44
 198 004a BDEC028B 		vldm	sp!, {d8}
 199              		.cfi_restore 80
 200              		.cfi_restore 81
 201              		.cfi_def_cfa_offset 16
 202 004e 70BD     		pop	{r4, r5, r6, pc}
 203              	.LVL13:
 204              	.L12:
 205              		.cfi_def_cfa_offset 0
 206              		.cfi_restore 4
 207              		.cfi_restore 5
 208              		.cfi_restore 6
 209              		.cfi_restore 14
 210              		.loc 8 56 1 view .LVU45
 211 0050 7047     		bx	lr
 212              	.L16:
 213 0052 00BF     		.align	2
 214              	.L15:
 215 0054 00000000 		.word	.LANCHOR0
 216 0058 00000000 		.word	.LANCHOR1
 217 005c 00000000 		.word	.LANCHOR2
 218              		.cfi_endproc
 219              	.LFE5018:
 221              		.section	.text._ZN7SpiritsD2Ev,"axG",%progbits,_ZN7SpiritsD5Ev,comdat
 222              		.align	1
 223              		.p2align 2,,3
 224              		.weak	_ZN7SpiritsD2Ev
 225              		.syntax unified
 226              		.thumb
 227              		.thumb_func
 229              	_ZN7SpiritsD2Ev:
 230              	.LVL14:
 231              	.LFB5665:
 232              		.file 9 "Spirits.h"
   1:Spirits.h     **** #pragma once
   2:Spirits.h     **** #include "Sound.h"
   3:Spirits.h     **** #include <array>
   4:Spirits.h     **** 
   5:Spirits.h     **** class Spirits : public Sound {
 233              		.loc 9 5 7 is_stmt 1 view -0
 234              		.cfi_startproc
 235              		@ args = 0, pretend = 0, frame = 0
 236              		@ frame_needed = 0, uses_anonymous_args = 0
 237              	.LBB466:
 238              		.loc 9 5 7 is_stmt 0 view .LVU47
 239 0000 034B     		ldr	r3, .L19
 240              	.LBE466:
 241 0002 10B5     		push	{r4, lr}
 242              		.cfi_def_cfa_offset 8
 243              		.cfi_offset 4, -8
 244              		.cfi_offset 14, -4
 245              		.loc 9 5 7 view .LVU48
ARM GAS  /var/folders/s6/2bsynnl15rj0bwtb9pgx4dc00000gn/T//cc76hY55.s 			page 14


 246 0004 0446     		mov	r4, r0
 247              	.LBB469:
 248 0006 0360     		str	r3, [r0]
 249              	.LVL15:
 250              	.LBB467:
 251              	.LBI467:
 252              		.file 10 "./DaisySP/Source/Control/adenv.h"
   1:./DaisySP/Source/Control/adenv.h **** /*
   2:./DaisySP/Source/Control/adenv.h **** Copyright (c) 2020 Electrosmith, Corp
   3:./DaisySP/Source/Control/adenv.h **** 
   4:./DaisySP/Source/Control/adenv.h **** Use of this source code is governed by an MIT-style
   5:./DaisySP/Source/Control/adenv.h **** license that can be found in the LICENSE file or at
   6:./DaisySP/Source/Control/adenv.h **** https://opensource.org/licenses/MIT.
   7:./DaisySP/Source/Control/adenv.h **** */
   8:./DaisySP/Source/Control/adenv.h **** 
   9:./DaisySP/Source/Control/adenv.h **** #pragma once
  10:./DaisySP/Source/Control/adenv.h **** #ifndef ADENV_H
  11:./DaisySP/Source/Control/adenv.h **** #define ADENV_H
  12:./DaisySP/Source/Control/adenv.h **** #include <stdint.h>
  13:./DaisySP/Source/Control/adenv.h **** #ifdef __cplusplus
  14:./DaisySP/Source/Control/adenv.h **** 
  15:./DaisySP/Source/Control/adenv.h **** namespace daisysp
  16:./DaisySP/Source/Control/adenv.h **** {
  17:./DaisySP/Source/Control/adenv.h **** /** Distinct stages that the phase of the envelope can be located in.
  18:./DaisySP/Source/Control/adenv.h ****     @see AdEnv
  19:./DaisySP/Source/Control/adenv.h **** */
  20:./DaisySP/Source/Control/adenv.h **** enum AdEnvSegment
  21:./DaisySP/Source/Control/adenv.h **** {
  22:./DaisySP/Source/Control/adenv.h ****     /** located at phase location 0, and not currently running */
  23:./DaisySP/Source/Control/adenv.h ****     ADENV_SEG_IDLE,
  24:./DaisySP/Source/Control/adenv.h ****     /** First segment of envelope where phase moves from MIN value to MAX value */
  25:./DaisySP/Source/Control/adenv.h ****     ADENV_SEG_ATTACK,
  26:./DaisySP/Source/Control/adenv.h ****     /** Second segment of envelope where phase moves from MAX to MIN value */
  27:./DaisySP/Source/Control/adenv.h ****     ADENV_SEG_DECAY,
  28:./DaisySP/Source/Control/adenv.h ****     /** The final segment of the envelope (currently decay) */
  29:./DaisySP/Source/Control/adenv.h ****     ADENV_SEG_LAST,
  30:./DaisySP/Source/Control/adenv.h **** };
  31:./DaisySP/Source/Control/adenv.h **** 
  32:./DaisySP/Source/Control/adenv.h **** /** Trigger-able envelope with adjustable min/max, and independent per-segment time control.
  33:./DaisySP/Source/Control/adenv.h **** 
  34:./DaisySP/Source/Control/adenv.h ****     \author shensley
  35:./DaisySP/Source/Control/adenv.h ****     \todo - Add Cycling
  36:./DaisySP/Source/Control/adenv.h ****     \todo - Implement Curve (its only linear for now).
  37:./DaisySP/Source/Control/adenv.h ****     \todo - Maybe make this an ADsr_ that has AD/AR/Asr_ modes.
  38:./DaisySP/Source/Control/adenv.h ****  */
  39:./DaisySP/Source/Control/adenv.h **** class AdEnv
  40:./DaisySP/Source/Control/adenv.h **** {
  41:./DaisySP/Source/Control/adenv.h ****   public:
  42:./DaisySP/Source/Control/adenv.h ****     AdEnv() {}
  43:./DaisySP/Source/Control/adenv.h ****     ~AdEnv() {}
 253              		.loc 10 43 5 is_stmt 1 view .LVU49
 254              		.loc 10 43 5 is_stmt 0 view .LVU50
 255              	.LBE467:
 256              	.LBB468:
 257              	.LBI468:
 258              		.file 11 "/Library/DaisyToolchain/0.2.0/arm/arm-none-eabi/include/c++/10.3.1/array"
   1:/Library/DaisyToolchain/0.2.0/arm/arm-none-eabi/include/c++/10.3.1/array **** // <array> -*- C++ -*-
ARM GAS  /var/folders/s6/2bsynnl15rj0bwtb9pgx4dc00000gn/T//cc76hY55.s 			page 15


   2:/Library/DaisyToolchain/0.2.0/arm/arm-none-eabi/include/c++/10.3.1/array **** 
   3:/Library/DaisyToolchain/0.2.0/arm/arm-none-eabi/include/c++/10.3.1/array **** // Copyright (C) 2007-2020 Free Software Foundation, Inc.
   4:/Library/DaisyToolchain/0.2.0/arm/arm-none-eabi/include/c++/10.3.1/array **** //
   5:/Library/DaisyToolchain/0.2.0/arm/arm-none-eabi/include/c++/10.3.1/array **** // This file is part of the GNU ISO C++ Library.  This library is free
   6:/Library/DaisyToolchain/0.2.0/arm/arm-none-eabi/include/c++/10.3.1/array **** // software; you can redistribute it and/or modify it under the
   7:/Library/DaisyToolchain/0.2.0/arm/arm-none-eabi/include/c++/10.3.1/array **** // terms of the GNU General Public License as published by the
   8:/Library/DaisyToolchain/0.2.0/arm/arm-none-eabi/include/c++/10.3.1/array **** // Free Software Foundation; either version 3, or (at your option)
   9:/Library/DaisyToolchain/0.2.0/arm/arm-none-eabi/include/c++/10.3.1/array **** // any later version.
  10:/Library/DaisyToolchain/0.2.0/arm/arm-none-eabi/include/c++/10.3.1/array **** 
  11:/Library/DaisyToolchain/0.2.0/arm/arm-none-eabi/include/c++/10.3.1/array **** // This library is distributed in the hope that it will be useful,
  12:/Library/DaisyToolchain/0.2.0/arm/arm-none-eabi/include/c++/10.3.1/array **** // but WITHOUT ANY WARRANTY; without even the implied warranty of
  13:/Library/DaisyToolchain/0.2.0/arm/arm-none-eabi/include/c++/10.3.1/array **** // MERCHANTABILITY or FITNESS FOR A PARTICULAR PURPOSE.  See the
  14:/Library/DaisyToolchain/0.2.0/arm/arm-none-eabi/include/c++/10.3.1/array **** // GNU General Public License for more details.
  15:/Library/DaisyToolchain/0.2.0/arm/arm-none-eabi/include/c++/10.3.1/array **** 
  16:/Library/DaisyToolchain/0.2.0/arm/arm-none-eabi/include/c++/10.3.1/array **** // Under Section 7 of GPL version 3, you are granted additional
  17:/Library/DaisyToolchain/0.2.0/arm/arm-none-eabi/include/c++/10.3.1/array **** // permissions described in the GCC Runtime Library Exception, version
  18:/Library/DaisyToolchain/0.2.0/arm/arm-none-eabi/include/c++/10.3.1/array **** // 3.1, as published by the Free Software Foundation.
  19:/Library/DaisyToolchain/0.2.0/arm/arm-none-eabi/include/c++/10.3.1/array **** 
  20:/Library/DaisyToolchain/0.2.0/arm/arm-none-eabi/include/c++/10.3.1/array **** // You should have received a copy of the GNU General Public License and
  21:/Library/DaisyToolchain/0.2.0/arm/arm-none-eabi/include/c++/10.3.1/array **** // a copy of the GCC Runtime Library Exception along with this program;
  22:/Library/DaisyToolchain/0.2.0/arm/arm-none-eabi/include/c++/10.3.1/array **** // see the files COPYING3 and COPYING.RUNTIME respectively.  If not, see
  23:/Library/DaisyToolchain/0.2.0/arm/arm-none-eabi/include/c++/10.3.1/array **** // <http://www.gnu.org/licenses/>.
  24:/Library/DaisyToolchain/0.2.0/arm/arm-none-eabi/include/c++/10.3.1/array **** 
  25:/Library/DaisyToolchain/0.2.0/arm/arm-none-eabi/include/c++/10.3.1/array **** /** @file include/array
  26:/Library/DaisyToolchain/0.2.0/arm/arm-none-eabi/include/c++/10.3.1/array ****  *  This is a Standard C++ Library header.
  27:/Library/DaisyToolchain/0.2.0/arm/arm-none-eabi/include/c++/10.3.1/array ****  */
  28:/Library/DaisyToolchain/0.2.0/arm/arm-none-eabi/include/c++/10.3.1/array **** 
  29:/Library/DaisyToolchain/0.2.0/arm/arm-none-eabi/include/c++/10.3.1/array **** #ifndef _GLIBCXX_ARRAY
  30:/Library/DaisyToolchain/0.2.0/arm/arm-none-eabi/include/c++/10.3.1/array **** #define _GLIBCXX_ARRAY 1
  31:/Library/DaisyToolchain/0.2.0/arm/arm-none-eabi/include/c++/10.3.1/array **** 
  32:/Library/DaisyToolchain/0.2.0/arm/arm-none-eabi/include/c++/10.3.1/array **** #pragma GCC system_header
  33:/Library/DaisyToolchain/0.2.0/arm/arm-none-eabi/include/c++/10.3.1/array **** 
  34:/Library/DaisyToolchain/0.2.0/arm/arm-none-eabi/include/c++/10.3.1/array **** #if __cplusplus < 201103L
  35:/Library/DaisyToolchain/0.2.0/arm/arm-none-eabi/include/c++/10.3.1/array **** # include <bits/c++0x_warning.h>
  36:/Library/DaisyToolchain/0.2.0/arm/arm-none-eabi/include/c++/10.3.1/array **** #else
  37:/Library/DaisyToolchain/0.2.0/arm/arm-none-eabi/include/c++/10.3.1/array **** 
  38:/Library/DaisyToolchain/0.2.0/arm/arm-none-eabi/include/c++/10.3.1/array **** #include <utility>
  39:/Library/DaisyToolchain/0.2.0/arm/arm-none-eabi/include/c++/10.3.1/array **** #include <bits/functexcept.h>
  40:/Library/DaisyToolchain/0.2.0/arm/arm-none-eabi/include/c++/10.3.1/array **** #include <bits/stl_algobase.h>
  41:/Library/DaisyToolchain/0.2.0/arm/arm-none-eabi/include/c++/10.3.1/array **** #include <bits/range_access.h>
  42:/Library/DaisyToolchain/0.2.0/arm/arm-none-eabi/include/c++/10.3.1/array **** 
  43:/Library/DaisyToolchain/0.2.0/arm/arm-none-eabi/include/c++/10.3.1/array **** namespace std _GLIBCXX_VISIBILITY(default)
  44:/Library/DaisyToolchain/0.2.0/arm/arm-none-eabi/include/c++/10.3.1/array **** {
  45:/Library/DaisyToolchain/0.2.0/arm/arm-none-eabi/include/c++/10.3.1/array **** _GLIBCXX_BEGIN_NAMESPACE_CONTAINER
  46:/Library/DaisyToolchain/0.2.0/arm/arm-none-eabi/include/c++/10.3.1/array **** 
  47:/Library/DaisyToolchain/0.2.0/arm/arm-none-eabi/include/c++/10.3.1/array ****   template<typename _Tp, std::size_t _Nm>
  48:/Library/DaisyToolchain/0.2.0/arm/arm-none-eabi/include/c++/10.3.1/array ****     struct __array_traits
  49:/Library/DaisyToolchain/0.2.0/arm/arm-none-eabi/include/c++/10.3.1/array ****     {
  50:/Library/DaisyToolchain/0.2.0/arm/arm-none-eabi/include/c++/10.3.1/array ****       typedef _Tp _Type[_Nm];
  51:/Library/DaisyToolchain/0.2.0/arm/arm-none-eabi/include/c++/10.3.1/array ****       typedef __is_swappable<_Tp> _Is_swappable;
  52:/Library/DaisyToolchain/0.2.0/arm/arm-none-eabi/include/c++/10.3.1/array ****       typedef __is_nothrow_swappable<_Tp> _Is_nothrow_swappable;
  53:/Library/DaisyToolchain/0.2.0/arm/arm-none-eabi/include/c++/10.3.1/array **** 
  54:/Library/DaisyToolchain/0.2.0/arm/arm-none-eabi/include/c++/10.3.1/array ****       static constexpr _Tp&
  55:/Library/DaisyToolchain/0.2.0/arm/arm-none-eabi/include/c++/10.3.1/array ****       _S_ref(const _Type& __t, std::size_t __n) noexcept
  56:/Library/DaisyToolchain/0.2.0/arm/arm-none-eabi/include/c++/10.3.1/array ****       { return const_cast<_Tp&>(__t[__n]); }
  57:/Library/DaisyToolchain/0.2.0/arm/arm-none-eabi/include/c++/10.3.1/array **** 
  58:/Library/DaisyToolchain/0.2.0/arm/arm-none-eabi/include/c++/10.3.1/array ****       static constexpr _Tp*
ARM GAS  /var/folders/s6/2bsynnl15rj0bwtb9pgx4dc00000gn/T//cc76hY55.s 			page 16


  59:/Library/DaisyToolchain/0.2.0/arm/arm-none-eabi/include/c++/10.3.1/array ****       _S_ptr(const _Type& __t) noexcept
  60:/Library/DaisyToolchain/0.2.0/arm/arm-none-eabi/include/c++/10.3.1/array ****       { return const_cast<_Tp*>(__t); }
  61:/Library/DaisyToolchain/0.2.0/arm/arm-none-eabi/include/c++/10.3.1/array ****     };
  62:/Library/DaisyToolchain/0.2.0/arm/arm-none-eabi/include/c++/10.3.1/array **** 
  63:/Library/DaisyToolchain/0.2.0/arm/arm-none-eabi/include/c++/10.3.1/array ****  template<typename _Tp>
  64:/Library/DaisyToolchain/0.2.0/arm/arm-none-eabi/include/c++/10.3.1/array ****    struct __array_traits<_Tp, 0>
  65:/Library/DaisyToolchain/0.2.0/arm/arm-none-eabi/include/c++/10.3.1/array ****    {
  66:/Library/DaisyToolchain/0.2.0/arm/arm-none-eabi/include/c++/10.3.1/array ****      struct _Type { };
  67:/Library/DaisyToolchain/0.2.0/arm/arm-none-eabi/include/c++/10.3.1/array ****      typedef true_type _Is_swappable;
  68:/Library/DaisyToolchain/0.2.0/arm/arm-none-eabi/include/c++/10.3.1/array ****      typedef true_type _Is_nothrow_swappable;
  69:/Library/DaisyToolchain/0.2.0/arm/arm-none-eabi/include/c++/10.3.1/array **** 
  70:/Library/DaisyToolchain/0.2.0/arm/arm-none-eabi/include/c++/10.3.1/array ****      static constexpr _Tp&
  71:/Library/DaisyToolchain/0.2.0/arm/arm-none-eabi/include/c++/10.3.1/array ****      _S_ref(const _Type&, std::size_t) noexcept
  72:/Library/DaisyToolchain/0.2.0/arm/arm-none-eabi/include/c++/10.3.1/array ****      { return *static_cast<_Tp*>(nullptr); }
  73:/Library/DaisyToolchain/0.2.0/arm/arm-none-eabi/include/c++/10.3.1/array **** 
  74:/Library/DaisyToolchain/0.2.0/arm/arm-none-eabi/include/c++/10.3.1/array ****      static constexpr _Tp*
  75:/Library/DaisyToolchain/0.2.0/arm/arm-none-eabi/include/c++/10.3.1/array ****      _S_ptr(const _Type&) noexcept
  76:/Library/DaisyToolchain/0.2.0/arm/arm-none-eabi/include/c++/10.3.1/array ****      { return nullptr; }
  77:/Library/DaisyToolchain/0.2.0/arm/arm-none-eabi/include/c++/10.3.1/array ****    };
  78:/Library/DaisyToolchain/0.2.0/arm/arm-none-eabi/include/c++/10.3.1/array **** 
  79:/Library/DaisyToolchain/0.2.0/arm/arm-none-eabi/include/c++/10.3.1/array ****   /**
  80:/Library/DaisyToolchain/0.2.0/arm/arm-none-eabi/include/c++/10.3.1/array ****    *  @brief A standard container for storing a fixed size sequence of elements.
  81:/Library/DaisyToolchain/0.2.0/arm/arm-none-eabi/include/c++/10.3.1/array ****    *
  82:/Library/DaisyToolchain/0.2.0/arm/arm-none-eabi/include/c++/10.3.1/array ****    *  @ingroup sequences
  83:/Library/DaisyToolchain/0.2.0/arm/arm-none-eabi/include/c++/10.3.1/array ****    *
  84:/Library/DaisyToolchain/0.2.0/arm/arm-none-eabi/include/c++/10.3.1/array ****    *  Meets the requirements of a <a href="tables.html#65">container</a>, a
  85:/Library/DaisyToolchain/0.2.0/arm/arm-none-eabi/include/c++/10.3.1/array ****    *  <a href="tables.html#66">reversible container</a>, and a
  86:/Library/DaisyToolchain/0.2.0/arm/arm-none-eabi/include/c++/10.3.1/array ****    *  <a href="tables.html#67">sequence</a>.
  87:/Library/DaisyToolchain/0.2.0/arm/arm-none-eabi/include/c++/10.3.1/array ****    *
  88:/Library/DaisyToolchain/0.2.0/arm/arm-none-eabi/include/c++/10.3.1/array ****    *  Sets support random access iterators.
  89:/Library/DaisyToolchain/0.2.0/arm/arm-none-eabi/include/c++/10.3.1/array ****    *
  90:/Library/DaisyToolchain/0.2.0/arm/arm-none-eabi/include/c++/10.3.1/array ****    *  @tparam  Tp  Type of element. Required to be a complete type.
  91:/Library/DaisyToolchain/0.2.0/arm/arm-none-eabi/include/c++/10.3.1/array ****    *  @tparam  Nm  Number of elements.
  92:/Library/DaisyToolchain/0.2.0/arm/arm-none-eabi/include/c++/10.3.1/array ****   */
  93:/Library/DaisyToolchain/0.2.0/arm/arm-none-eabi/include/c++/10.3.1/array ****   template<typename _Tp, std::size_t _Nm>
  94:/Library/DaisyToolchain/0.2.0/arm/arm-none-eabi/include/c++/10.3.1/array ****     struct array
 259              		.loc 11 94 12 is_stmt 1 view .LVU51
 260              		.loc 11 94 12 is_stmt 0 view .LVU52
 261              	.LBE468:
 262              		.loc 9 5 7 view .LVU53
 263 0008 FFF7FEFF 		bl	_ZN5SoundD2Ev
 264              	.LVL16:
 265              		.loc 9 5 7 view .LVU54
 266              	.LBE469:
 267 000c 2046     		mov	r0, r4
 268 000e 10BD     		pop	{r4, pc}
 269              	.LVL17:
 270              	.L20:
 271              		.loc 9 5 7 view .LVU55
 272              		.align	2
 273              	.L19:
 274 0010 08000000 		.word	_ZTV7Spirits+8
 275              		.cfi_endproc
 276              	.LFE5665:
 278              		.weak	_ZN7SpiritsD1Ev
 279              		.thumb_set _ZN7SpiritsD1Ev,_ZN7SpiritsD2Ev
 280              		.section	.text._Z11InitEncoderv,"ax",%progbits
ARM GAS  /var/folders/s6/2bsynnl15rj0bwtb9pgx4dc00000gn/T//cc76hY55.s 			page 17


 281              		.align	1
 282              		.p2align 2,,3
 283              		.global	_Z11InitEncoderv
 284              		.syntax unified
 285              		.thumb
 286              		.thumb_func
 288              	_Z11InitEncoderv:
 289              	.LFB5019:
  57:TestTFT.cpp   **** 
  58:TestTFT.cpp   **** 
  59:TestTFT.cpp   **** 
  60:TestTFT.cpp   **** void InitEncoder()
  61:TestTFT.cpp   **** {
 290              		.loc 8 61 1 is_stmt 1 view -0
 291              		.cfi_startproc
 292              		@ args = 0, pretend = 0, frame = 16
 293              		@ frame_needed = 0, uses_anonymous_args = 0
 294              		@ link register save eliminated.
  62:TestTFT.cpp   ****     encoder.Init(seed::D15, seed::D16, seed::D17);
 295              		.loc 8 62 5 view .LVU57
  61:TestTFT.cpp   ****     encoder.Init(seed::D15, seed::D16, seed::D17);
 296              		.loc 8 61 1 is_stmt 0 view .LVU58
 297 0000 84B0     		sub	sp, sp, #16
 298              		.cfi_def_cfa_offset 16
 299              		.loc 8 62 17 view .LVU59
 300 0002 0022     		movs	r2, #0
 301 0004 0220     		movs	r0, #2
 302 0006 0123     		movs	r3, #1
 303 0008 0321     		movs	r1, #3
 304 000a 8DF80520 		strb	r2, [sp, #5]
 305 000e 8DF80400 		strb	r0, [sp, #4]
 306 0012 8DF80910 		strb	r1, [sp, #9]
 307 0016 8DF80820 		strb	r2, [sp, #8]
 308 001a 8DF80C30 		strb	r3, [sp, #12]
 309 001e 8DF80D30 		strb	r3, [sp, #13]
 310 0022 9FED040A 		vldr.32	s0, .L23
 311 0026 0199     		ldr	r1, [sp, #4]
 312 0028 0348     		ldr	r0, .L23+4
 313 002a DDE90223 		ldrd	r2, r3, [sp, #8]
  63:TestTFT.cpp   **** }
 314              		.loc 8 63 1 view .LVU60
 315 002e 04B0     		add	sp, sp, #16
 316              		.cfi_def_cfa_offset 0
 317              		@ sp needed
  62:TestTFT.cpp   ****     encoder.Init(seed::D15, seed::D16, seed::D17);
 318              		.loc 8 62 17 view .LVU61
 319 0030 FFF7FEBF 		b	_ZN5daisy7Encoder4InitE12dsy_gpio_pinS1_S1_f
 320              	.LVL18:
 321              	.L24:
 322              		.align	2
 323              	.L23:
 324 0034 00000000 		.word	0
 325 0038 00000000 		.word	.LANCHOR3
 326              		.cfi_endproc
 327              	.LFE5019:
 329              		.section	.rodata._Z12InitHardwarev.str1.4,"aMS",%progbits,1
 330              		.align	2
ARM GAS  /var/folders/s6/2bsynnl15rj0bwtb9pgx4dc00000gn/T//cc76hY55.s 			page 18


 331              	.LC1:
 332 0000 48617264 		.ascii	"Hardware initialized\000"
 332      77617265 
 332      20696E69 
 332      7469616C 
 332      697A6564 
 333              		.section	.text._Z12InitHardwarev,"ax",%progbits
 334              		.align	1
 335              		.p2align 2,,3
 336              		.global	_Z12InitHardwarev
 337              		.syntax unified
 338              		.thumb
 339              		.thumb_func
 341              	_Z12InitHardwarev:
 342              	.LFB5020:
  64:TestTFT.cpp   **** 
  65:TestTFT.cpp   **** void InitHardware()
  66:TestTFT.cpp   **** {
 343              		.loc 8 66 1 is_stmt 1 view -0
 344              		.cfi_startproc
 345              		@ args = 0, pretend = 0, frame = 16
 346              		@ frame_needed = 0, uses_anonymous_args = 0
  67:TestTFT.cpp   ****     hw.Configure();
 347              		.loc 8 67 5 view .LVU63
  66:TestTFT.cpp   ****     hw.Configure();
 348              		.loc 8 66 1 is_stmt 0 view .LVU64
 349 0000 30B5     		push	{r4, r5, lr}
 350              		.cfi_def_cfa_offset 12
 351              		.cfi_offset 4, -12
 352              		.cfi_offset 5, -8
 353              		.cfi_offset 14, -4
 354              		.loc 8 67 17 view .LVU65
 355 0002 314C     		ldr	r4, .L27
 356              	.LBB478:
 357              	.LBB479:
 358              		.file 12 "GFX.h"
   1:GFX.h         **** //------------------------------------------------------------------------
   2:GFX.h         **** // Copyright(c) 2024 Dad Design.
   3:GFX.h         **** //      Bibliothque graphique
   4:GFX.h         **** //
   5:GFX.h         **** // Inspir largement de :
   6:GFX.h         **** //    Adafruit-GFX-Library : https://github.com/adafruit/Adafruit-GFX-Library
   7:GFX.h         **** //    eSPI : https://github.com/Bodmer/TFT_eSPI
   8:GFX.h         **** //------------------------------------------------------------------------
   9:GFX.h         **** #pragma once
  10:GFX.h         **** #include "Frame.h"
  11:GFX.h         **** #define PROGMEM
  12:GFX.h         **** 
  13:GFX.h         **** constexpr float __PI = 3.14159265358979;
  14:GFX.h         **** 
  15:GFX.h         **** //***********************************************************************************
  16:GFX.h         **** // CFont
  17:GFX.h         **** // Gestion des polices de caratres
  18:GFX.h         **** // Utilisation de la structuration des fonts de Adafruit-GFX-Library
  19:GFX.h         **** // Ce qui permet de profiter des outils de conversion (ex: https://rop.nl/truetype2gfx/)
  20:GFX.h         **** 
  21:GFX.h         **** // Table ds descripteurs de caratres
ARM GAS  /var/folders/s6/2bsynnl15rj0bwtb9pgx4dc00000gn/T//cc76hY55.s 			page 19


  22:GFX.h         **** typedef struct
  23:GFX.h         **** {
  24:GFX.h         ****     uint16_t bitmapOffset; ///< Pointer into GFXfont->bitmap
  25:GFX.h         ****     uint8_t width;         ///< Bitmap dimensions in pixels
  26:GFX.h         ****     uint8_t height;        ///< Bitmap dimensions in pixels
  27:GFX.h         ****     uint8_t xAdvance;      ///< Distance to advance cursor (x axis)
  28:GFX.h         ****     int8_t xOffset;        ///< X dist from cursor pos to UL corner
  29:GFX.h         ****     int8_t yOffset;         ///< Y dist from cursor pos to UL corner
  30:GFX.h         **** } GFXglyph;
  31:GFX.h         **** 
  32:GFX.h         **** // Descripteur de la Font
  33:GFX.h         **** typedef struct
  34:GFX.h         **** {
  35:GFX.h         ****     uint8_t *bitmap;  ///< Glyph bitmaps, concatenated
  36:GFX.h         ****     GFXglyph *glyph;  ///< Glyph array
  37:GFX.h         ****     uint16_t first;   ///< ASCII extents (first char)
  38:GFX.h         ****     uint16_t last;    ///< ASCII extents (last char)
  39:GFX.h         ****     uint8_t yAdvance; ///< Newline distance (y axis)
  40:GFX.h         **** } GFXfont;
  41:GFX.h         **** 
  42:GFX.h         **** // cFont
  43:GFX.h         **** class cFont
  44:GFX.h         **** {
  45:GFX.h         **** public:
  46:GFX.h         ****     // --------------------------------------------------------------------------
  47:GFX.h         ****     // Constructeur
  48:GFX.h         ****     cFont(const GFXfont *pFont);
  49:GFX.h         **** 
  50:GFX.h         ****     // --------------------------------------------------------------------------
  51:GFX.h         ****     // Lecture le la largueur du caratre c
  52:GFX.h         ****     uint8_t getCharWidth(char c)
  53:GFX.h         ****     {
  54:GFX.h         ****         return ((m_pFont->glyph) + (c - m_pFont->first))->xAdvance;
  55:GFX.h         ****     }
  56:GFX.h         **** 
  57:GFX.h         ****     // --------------------------------------------------------------------------
  58:GFX.h         ****     // Lecture le la largueur de la chaine de caratre.
  59:GFX.h         ****     uint16_t getTextWidth(const char *Text)
  60:GFX.h         ****     {
  61:GFX.h         ****         const char *pText = Text;
  62:GFX.h         ****         uint16_t result = 0;
  63:GFX.h         ****         while (*pText != '\0')
  64:GFX.h         ****         {
  65:GFX.h         ****             result += getCharWidth(*pText++);
  66:GFX.h         ****         }
  67:GFX.h         ****         return result;
  68:GFX.h         ****     }
  69:GFX.h         **** 
  70:GFX.h         ****     // --------------------------------------------------------------------------
  71:GFX.h         ****     // Lecture de la hauteur max de la font
  72:GFX.h         ****     inline uint8_t getHeight()
  73:GFX.h         ****     {
  74:GFX.h         ****         return m_NegHeight - m_PosHeight;
  75:GFX.h         ****     }
  76:GFX.h         **** 
  77:GFX.h         ****     // --------------------------------------------------------------------------
  78:GFX.h         ****     // Lecture de la hauteur max de la font au dessus la ligne du curseur
ARM GAS  /var/folders/s6/2bsynnl15rj0bwtb9pgx4dc00000gn/T//cc76hY55.s 			page 20


  79:GFX.h         ****     inline uint8_t getPosHeight()
  80:GFX.h         ****     {
  81:GFX.h         ****         return -m_PosHeight;
  82:GFX.h         ****     }
  83:GFX.h         **** 
  84:GFX.h         ****     // --------------------------------------------------------------------------
  85:GFX.h         ****     // Lecture de la hauteur max de la font sous la ligne du curseur
  86:GFX.h         ****     inline uint8_t getNegHeight()
  87:GFX.h         ****     {
  88:GFX.h         ****         return m_NegHeight;
  89:GFX.h         ****     }
  90:GFX.h         **** 
  91:GFX.h         ****     // --------------------------------------------------------------------------
  92:GFX.h         ****     // Lecture de l'adresse du descripteur de font
  93:GFX.h         ****     inline const GFXfont *getGFXfont() { return m_pFont; }
  94:GFX.h         **** 
  95:GFX.h         ****     // --------------------------------------------------------------------------
  96:GFX.h         ****     // Lecture de l'adresse de la table des decripteurs de caratres
  97:GFX.h         ****     inline const GFXglyph *getGFXglyph() { return m_pTable; }
  98:GFX.h         **** 
  99:GFX.h         ****     // --------------------------------------------------------------------------
 100:GFX.h         ****     // Lecture de l'adresse du descripteur du caratre c
 101:GFX.h         ****     inline const GFXglyph *getGFXglyph(char c)
 102:GFX.h         ****     {
 103:GFX.h         ****         return m_pTable + (c - m_pFont->first);
 104:GFX.h         ****     }
 105:GFX.h         **** 
 106:GFX.h         ****     // --------------------------------------------------------------------------
 107:GFX.h         ****     // Lecteur de l'adresse du bitmap reprsentant c
 108:GFX.h         ****     inline const uint8_t *getBitmap(char c)
 109:GFX.h         ****     {
 110:GFX.h         ****         return &m_pFont->bitmap[m_pTable[c - m_pFont->first].bitmapOffset];
 111:GFX.h         ****     }
 112:GFX.h         **** 
 113:GFX.h         ****     // --------------------------------------------------------------------------
 114:GFX.h         ****     // Donnes de la classe
 115:GFX.h         **** protected:
 116:GFX.h         ****     const GFXfont *m_pFont; // Descripteur de la font
 117:GFX.h         ****     GFXglyph *m_pTable;     // Table des descripteurs de caratres
 118:GFX.h         **** 
 119:GFX.h         ****     int8_t m_PosHeight; // Hauteur au dessus de la ligne du curseur
 120:GFX.h         ****     int8_t m_NegHeight; // Hauteur sous la ligne du curseur
 121:GFX.h         **** };
 122:GFX.h         **** 
 123:GFX.h         **** //***********************************************************************************
 124:GFX.h         **** // cGFX
 125:GFX.h         **** //   Bibliothque Graphique
 126:GFX.h         **** class cGFX : protected cRBG_Frame
 127:GFX.h         **** {
 128:GFX.h         **** public:
 129:GFX.h         ****     // --------------------------------------------------------------------------
 130:GFX.h         ****     // Constructeur
 131:GFX.h         ****     cGFX() {}
 132:GFX.h         **** 
 133:GFX.h         ****     // --------------------------------------------------------------------------
 134:GFX.h         ****     // Initialisation de la classe
 135:GFX.h         ****     // Doit tre appele avant toute utilisation (aucune vrification ralise) 
ARM GAS  /var/folders/s6/2bsynnl15rj0bwtb9pgx4dc00000gn/T//cc76hY55.s 			page 21


 136:GFX.h         ****     //   pFrameBuff pointe sur la mmoire de frame  instancier de prfrence dans la SDRAM  
 137:GFX.h         ****     //   pFIFO_Data pointe sur la mmoire du FIFO DMA utilis pour les transfers SPI 
 138:GFX.h         ****     //              doit etre obligatoirement instanci dans la SDRAM D1 (DMA_BUFFER_MEM_SECTION)
 139:GFX.h         ****     //   Width, Height taille de l'cran
 140:GFX.h         ****     //
 141:GFX.h         ****     void Init(RGB *pFrameBuff, FIFO_Data *pFIFO_Data, uint16_t Width, uint16_t Height)
 142:GFX.h         ****     {
 143:GFX.h         ****         setFrame(pFrameBuff, pFIFO_Data, Width, Height);
 359              		.loc 12 143 17 view .LVU66
 360 0004 314D     		ldr	r5, .L27+4
 361              	.LBE479:
 362              	.LBE478:
 363              		.loc 8 67 17 view .LVU67
 364 0006 2046     		mov	r0, r4
  66:TestTFT.cpp   ****     hw.Configure();
 365              		.loc 8 66 1 view .LVU68
 366 0008 2DED028B 		vpush.64	{d8}
 367              		.cfi_def_cfa_offset 20
 368              		.cfi_offset 80, -20
 369              		.cfi_offset 81, -16
 370 000c 87B0     		sub	sp, sp, #28
 371              		.cfi_def_cfa_offset 48
 372              		.loc 8 67 17 view .LVU69
 373 000e FFF7FEFF 		bl	_ZN5daisy9DaisySeed9ConfigureEv
 374              	.LVL19:
  68:TestTFT.cpp   ****     hw.Init();
 375              		.loc 8 68 5 is_stmt 1 view .LVU70
 376              		.loc 8 68 12 is_stmt 0 view .LVU71
 377 0012 2046     		mov	r0, r4
 378 0014 0021     		movs	r1, #0
 379 0016 FFF7FEFF 		bl	_ZN5daisy9DaisySeed4InitEb
 380              	.LVL20:
  69:TestTFT.cpp   ****     hw.SetAudioBlockSize(32);
 381              		.loc 8 69 5 is_stmt 1 view .LVU72
 382              		.loc 8 69 25 is_stmt 0 view .LVU73
 383 001a 2046     		mov	r0, r4
 384 001c 2021     		movs	r1, #32
 385 001e FFF7FEFF 		bl	_ZN5daisy9DaisySeed17SetAudioBlockSizeEj
 386              	.LVL21:
  70:TestTFT.cpp   ****     hw.SetAudioSampleRate(SaiHandle::Config::SampleRate::SAI_48KHZ);
 387              		.loc 8 70 5 is_stmt 1 view .LVU74
 388              		.loc 8 70 26 is_stmt 0 view .LVU75
 389 0022 2046     		mov	r0, r4
 390 0024 0321     		movs	r1, #3
 391 0026 FFF7FEFF 		bl	_ZN5daisy9DaisySeed18SetAudioSampleRateENS_9SaiHandle6Config10SampleRateE
 392              	.LVL22:
  71:TestTFT.cpp   ****     hw.StartAudio(AudioCallback);
 393              		.loc 8 71 5 is_stmt 1 view .LVU76
 394              		.loc 8 71 18 is_stmt 0 view .LVU77
 395 002a 2046     		mov	r0, r4
 396 002c 2849     		ldr	r1, .L27+8
 397 002e FFF7FEFF 		bl	_ZN5daisy9DaisySeed10StartAudioEPFvPKPKfPPfjE
 398              	.LVL23:
  72:TestTFT.cpp   ****     hw.usb_handle.Init(UsbHandle::FS_INTERNAL);
 399              		.loc 8 72 5 is_stmt 1 view .LVU78
 400              		.loc 8 72 23 is_stmt 0 view .LVU79
 401 0032 0021     		movs	r1, #0
ARM GAS  /var/folders/s6/2bsynnl15rj0bwtb9pgx4dc00000gn/T//cc76hY55.s 			page 22


 402 0034 04F12400 		add	r0, r4, #36
 403 0038 FFF7FEFF 		bl	_ZN5daisy9UsbHandle4InitENS0_9UsbPeriphE
 404              	.LVL24:
  73:TestTFT.cpp   ****     float sample_rate = hw.AudioSampleRate();
 405              		.loc 8 73 5 is_stmt 1 view .LVU80
 406              		.loc 8 73 43 is_stmt 0 view .LVU81
 407 003c 2046     		mov	r0, r4
 408 003e FFF7FEFF 		bl	_ZN5daisy9DaisySeed15AudioSampleRateEv
 409              	.LVL25:
 410 0042 B0EE408A 		vmov.f32	s16, s0
 411              	.LVL26:
  74:TestTFT.cpp   ****     spirits.Init(sample_rate);
 412              		.loc 8 74 5 is_stmt 1 view .LVU82
 413              		.loc 8 74 17 is_stmt 0 view .LVU83
 414 0046 2348     		ldr	r0, .L27+12
 415 0048 FFF7FEFF 		bl	_ZN7Spirits4InitEf
 416              	.LVL27:
  75:TestTFT.cpp   ****     sound2.Init(sample_rate);
 417              		.loc 8 75 5 is_stmt 1 view .LVU84
 418              		.loc 8 75 16 is_stmt 0 view .LVU85
 419 004c 2248     		ldr	r0, .L27+16
 420 004e B0EE480A 		vmov.f32	s0, s16
 421 0052 FFF7FEFF 		bl	_ZN7Spirits4InitEf
 422              	.LVL28:
  76:TestTFT.cpp   ****     option3Sound.Init(sample_rate);    
 423              		.loc 8 76 5 is_stmt 1 view .LVU86
 424              		.loc 8 76 22 is_stmt 0 view .LVU87
 425 0056 B0EE480A 		vmov.f32	s0, s16
 426 005a 2048     		ldr	r0, .L27+20
 427 005c FFF7FEFF 		bl	_ZN7Spirits4InitEf
 428              	.LVL29:
  77:TestTFT.cpp   ****     __Display.Init(__FrameBuff, &__Fifo, TFT_WIDTH, TFT_HEIGHT);
 429              		.loc 8 77 5 is_stmt 1 view .LVU88
 430              	.LBB481:
 431              	.LBI478:
 141:GFX.h         ****     {
 432              		.loc 12 141 10 view .LVU89
 433              	.LBB480:
 434              		.loc 12 143 9 view .LVU90
 435              		.loc 12 143 17 is_stmt 0 view .LVU91
 436 0060 4FF4A070 		mov	r0, #320
 437 0064 F023     		movs	r3, #240
 438 0066 1E4A     		ldr	r2, .L27+24
 439 0068 0090     		str	r0, [sp]
 440 006a 2846     		mov	r0, r5
 441 006c 1D49     		ldr	r1, .L27+28
 442 006e FFF7FEFF 		bl	_ZN10cRBG_Frame8setFrameEP3RGBP9FIFO_Datatt
 443              	.LVL30:
 444              		.loc 12 143 17 view .LVU92
 445              	.LBE480:
 446              	.LBE481:
  78:TestTFT.cpp   ****     __Display.setRotation(Rotation::Degre_270);
 447              		.loc 8 78 5 is_stmt 1 view .LVU93
 448              	.LBB482:
 449              	.LBI482:
 144:GFX.h         ****     }
 145:GFX.h         ****     
ARM GAS  /var/folders/s6/2bsynnl15rj0bwtb9pgx4dc00000gn/T//cc76hY55.s 			page 23


 146:GFX.h         ****     // --------------------------------------------------------------------------
 147:GFX.h         ****     // Changer l'orientation de l'cran
 148:GFX.h         ****     void setRotation(Rotation r)
 450              		.loc 12 148 10 view .LVU94
 451              	.LBB483:
 149:GFX.h         ****     {
 150:GFX.h         ****         setFrameRotation(r);
 452              		.loc 12 150 9 view .LVU95
 453              		.loc 12 150 25 is_stmt 0 view .LVU96
 454 0072 2846     		mov	r0, r5
 455 0074 0321     		movs	r1, #3
 456 0076 FFF7FEFF 		bl	_ZN10cRBG_Frame16setFrameRotationE8Rotation
 457              	.LVL31:
 458              		.loc 12 150 25 view .LVU97
 459              	.LBE483:
 460              	.LBE482:
  79:TestTFT.cpp   ****     
  80:TestTFT.cpp   **** 
  81:TestTFT.cpp   ****     InitButtons();
 461              		.loc 8 81 5 is_stmt 1 view .LVU98
 462              		.loc 8 81 16 is_stmt 0 view .LVU99
 463 007a FFF7FEFF 		bl	_Z11InitButtonsv
 464              	.LVL32:
  82:TestTFT.cpp   ****     InitEncoder();
 465              		.loc 8 82 5 is_stmt 1 view .LVU100
 466              	.LBB484:
 467              	.LBI484:
  60:TestTFT.cpp   **** {
 468              		.loc 8 60 6 view .LVU101
 469              	.LBB485:
  62:TestTFT.cpp   **** }
 470              		.loc 8 62 5 view .LVU102
  62:TestTFT.cpp   **** }
 471              		.loc 8 62 17 is_stmt 0 view .LVU103
 472 007e 0022     		movs	r2, #0
 473 0080 0220     		movs	r0, #2
 474 0082 0123     		movs	r3, #1
 475 0084 0321     		movs	r1, #3
 476 0086 8DF80D20 		strb	r2, [sp, #13]
 477 008a 8DF80C00 		strb	r0, [sp, #12]
 478 008e 8DF81110 		strb	r1, [sp, #17]
 479 0092 9FED150A 		vldr.32	s0, .L27+32
 480 0096 0399     		ldr	r1, [sp, #12]
 481 0098 8DF81020 		strb	r2, [sp, #16]
 482 009c 8DF81430 		strb	r3, [sp, #20]
 483 00a0 8DF81530 		strb	r3, [sp, #21]
 484 00a4 1148     		ldr	r0, .L27+36
 485 00a6 DDE90423 		ldrd	r2, r3, [sp, #16]
 486 00aa FFF7FEFF 		bl	_ZN5daisy7Encoder4InitE12dsy_gpio_pinS1_S1_f
 487              	.LVL33:
 488              	.LBE485:
 489              	.LBE484:
  83:TestTFT.cpp   **** 
  84:TestTFT.cpp   ****     System::Delay(500);
 490              		.loc 8 84 5 is_stmt 1 view .LVU104
 491              		.loc 8 84 18 is_stmt 0 view .LVU105
 492 00ae 4FF4FA70 		mov	r0, #500
ARM GAS  /var/folders/s6/2bsynnl15rj0bwtb9pgx4dc00000gn/T//cc76hY55.s 			page 24


 493 00b2 FFF7FEFF 		bl	_ZN5daisy6System5DelayEm
 494              	.LVL34:
  85:TestTFT.cpp   ****     hw.PrintLine("Hardware initialized");
 495              		.loc 8 85 5 is_stmt 1 view .LVU106
 496              	.LBB486:
 497              	.LBI486:
  23:./libDaisy/src/daisy_seed.h **** 
  24:./libDaisy/src/daisy_seed.h ****     /** This function used to provide a pre-initialization configuraiton 
  25:./libDaisy/src/daisy_seed.h ****      *  it has since been deprecated, and does nothing.
  26:./libDaisy/src/daisy_seed.h ****      */
  27:./libDaisy/src/daisy_seed.h ****     void Configure();
  28:./libDaisy/src/daisy_seed.h **** 
  29:./libDaisy/src/daisy_seed.h ****     /** 
  30:./libDaisy/src/daisy_seed.h ****     Initializes the Daisy Seed and the following peripherals:
  31:./libDaisy/src/daisy_seed.h ****     SDRAM, QSPI, 24-bit 48kHz Audio via AK4556, Internal USB,
  32:./libDaisy/src/daisy_seed.h ****     as well as the built-in LED and Testpoint.
  33:./libDaisy/src/daisy_seed.h **** 
  34:./libDaisy/src/daisy_seed.h ****     ADCs, DACs, and other special peripherals (such as I2C, SPI, etc.)
  35:./libDaisy/src/daisy_seed.h ****     can be initialized using their specific initializers within libdaisy
  36:./libDaisy/src/daisy_seed.h ****     for a specific application.
  37:./libDaisy/src/daisy_seed.h ****     */
  38:./libDaisy/src/daisy_seed.h ****     void Init(bool boost = false);
  39:./libDaisy/src/daisy_seed.h **** 
  40:./libDaisy/src/daisy_seed.h ****     /** 
  41:./libDaisy/src/daisy_seed.h ****     Deinitializes all peripherals automatically handled by `Init`.
  42:./libDaisy/src/daisy_seed.h ****     */
  43:./libDaisy/src/daisy_seed.h ****     void DeInit();
  44:./libDaisy/src/daisy_seed.h **** 
  45:./libDaisy/src/daisy_seed.h ****     /** 
  46:./libDaisy/src/daisy_seed.h ****     Wait some ms before going on.
  47:./libDaisy/src/daisy_seed.h ****     \param del Delay time in ms.
  48:./libDaisy/src/daisy_seed.h ****     */
  49:./libDaisy/src/daisy_seed.h ****     void DelayMs(size_t del);
  50:./libDaisy/src/daisy_seed.h **** 
  51:./libDaisy/src/daisy_seed.h ****     /** 
  52:./libDaisy/src/daisy_seed.h ****     Returns the gpio_pin corresponding to the index 0-31.
  53:./libDaisy/src/daisy_seed.h ****     For the given GPIO on the Daisy Seed (labeled 1-32 in docs).
  54:./libDaisy/src/daisy_seed.h ****     */
  55:./libDaisy/src/daisy_seed.h ****     static dsy_gpio_pin GetPin(uint8_t pin_idx);
  56:./libDaisy/src/daisy_seed.h **** 
  57:./libDaisy/src/daisy_seed.h ****     /** Begins the audio for the seeds builtin audio.
  58:./libDaisy/src/daisy_seed.h ****     the specified callback will get called whenever
  59:./libDaisy/src/daisy_seed.h ****     new data is ready to be prepared.
  60:./libDaisy/src/daisy_seed.h ****     */
  61:./libDaisy/src/daisy_seed.h ****     void StartAudio(AudioHandle::InterleavingAudioCallback cb);
  62:./libDaisy/src/daisy_seed.h **** 
  63:./libDaisy/src/daisy_seed.h ****     /** Begins the audio for the seeds builtin audio.
  64:./libDaisy/src/daisy_seed.h ****     the specified callback will get called whenever
  65:./libDaisy/src/daisy_seed.h ****     new data is ready to be prepared.
  66:./libDaisy/src/daisy_seed.h ****     This will use the newer non-interleaved callback.
  67:./libDaisy/src/daisy_seed.h ****     */
  68:./libDaisy/src/daisy_seed.h ****     void StartAudio(AudioHandle::AudioCallback cb);
  69:./libDaisy/src/daisy_seed.h **** 
  70:./libDaisy/src/daisy_seed.h ****     /** Changes to a new interleaved callback
  71:./libDaisy/src/daisy_seed.h ****      */
  72:./libDaisy/src/daisy_seed.h ****     void ChangeAudioCallback(AudioHandle::InterleavingAudioCallback cb);
  73:./libDaisy/src/daisy_seed.h **** 
ARM GAS  /var/folders/s6/2bsynnl15rj0bwtb9pgx4dc00000gn/T//cc76hY55.s 			page 25


  74:./libDaisy/src/daisy_seed.h ****     /** Changes to a new multichannel callback
  75:./libDaisy/src/daisy_seed.h ****      */
  76:./libDaisy/src/daisy_seed.h ****     void ChangeAudioCallback(AudioHandle::AudioCallback cb);
  77:./libDaisy/src/daisy_seed.h **** 
  78:./libDaisy/src/daisy_seed.h ****     /** Stops the audio if it is running. */
  79:./libDaisy/src/daisy_seed.h ****     void StopAudio();
  80:./libDaisy/src/daisy_seed.h **** 
  81:./libDaisy/src/daisy_seed.h ****     /** Updates the Audio Sample Rate, and reinitializes.
  82:./libDaisy/src/daisy_seed.h ****      ** Audio must be stopped for this to work.
  83:./libDaisy/src/daisy_seed.h ****      */
  84:./libDaisy/src/daisy_seed.h ****     void SetAudioSampleRate(SaiHandle::Config::SampleRate samplerate);
  85:./libDaisy/src/daisy_seed.h **** 
  86:./libDaisy/src/daisy_seed.h ****     /** Returns the audio sample rate in Hz as a floating point number.
  87:./libDaisy/src/daisy_seed.h ****      */
  88:./libDaisy/src/daisy_seed.h ****     float AudioSampleRate();
  89:./libDaisy/src/daisy_seed.h **** 
  90:./libDaisy/src/daisy_seed.h ****     /** Sets the number of samples processed per channel by the audio callback.
  91:./libDaisy/src/daisy_seed.h ****      */
  92:./libDaisy/src/daisy_seed.h ****     void SetAudioBlockSize(size_t blocksize);
  93:./libDaisy/src/daisy_seed.h **** 
  94:./libDaisy/src/daisy_seed.h ****     /** Returns the number of samples per channel in a block of audio. */
  95:./libDaisy/src/daisy_seed.h ****     size_t AudioBlockSize();
  96:./libDaisy/src/daisy_seed.h **** 
  97:./libDaisy/src/daisy_seed.h ****     /** Returns the rate in Hz that the Audio callback is called */
  98:./libDaisy/src/daisy_seed.h ****     float AudioCallbackRate() const;
  99:./libDaisy/src/daisy_seed.h **** 
 100:./libDaisy/src/daisy_seed.h ****     /** Returns the SAI Handle for the Daisy Seed 
 101:./libDaisy/src/daisy_seed.h ****      *  This can be useful when adding a secondary codec,
 102:./libDaisy/src/daisy_seed.h ****      *  the result of this function can be passed to the audio reinit 
 103:./libDaisy/src/daisy_seed.h ****      *  with an SAI2 configuration
 104:./libDaisy/src/daisy_seed.h ****      */
 105:./libDaisy/src/daisy_seed.h ****     const SaiHandle& AudioSaiHandle() const;
 106:./libDaisy/src/daisy_seed.h **** 
 107:./libDaisy/src/daisy_seed.h ****     /** Sets the state of the built in LED
 108:./libDaisy/src/daisy_seed.h ****      */
 109:./libDaisy/src/daisy_seed.h ****     void SetLed(bool state);
 110:./libDaisy/src/daisy_seed.h **** 
 111:./libDaisy/src/daisy_seed.h ****     /** Sets the state of the test point near pin 10
 112:./libDaisy/src/daisy_seed.h ****      */
 113:./libDaisy/src/daisy_seed.h ****     void SetTestPoint(bool state);
 114:./libDaisy/src/daisy_seed.h **** 
 115:./libDaisy/src/daisy_seed.h ****     /** Print formatted debug log message
 116:./libDaisy/src/daisy_seed.h ****      */
 117:./libDaisy/src/daisy_seed.h ****     template <typename... VA>
 118:./libDaisy/src/daisy_seed.h ****     static void Print(const char* format, VA... va)
 119:./libDaisy/src/daisy_seed.h ****     {
 120:./libDaisy/src/daisy_seed.h ****         Log::Print(format, va...);
 121:./libDaisy/src/daisy_seed.h ****     }
 122:./libDaisy/src/daisy_seed.h **** 
 123:./libDaisy/src/daisy_seed.h ****     /** Print formatted debug log message with automatic line termination
 124:./libDaisy/src/daisy_seed.h ****     */
 125:./libDaisy/src/daisy_seed.h ****     template <typename... VA>
 126:./libDaisy/src/daisy_seed.h ****     static void PrintLine(const char* format, VA... va)
 498              		.loc 3 126 17 view .LVU107
 499              	.LBB487:
 127:./libDaisy/src/daisy_seed.h ****     {
 128:./libDaisy/src/daisy_seed.h ****         Log::PrintLine(format, va...);
ARM GAS  /var/folders/s6/2bsynnl15rj0bwtb9pgx4dc00000gn/T//cc76hY55.s 			page 26


 500              		.loc 3 128 23 is_stmt 0 view .LVU108
 501 00b6 0E48     		ldr	r0, .L27+40
 502              	.LBE487:
 503              	.LBE486:
  86:TestTFT.cpp   **** }
 504              		.loc 8 86 1 view .LVU109
 505 00b8 07B0     		add	sp, sp, #28
 506              		.cfi_def_cfa_offset 20
 507              		@ sp needed
 508 00ba BDEC028B 		vldm	sp!, {d8}
 509              		.cfi_restore 80
 510              		.cfi_restore 81
 511              		.cfi_def_cfa_offset 12
 512              	.LVL35:
 513              		.loc 8 86 1 view .LVU110
 514 00be BDE83040 		pop	{r4, r5, lr}
 515              		.cfi_restore 14
 516              		.cfi_restore 5
 517              		.cfi_restore 4
 518              		.cfi_def_cfa_offset 0
 519              	.LBB489:
 520              	.LBB488:
 521              		.loc 3 128 23 view .LVU111
 522 00c2 FFF7FEBF 		b	_ZN5daisy6LoggerILNS_17LoggerDestinationE1EE9PrintLineEPKcz
 523              	.LVL36:
 524              	.L28:
 525 00c6 00BF     		.align	2
 526              	.L27:
 527 00c8 00000000 		.word	.LANCHOR4
 528 00cc 00000000 		.word	.LANCHOR5
 529 00d0 00000000 		.word	_Z13AudioCallbackPKPKfPPfj
 530 00d4 00000000 		.word	.LANCHOR0
 531 00d8 00000000 		.word	.LANCHOR1
 532 00dc 00000000 		.word	.LANCHOR2
 533 00e0 00000000 		.word	__Fifo
 534 00e4 00000000 		.word	__FrameBuff
 535 00e8 00000000 		.word	0
 536 00ec 00000000 		.word	.LANCHOR3
 537 00f0 00000000 		.word	.LC1
 538              	.LBE488:
 539              	.LBE489:
 540              		.cfi_endproc
 541              	.LFE5020:
 543              		.section	.rodata._Z10UpdateMenuv.str1.4,"aMS",%progbits,1
 544              		.align	2
 545              	.LC2:
 546 0000 456E636F 		.ascii	"Encoder increment: %d, Scrolling from %d to %d (opt"
 546      64657220 
 546      696E6372 
 546      656D656E 
 546      743A2025 
 547 0033 696F6E43 		.ascii	"ionCount: %d)\000"
 547      6F756E74 
 547      3A202564 
 547      2900
 548 0041 000000   		.align	2
 549              	.LC3:
ARM GAS  /var/folders/s6/2bsynnl15rj0bwtb9pgx4dc00000gn/T//cc76hY55.s 			page 27


 550 0044 43757272 		.ascii	"Current Option changed to: %d\000"
 550      656E7420 
 550      4F707469 
 550      6F6E2063 
 550      68616E67 
 551              		.section	.text._Z10UpdateMenuv,"ax",%progbits
 552              		.align	1
 553              		.p2align 2,,3
 554              		.global	_Z10UpdateMenuv
 555              		.syntax unified
 556              		.thumb
 557              		.thumb_func
 559              	_Z10UpdateMenuv:
 560              	.LFB5021:
  87:TestTFT.cpp   **** 
  88:TestTFT.cpp   **** 
  89:TestTFT.cpp   **** 
  90:TestTFT.cpp   **** void UpdateMenu()
  91:TestTFT.cpp   **** {
 561              		.loc 8 91 1 is_stmt 1 view -0
 562              		.cfi_startproc
 563              		@ args = 0, pretend = 0, frame = 0
 564              		@ frame_needed = 0, uses_anonymous_args = 0
  92:TestTFT.cpp   ****     int optionCount;
 565              		.loc 8 92 5 view .LVU113
  93:TestTFT.cpp   ****     switch (currentState)
 566              		.loc 8 93 5 view .LVU114
  91:TestTFT.cpp   ****     int optionCount;
 567              		.loc 8 91 1 is_stmt 0 view .LVU115
 568 0000 F0B5     		push	{r4, r5, r6, r7, lr}
 569              		.cfi_def_cfa_offset 20
 570              		.cfi_offset 4, -20
 571              		.cfi_offset 5, -16
 572              		.cfi_offset 6, -12
 573              		.cfi_offset 7, -8
 574              		.cfi_offset 14, -4
 575              		.loc 8 93 13 view .LVU116
 576 0002 414D     		ldr	r5, .L80
  91:TestTFT.cpp   ****     int optionCount;
 577              		.loc 8 91 1 view .LVU117
 578 0004 83B0     		sub	sp, sp, #12
 579              		.cfi_def_cfa_offset 32
 580              		.loc 8 93 13 view .LVU118
 581 0006 2A78     		ldrb	r2, [r5]	@ zero_extendqisi2
 582 0008 531E     		subs	r3, r2, #1
 583 000a DBB2     		uxtb	r3, r3
 584 000c 042B     		cmp	r3, #4
 585 000e 1CD8     		bhi	.L44
 586 0010 3E49     		ldr	r1, .L80+4
 587 0012 51F82360 		ldr	r6, [r1, r3, lsl #2]
 588              	.L30:
 589              	.LVL37:
  94:TestTFT.cpp   ****     {
  95:TestTFT.cpp   ****         case MAIN_MENU:
  96:TestTFT.cpp   ****             optionCount = MAIN_MENU_OPTIONS;
  97:TestTFT.cpp   ****             break;
  98:TestTFT.cpp   ****         case CHORD_SELECTION:
ARM GAS  /var/folders/s6/2bsynnl15rj0bwtb9pgx4dc00000gn/T//cc76hY55.s 			page 28


  99:TestTFT.cpp   ****             optionCount = CHORD_SELECTION_OPTIONS;
 100:TestTFT.cpp   ****             break;
 101:TestTFT.cpp   ****         case SOUND_DESIGN:
 102:TestTFT.cpp   ****             optionCount = SOUND_DESIGN_OPTIONS;
 103:TestTFT.cpp   ****             break;
 104:TestTFT.cpp   ****         case PERFORMANCE_SETTINGS:
 105:TestTFT.cpp   ****             optionCount = PERFORMANCE_SETTINGS_OPTIONS;
 106:TestTFT.cpp   ****             break;
 107:TestTFT.cpp   ****         case GLOBAL_SETTINGS:
 108:TestTFT.cpp   ****             optionCount = GLOBAL_SETTINGS_OPTIONS;
 109:TestTFT.cpp   ****             break;
 110:TestTFT.cpp   ****         case VISUALS:
 111:TestTFT.cpp   ****             optionCount = 1; // Visuals doesn't have selectable options
 112:TestTFT.cpp   ****             break;
 113:TestTFT.cpp   ****         default:
 114:TestTFT.cpp   ****             optionCount = MAIN_MENU_OPTIONS;
 115:TestTFT.cpp   ****             break;
 116:TestTFT.cpp   ****     }
 117:TestTFT.cpp   **** 
 118:TestTFT.cpp   ****     bool menuChanged = false;
 590              		.loc 8 118 5 is_stmt 1 view .LVU119
 119:TestTFT.cpp   ****     int increment = -encoder.Increment();
 591              		.loc 8 119 5 view .LVU120
 592              	.LBB490:
 593              	.LBI490:
  22:./libDaisy/src/hid/encoder.h **** 
  23:./libDaisy/src/hid/encoder.h ****     /** Initializes the encoder with the specified hardware pins.
  24:./libDaisy/src/hid/encoder.h ****      * Update rate is to be deprecated in a future release
  25:./libDaisy/src/hid/encoder.h ****      */
  26:./libDaisy/src/hid/encoder.h ****     void Init(dsy_gpio_pin a,
  27:./libDaisy/src/hid/encoder.h ****               dsy_gpio_pin b,
  28:./libDaisy/src/hid/encoder.h ****               dsy_gpio_pin click,
  29:./libDaisy/src/hid/encoder.h ****               float        update_rate = 0.f);
  30:./libDaisy/src/hid/encoder.h ****     /** Called at update_rate to debounce and handle timing for the switch.
  31:./libDaisy/src/hid/encoder.h ****      * In order for events not to be missed, its important that the Edge/Pressed checks be made at 
  32:./libDaisy/src/hid/encoder.h ****      */
  33:./libDaisy/src/hid/encoder.h ****     void Debounce();
  34:./libDaisy/src/hid/encoder.h **** 
  35:./libDaisy/src/hid/encoder.h ****     /** Returns +1 if the encoder was turned clockwise, -1 if it was turned counter-clockwise, or 0
  36:./libDaisy/src/hid/encoder.h ****     inline int32_t Increment() const { return updated_ ? inc_ : 0; }
 594              		.loc 1 36 20 view .LVU121
 595              	.LBB491:
 596              		.loc 1 36 40 view .LVU122
 597              		.loc 1 36 47 is_stmt 0 view .LVU123
 598 0016 3E49     		ldr	r1, .L80+8
 599 0018 0C79     		ldrb	r4, [r1, #4]	@ zero_extendqisi2
 600              		.loc 1 36 56 view .LVU124
 601 001a 0CB1     		cbz	r4, .L31
 602 001c 4B6A     		ldr	r3, [r1, #36]
 603              	.LVL38:
 604              		.loc 1 36 56 view .LVU125
 605              	.LBE491:
 606              	.LBE490:
 120:TestTFT.cpp   **** 
 121:TestTFT.cpp   ****     if (increment != 0)
 607              		.loc 8 121 5 is_stmt 1 view .LVU126
 608              	.LBB492:
ARM GAS  /var/folders/s6/2bsynnl15rj0bwtb9pgx4dc00000gn/T//cc76hY55.s 			page 29


 609 001e 1BBB     		cbnz	r3, .L77
 610              	.LVL39:
 611              	.L31:
 612              		.loc 8 121 5 is_stmt 0 view .LVU127
 613              	.LBE492:
 122:TestTFT.cpp   ****     {
 123:TestTFT.cpp   ****         int oldOption = currentOption;
 124:TestTFT.cpp   ****         currentOption = (currentOption + increment + optionCount) % optionCount;
 125:TestTFT.cpp   ****         menuChanged = true;
 126:TestTFT.cpp   ****         hw.PrintLine("Encoder increment: %d, Scrolling from %d to %d (optionCount: %d)", 
 127:TestTFT.cpp   ****                      increment, oldOption, currentOption, optionCount);
 128:TestTFT.cpp   ****     }
 129:TestTFT.cpp   **** 
 130:TestTFT.cpp   ****     // Handle chord button presses for navigation only
 131:TestTFT.cpp   ****     if (currentState == CHORD_SELECTION)
 614              		.loc 8 131 5 is_stmt 1 view .LVU128
 615 0020 012A     		cmp	r2, #1
 616 0022 14D1     		bne	.L29
 617 0024 0024     		movs	r4, #0
 618              	.LVL40:
 619              	.L32:
 132:TestTFT.cpp   ****     {
 133:TestTFT.cpp   ****         if (buttonC.RisingEdge()) { currentOption = 0; menuChanged = true; }
 620              		.loc 8 133 9 view .LVU129
 621              	.LBB500:
 622              	.LBI500:
  43:./libDaisy/src/hid/switch.h **** 
  44:./libDaisy/src/hid/switch.h ****     /** 
  45:./libDaisy/src/hid/switch.h ****     Initializes the switch object with a given port/pin combo.
  46:./libDaisy/src/hid/switch.h ****     \param pin port/pin object to tell the switch which hardware pin to use.
  47:./libDaisy/src/hid/switch.h ****     \param update_rate Does nothing. Backwards compatibility until next breaking update.
  48:./libDaisy/src/hid/switch.h ****     \param t switch type -- Default: TYPE_MOMENTARY
  49:./libDaisy/src/hid/switch.h ****     \param pol switch polarity -- Default: POLARITY_INVERTED
  50:./libDaisy/src/hid/switch.h ****     \param pu switch pull up/down -- Default: PULL_UP
  51:./libDaisy/src/hid/switch.h ****     */
  52:./libDaisy/src/hid/switch.h ****     void
  53:./libDaisy/src/hid/switch.h ****     Init(dsy_gpio_pin pin, float update_rate, Type t, Polarity pol, Pull pu);
  54:./libDaisy/src/hid/switch.h **** 
  55:./libDaisy/src/hid/switch.h ****     /**
  56:./libDaisy/src/hid/switch.h ****        Simplified Init.
  57:./libDaisy/src/hid/switch.h ****        \param pin port/pin object to tell the switch which hardware pin to use.
  58:./libDaisy/src/hid/switch.h ****        \param update_rate Left for backwards compatibility until next breaking change.
  59:./libDaisy/src/hid/switch.h ****     */
  60:./libDaisy/src/hid/switch.h ****     void Init(dsy_gpio_pin pin, float update_rate = 0.f);
  61:./libDaisy/src/hid/switch.h **** 
  62:./libDaisy/src/hid/switch.h ****     /** 
  63:./libDaisy/src/hid/switch.h ****     Called at update_rate to debounce and handle timing for the switch.
  64:./libDaisy/src/hid/switch.h ****     In order for events not to be missed, its important that the Edge/Pressed checks
  65:./libDaisy/src/hid/switch.h ****     be made at the same rate as the debounce function is being called.
  66:./libDaisy/src/hid/switch.h ****     */
  67:./libDaisy/src/hid/switch.h ****     void Debounce();
  68:./libDaisy/src/hid/switch.h **** 
  69:./libDaisy/src/hid/switch.h ****     /** \return true if a button was just pressed. */
  70:./libDaisy/src/hid/switch.h ****     inline bool RisingEdge() const { return updated_ ? state_ == 0x7f : false; }
 623              		.loc 2 70 17 view .LVU130
 624              	.LBB501:
 625              		.loc 2 70 38 view .LVU131
ARM GAS  /var/folders/s6/2bsynnl15rj0bwtb9pgx4dc00000gn/T//cc76hY55.s 			page 30


 626              		.loc 2 70 45 is_stmt 0 view .LVU132
 627 0026 3B4B     		ldr	r3, .L80+12
 628              		.loc 2 70 54 view .LVU133
 629 0028 1A79     		ldrb	r2, [r3, #4]	@ zero_extendqisi2
 630 002a 92B1     		cbz	r2, .L34
 631              	.LVL41:
 632              		.loc 2 70 54 view .LVU134
 633              	.LBE501:
 634              	.LBE500:
 635              		.loc 8 133 9 view .LVU135
 636 002c 9B7A     		ldrb	r3, [r3, #10]	@ zero_extendqisi2
 637 002e 7F2B     		cmp	r3, #127
 638 0030 0FD1     		bne	.L34
 639              		.loc 8 133 37 is_stmt 1 discriminator 1 view .LVU136
 640              		.loc 8 133 51 is_stmt 0 discriminator 1 view .LVU137
 641 0032 0023     		movs	r3, #0
 642 0034 384A     		ldr	r2, .L80+16
 643 0036 1946     		mov	r1, r3
 644 0038 1360     		str	r3, [r2]
 645              		.loc 8 133 56 is_stmt 1 discriminator 1 view .LVU138
 646              	.LVL42:
 134:TestTFT.cpp   ****         else if (buttonDm.RisingEdge()) { currentOption = 1; menuChanged = true; }
 135:TestTFT.cpp   ****         else if (buttonEm.RisingEdge()) { currentOption = 2; menuChanged = true; }
 136:TestTFT.cpp   ****         else if (buttonF.RisingEdge()) { currentOption = 3; menuChanged = true; }
 137:TestTFT.cpp   ****         else if (buttonG.RisingEdge()) { currentOption = 4; menuChanged = true; }
 138:TestTFT.cpp   ****         else if (buttonAm.RisingEdge()) { currentOption = 5; menuChanged = true; }
 139:TestTFT.cpp   ****         else if (buttonBdim.RisingEdge()) { currentOption = 6; menuChanged = true; }
 140:TestTFT.cpp   ****     }
 141:TestTFT.cpp   **** 
 142:TestTFT.cpp   ****     if (menuChanged) {
 647              		.loc 8 142 5 discriminator 1 view .LVU139
 648              	.L33:
 143:TestTFT.cpp   ****         hw.PrintLine("Current Option changed to: %d", currentOption);
 649              		.loc 8 143 9 view .LVU140
 650              	.LBB502:
 651              	.LBI502:
 126:./libDaisy/src/daisy_seed.h ****     {
 652              		.loc 3 126 17 view .LVU141
 653              	.LBB503:
 654              		.loc 3 128 23 is_stmt 0 view .LVU142
 655 003a 3848     		ldr	r0, .L80+20
 656 003c FFF7FEFF 		bl	_ZN5daisy6LoggerILNS_17LoggerDestinationE1EE9PrintLineEPKcz
 657              	.LVL43:
 658              		.loc 3 128 23 view .LVU143
 659              	.LBE503:
 660              	.LBE502:
 144:TestTFT.cpp   ****         DisplayMenu();
 661              		.loc 8 144 9 is_stmt 1 view .LVU144
 145:TestTFT.cpp   ****     }
 146:TestTFT.cpp   **** }
 662              		.loc 8 146 1 is_stmt 0 view .LVU145
 663 0040 03B0     		add	sp, sp, #12
 664              		.cfi_remember_state
 665              		.cfi_def_cfa_offset 20
 666              		@ sp needed
 667 0042 BDE8F040 		pop	{r4, r5, r6, r7, lr}
 668              		.cfi_restore 14
ARM GAS  /var/folders/s6/2bsynnl15rj0bwtb9pgx4dc00000gn/T//cc76hY55.s 			page 31


 669              		.cfi_restore 7
 670              		.cfi_restore 6
 671              		.cfi_restore 5
 672              		.cfi_restore 4
 673              		.cfi_def_cfa_offset 0
 674              	.LVL44:
 144:TestTFT.cpp   ****         DisplayMenu();
 675              		.loc 8 144 20 view .LVU146
 676 0046 FFF7FEBF 		b	_Z11DisplayMenuv
 677              	.LVL45:
 678              	.L44:
 679              		.cfi_restore_state
  93:TestTFT.cpp   ****     {
 680              		.loc 8 93 13 view .LVU147
 681 004a 0426     		movs	r6, #4
 682 004c E3E7     		b	.L30
 683              	.LVL46:
 684              	.L29:
 685              		.loc 8 146 1 view .LVU148
 686 004e 03B0     		add	sp, sp, #12
 687              		.cfi_remember_state
 688              		.cfi_def_cfa_offset 20
 689              		@ sp needed
 690 0050 F0BD     		pop	{r4, r5, r6, r7, pc}
 691              	.LVL47:
 692              	.L34:
 693              		.cfi_restore_state
 134:TestTFT.cpp   ****         else if (buttonEm.RisingEdge()) { currentOption = 2; menuChanged = true; }
 694              		.loc 8 134 14 is_stmt 1 view .LVU149
 695              	.LBB504:
 696              	.LBI504:
 697              		.loc 2 70 17 view .LVU150
 698              	.LBB505:
 699              		.loc 2 70 38 view .LVU151
 700              		.loc 2 70 45 is_stmt 0 view .LVU152
 701 0052 334B     		ldr	r3, .L80+24
 702              		.loc 2 70 54 view .LVU153
 703 0054 1A79     		ldrb	r2, [r3, #4]	@ zero_extendqisi2
 704 0056 D2B1     		cbz	r2, .L35
 705              	.LVL48:
 706              		.loc 2 70 54 view .LVU154
 707              	.LBE505:
 708              	.LBE504:
 134:TestTFT.cpp   ****         else if (buttonEm.RisingEdge()) { currentOption = 2; menuChanged = true; }
 709              		.loc 8 134 14 view .LVU155
 710 0058 9B7A     		ldrb	r3, [r3, #10]	@ zero_extendqisi2
 711 005a 7F2B     		cmp	r3, #127
 712 005c 17D1     		bne	.L35
 134:TestTFT.cpp   ****         else if (buttonEm.RisingEdge()) { currentOption = 2; menuChanged = true; }
 713              		.loc 8 134 43 is_stmt 1 discriminator 1 view .LVU156
 134:TestTFT.cpp   ****         else if (buttonEm.RisingEdge()) { currentOption = 2; menuChanged = true; }
 714              		.loc 8 134 57 is_stmt 0 discriminator 1 view .LVU157
 715 005e 0123     		movs	r3, #1
 716 0060 2D4A     		ldr	r2, .L80+16
 717 0062 1946     		mov	r1, r3
 718 0064 1360     		str	r3, [r2]
 134:TestTFT.cpp   ****         else if (buttonEm.RisingEdge()) { currentOption = 2; menuChanged = true; }
ARM GAS  /var/folders/s6/2bsynnl15rj0bwtb9pgx4dc00000gn/T//cc76hY55.s 			page 32


 719              		.loc 8 134 62 is_stmt 1 discriminator 1 view .LVU158
 720              	.LVL49:
 142:TestTFT.cpp   ****         hw.PrintLine("Current Option changed to: %d", currentOption);
 721              		.loc 8 142 5 discriminator 1 view .LVU159
 722 0066 E8E7     		b	.L33
 723              	.LVL50:
 724              	.L77:
 725              	.LBB506:
 726              	.LBB493:
 123:TestTFT.cpp   ****         currentOption = (currentOption + increment + optionCount) % optionCount;
 727              		.loc 8 123 9 view .LVU160
 123:TestTFT.cpp   ****         currentOption = (currentOption + increment + optionCount) % optionCount;
 728              		.loc 8 123 13 is_stmt 0 view .LVU161
 729 0068 2B4F     		ldr	r7, .L80+16
 730              	.LBB494:
 731              	.LBB495:
 732              		.loc 3 128 23 view .LVU162
 733 006a 5942     		rsbs	r1, r3, #0
 734 006c 2D48     		ldr	r0, .L80+28
 735              	.LBE495:
 736              	.LBE494:
 123:TestTFT.cpp   ****         currentOption = (currentOption + increment + optionCount) % optionCount;
 737              		.loc 8 123 13 view .LVU163
 738 006e 3A68     		ldr	r2, [r7]
 739              	.LVL51:
 124:TestTFT.cpp   ****         menuChanged = true;
 740              		.loc 8 124 9 is_stmt 1 view .LVU164
 741              	.LBB498:
 742              	.LBB496:
 743              		.loc 3 128 23 is_stmt 0 view .LVU165
 744 0070 0096     		str	r6, [sp]
 745              	.LBE496:
 746              	.LBE498:
 124:TestTFT.cpp   ****         menuChanged = true;
 747              		.loc 8 124 52 view .LVU166
 748 0072 D31A     		subs	r3, r2, r3
 749              	.LVL52:
 124:TestTFT.cpp   ****         menuChanged = true;
 750              		.loc 8 124 52 view .LVU167
 751 0074 3344     		add	r3, r3, r6
 124:TestTFT.cpp   ****         menuChanged = true;
 752              		.loc 8 124 67 view .LVU168
 753 0076 93FBF6FC 		sdiv	ip, r3, r6
 754 007a 06FB1C33 		mls	r3, r6, ip, r3
 124:TestTFT.cpp   ****         menuChanged = true;
 755              		.loc 8 124 23 view .LVU169
 756 007e 3B60     		str	r3, [r7]
 125:TestTFT.cpp   ****         hw.PrintLine("Encoder increment: %d, Scrolling from %d to %d (optionCount: %d)", 
 757              		.loc 8 125 9 is_stmt 1 view .LVU170
 758              	.LVL53:
 126:TestTFT.cpp   ****                      increment, oldOption, currentOption, optionCount);
 759              		.loc 8 126 9 view .LVU171
 760              	.LBB499:
 761              	.LBI494:
 126:./libDaisy/src/daisy_seed.h ****     {
 762              		.loc 3 126 17 view .LVU172
 763              	.LBB497:
ARM GAS  /var/folders/s6/2bsynnl15rj0bwtb9pgx4dc00000gn/T//cc76hY55.s 			page 33


 764              		.loc 3 128 23 is_stmt 0 view .LVU173
 765 0080 FFF7FEFF 		bl	_ZN5daisy6LoggerILNS_17LoggerDestinationE1EE9PrintLineEPKcz
 766              	.LVL54:
 767              		.loc 3 128 23 view .LVU174
 768              	.LBE497:
 769              	.LBE499:
 770              	.LBE493:
 771              	.LBE506:
 131:TestTFT.cpp   ****     {
 772              		.loc 8 131 5 is_stmt 1 view .LVU175
 773 0084 2B78     		ldrb	r3, [r5]	@ zero_extendqisi2
 774 0086 012B     		cmp	r3, #1
 775 0088 CDD0     		beq	.L32
 143:TestTFT.cpp   ****         DisplayMenu();
 776              		.loc 8 143 21 is_stmt 0 view .LVU176
 777 008a 3968     		ldr	r1, [r7]
 778 008c D5E7     		b	.L33
 779              	.LVL55:
 780              	.L35:
 135:TestTFT.cpp   ****         else if (buttonF.RisingEdge()) { currentOption = 3; menuChanged = true; }
 781              		.loc 8 135 14 is_stmt 1 view .LVU177
 782              	.LBB507:
 783              	.LBI507:
 784              		.loc 2 70 17 view .LVU178
 785              	.LBB508:
 786              		.loc 2 70 38 view .LVU179
 787              		.loc 2 70 45 is_stmt 0 view .LVU180
 788 008e 264B     		ldr	r3, .L80+32
 789              		.loc 2 70 54 view .LVU181
 790 0090 1A79     		ldrb	r2, [r3, #4]	@ zero_extendqisi2
 791 0092 12B1     		cbz	r2, .L36
 792              	.LVL56:
 793              		.loc 2 70 54 view .LVU182
 794              	.LBE508:
 795              	.LBE507:
 135:TestTFT.cpp   ****         else if (buttonF.RisingEdge()) { currentOption = 3; menuChanged = true; }
 796              		.loc 8 135 14 view .LVU183
 797 0094 9B7A     		ldrb	r3, [r3, #10]	@ zero_extendqisi2
 798 0096 7F2B     		cmp	r3, #127
 799 0098 2BD0     		beq	.L78
 800              	.L36:
 136:TestTFT.cpp   ****         else if (buttonG.RisingEdge()) { currentOption = 4; menuChanged = true; }
 801              		.loc 8 136 14 is_stmt 1 view .LVU184
 802              	.LVL57:
 803              	.LBB509:
 804              	.LBI509:
 805              		.loc 2 70 17 view .LVU185
 806              	.LBB510:
 807              		.loc 2 70 38 view .LVU186
 808              		.loc 2 70 45 is_stmt 0 view .LVU187
 809 009a 244B     		ldr	r3, .L80+36
 810              		.loc 2 70 54 view .LVU188
 811 009c 1A79     		ldrb	r2, [r3, #4]	@ zero_extendqisi2
 812 009e 12B1     		cbz	r2, .L37
 813              	.LVL58:
 814              		.loc 2 70 54 view .LVU189
 815              	.LBE510:
ARM GAS  /var/folders/s6/2bsynnl15rj0bwtb9pgx4dc00000gn/T//cc76hY55.s 			page 34


 816              	.LBE509:
 136:TestTFT.cpp   ****         else if (buttonG.RisingEdge()) { currentOption = 4; menuChanged = true; }
 817              		.loc 8 136 14 view .LVU190
 818 00a0 9B7A     		ldrb	r3, [r3, #10]	@ zero_extendqisi2
 819 00a2 7F2B     		cmp	r3, #127
 820 00a4 2AD0     		beq	.L79
 821              	.L37:
 137:TestTFT.cpp   ****         else if (buttonAm.RisingEdge()) { currentOption = 5; menuChanged = true; }
 822              		.loc 8 137 14 is_stmt 1 view .LVU191
 823              	.LVL59:
 824              	.LBB511:
 825              	.LBI511:
 826              		.loc 2 70 17 view .LVU192
 827              	.LBB512:
 828              		.loc 2 70 38 view .LVU193
 829              		.loc 2 70 45 is_stmt 0 view .LVU194
 830 00a6 224B     		ldr	r3, .L80+40
 831              		.loc 2 70 54 view .LVU195
 832 00a8 1A79     		ldrb	r2, [r3, #4]	@ zero_extendqisi2
 833 00aa 3AB1     		cbz	r2, .L38
 834              	.LVL60:
 835              		.loc 2 70 54 view .LVU196
 836              	.LBE512:
 837              	.LBE511:
 137:TestTFT.cpp   ****         else if (buttonAm.RisingEdge()) { currentOption = 5; menuChanged = true; }
 838              		.loc 8 137 14 view .LVU197
 839 00ac 9B7A     		ldrb	r3, [r3, #10]	@ zero_extendqisi2
 840 00ae 7F2B     		cmp	r3, #127
 841 00b0 04D1     		bne	.L38
 137:TestTFT.cpp   ****         else if (buttonAm.RisingEdge()) { currentOption = 5; menuChanged = true; }
 842              		.loc 8 137 42 is_stmt 1 discriminator 1 view .LVU198
 137:TestTFT.cpp   ****         else if (buttonAm.RisingEdge()) { currentOption = 5; menuChanged = true; }
 843              		.loc 8 137 56 is_stmt 0 discriminator 1 view .LVU199
 844 00b2 0423     		movs	r3, #4
 845 00b4 184A     		ldr	r2, .L80+16
 846 00b6 1946     		mov	r1, r3
 847 00b8 1360     		str	r3, [r2]
 137:TestTFT.cpp   ****         else if (buttonAm.RisingEdge()) { currentOption = 5; menuChanged = true; }
 848              		.loc 8 137 61 is_stmt 1 discriminator 1 view .LVU200
 849              	.LVL61:
 142:TestTFT.cpp   ****         hw.PrintLine("Current Option changed to: %d", currentOption);
 850              		.loc 8 142 5 discriminator 1 view .LVU201
 851 00ba BEE7     		b	.L33
 852              	.LVL62:
 853              	.L38:
 138:TestTFT.cpp   ****         else if (buttonBdim.RisingEdge()) { currentOption = 6; menuChanged = true; }
 854              		.loc 8 138 14 view .LVU202
 855              	.LBB513:
 856              	.LBI513:
 857              		.loc 2 70 17 view .LVU203
 858              	.LBB514:
 859              		.loc 2 70 38 view .LVU204
 860              		.loc 2 70 45 is_stmt 0 view .LVU205
 861 00bc 1D4B     		ldr	r3, .L80+44
 862              		.loc 2 70 54 view .LVU206
 863 00be 1A79     		ldrb	r2, [r3, #4]	@ zero_extendqisi2
 864 00c0 3AB1     		cbz	r2, .L39
ARM GAS  /var/folders/s6/2bsynnl15rj0bwtb9pgx4dc00000gn/T//cc76hY55.s 			page 35


 865              	.LVL63:
 866              		.loc 2 70 54 view .LVU207
 867              	.LBE514:
 868              	.LBE513:
 138:TestTFT.cpp   ****         else if (buttonBdim.RisingEdge()) { currentOption = 6; menuChanged = true; }
 869              		.loc 8 138 14 view .LVU208
 870 00c2 9B7A     		ldrb	r3, [r3, #10]	@ zero_extendqisi2
 871 00c4 7F2B     		cmp	r3, #127
 872 00c6 04D1     		bne	.L39
 138:TestTFT.cpp   ****         else if (buttonBdim.RisingEdge()) { currentOption = 6; menuChanged = true; }
 873              		.loc 8 138 43 is_stmt 1 discriminator 1 view .LVU209
 138:TestTFT.cpp   ****         else if (buttonBdim.RisingEdge()) { currentOption = 6; menuChanged = true; }
 874              		.loc 8 138 57 is_stmt 0 discriminator 1 view .LVU210
 875 00c8 0523     		movs	r3, #5
 876 00ca 134A     		ldr	r2, .L80+16
 877 00cc 1946     		mov	r1, r3
 878 00ce 1360     		str	r3, [r2]
 138:TestTFT.cpp   ****         else if (buttonBdim.RisingEdge()) { currentOption = 6; menuChanged = true; }
 879              		.loc 8 138 62 is_stmt 1 discriminator 1 view .LVU211
 880              	.LVL64:
 142:TestTFT.cpp   ****         hw.PrintLine("Current Option changed to: %d", currentOption);
 881              		.loc 8 142 5 discriminator 1 view .LVU212
 882 00d0 B3E7     		b	.L33
 883              	.LVL65:
 884              	.L39:
 139:TestTFT.cpp   ****     }
 885              		.loc 8 139 14 view .LVU213
 886              	.LBB515:
 887              	.LBI515:
 888              		.loc 2 70 17 view .LVU214
 889              	.LBB516:
 890              		.loc 2 70 38 view .LVU215
 891              		.loc 2 70 45 is_stmt 0 view .LVU216
 892 00d2 194B     		ldr	r3, .L80+48
 893              		.loc 2 70 54 view .LVU217
 894 00d4 1A79     		ldrb	r2, [r3, #4]	@ zero_extendqisi2
 895 00d6 3AB1     		cbz	r2, .L40
 896              	.LVL66:
 897              		.loc 2 70 54 view .LVU218
 898              	.LBE516:
 899              	.LBE515:
 139:TestTFT.cpp   ****     }
 900              		.loc 8 139 14 view .LVU219
 901 00d8 9B7A     		ldrb	r3, [r3, #10]	@ zero_extendqisi2
 902 00da 7F2B     		cmp	r3, #127
 903 00dc 04D1     		bne	.L40
 139:TestTFT.cpp   ****     }
 904              		.loc 8 139 45 is_stmt 1 discriminator 1 view .LVU220
 139:TestTFT.cpp   ****     }
 905              		.loc 8 139 59 is_stmt 0 discriminator 1 view .LVU221
 906 00de 0623     		movs	r3, #6
 907 00e0 0D4A     		ldr	r2, .L80+16
 908 00e2 1946     		mov	r1, r3
 909 00e4 1360     		str	r3, [r2]
 139:TestTFT.cpp   ****     }
 910              		.loc 8 139 64 is_stmt 1 discriminator 1 view .LVU222
 911              	.LVL67:
ARM GAS  /var/folders/s6/2bsynnl15rj0bwtb9pgx4dc00000gn/T//cc76hY55.s 			page 36


 142:TestTFT.cpp   ****         hw.PrintLine("Current Option changed to: %d", currentOption);
 912              		.loc 8 142 5 discriminator 1 view .LVU223
 913 00e6 A8E7     		b	.L33
 914              	.LVL68:
 915              	.L40:
 142:TestTFT.cpp   ****         hw.PrintLine("Current Option changed to: %d", currentOption);
 916              		.loc 8 142 5 view .LVU224
 917 00e8 002C     		cmp	r4, #0
 918 00ea B0D0     		beq	.L29
 143:TestTFT.cpp   ****         DisplayMenu();
 919              		.loc 8 143 21 is_stmt 0 view .LVU225
 920 00ec 0A4B     		ldr	r3, .L80+16
 921 00ee 1968     		ldr	r1, [r3]
 922 00f0 A3E7     		b	.L33
 923              	.LVL69:
 924              	.L78:
 135:TestTFT.cpp   ****         else if (buttonF.RisingEdge()) { currentOption = 3; menuChanged = true; }
 925              		.loc 8 135 43 is_stmt 1 discriminator 1 view .LVU226
 135:TestTFT.cpp   ****         else if (buttonF.RisingEdge()) { currentOption = 3; menuChanged = true; }
 926              		.loc 8 135 57 is_stmt 0 discriminator 1 view .LVU227
 927 00f2 0223     		movs	r3, #2
 928 00f4 084A     		ldr	r2, .L80+16
 929 00f6 1946     		mov	r1, r3
 930 00f8 1360     		str	r3, [r2]
 135:TestTFT.cpp   ****         else if (buttonF.RisingEdge()) { currentOption = 3; menuChanged = true; }
 931              		.loc 8 135 62 is_stmt 1 discriminator 1 view .LVU228
 932              	.LVL70:
 142:TestTFT.cpp   ****         hw.PrintLine("Current Option changed to: %d", currentOption);
 933              		.loc 8 142 5 discriminator 1 view .LVU229
 934 00fa 9EE7     		b	.L33
 935              	.LVL71:
 936              	.L79:
 136:TestTFT.cpp   ****         else if (buttonG.RisingEdge()) { currentOption = 4; menuChanged = true; }
 937              		.loc 8 136 42 discriminator 1 view .LVU230
 136:TestTFT.cpp   ****         else if (buttonG.RisingEdge()) { currentOption = 4; menuChanged = true; }
 938              		.loc 8 136 56 is_stmt 0 discriminator 1 view .LVU231
 939 00fc 0323     		movs	r3, #3
 940 00fe 064A     		ldr	r2, .L80+16
 941 0100 1946     		mov	r1, r3
 942 0102 1360     		str	r3, [r2]
 136:TestTFT.cpp   ****         else if (buttonG.RisingEdge()) { currentOption = 4; menuChanged = true; }
 943              		.loc 8 136 61 is_stmt 1 discriminator 1 view .LVU232
 944              	.LVL72:
 142:TestTFT.cpp   ****         hw.PrintLine("Current Option changed to: %d", currentOption);
 945              		.loc 8 142 5 discriminator 1 view .LVU233
 946 0104 99E7     		b	.L33
 947              	.L81:
 948 0106 00BF     		.align	2
 949              	.L80:
 950 0108 00000000 		.word	currentState
 951 010c 00000000 		.word	.LANCHOR6
 952 0110 00000000 		.word	.LANCHOR3
 953 0114 00000000 		.word	buttonC
 954 0118 00000000 		.word	currentOption
 955 011c 44000000 		.word	.LC3
 956 0120 00000000 		.word	buttonDm
 957 0124 00000000 		.word	.LC2
ARM GAS  /var/folders/s6/2bsynnl15rj0bwtb9pgx4dc00000gn/T//cc76hY55.s 			page 37


 958 0128 00000000 		.word	buttonEm
 959 012c 00000000 		.word	buttonF
 960 0130 00000000 		.word	buttonG
 961 0134 00000000 		.word	buttonAm
 962 0138 00000000 		.word	buttonBdim
 963              		.cfi_endproc
 964              	.LFE5021:
 966              		.section	.rodata.main.str1.4,"aMS",%progbits,1
 967              		.align	2
 968              	.LC4:
 969 0000 4D61696E 		.ascii	"Main loop starting...\000"
 969      206C6F6F 
 969      70207374 
 969      61727469 
 969      6E672E2E 
 970 0016 0000     		.align	2
 971              	.LC5:
 972 0018 43204D61 		.ascii	"C Major triggered\000"
 972      6A6F7220 
 972      74726967 
 972      67657265 
 972      6400
 973 002a 0000     		.align	2
 974              	.LC6:
 975 002c 44204D69 		.ascii	"D Minor triggered\000"
 975      6E6F7220 
 975      74726967 
 975      67657265 
 975      6400
 976 003e 0000     		.align	2
 977              	.LC7:
 978 0040 45204D69 		.ascii	"E Minor triggered\000"
 978      6E6F7220 
 978      74726967 
 978      67657265 
 978      6400
 979 0052 0000     		.align	2
 980              	.LC8:
 981 0054 46204D61 		.ascii	"F Major triggered\000"
 981      6A6F7220 
 981      74726967 
 981      67657265 
 981      6400
 982 0066 0000     		.align	2
 983              	.LC9:
 984 0068 47204D61 		.ascii	"G Major triggered\000"
 984      6A6F7220 
 984      74726967 
 984      67657265 
 984      6400
 985 007a 0000     		.align	2
 986              	.LC10:
 987 007c 41204D69 		.ascii	"A Minor triggered\000"
 987      6E6F7220 
 987      74726967 
 987      67657265 
 987      6400
ARM GAS  /var/folders/s6/2bsynnl15rj0bwtb9pgx4dc00000gn/T//cc76hY55.s 			page 38


 988 008e 0000     		.align	2
 989              	.LC11:
 990 0090 42204469 		.ascii	"B Diminished triggered\000"
 990      6D696E69 
 990      73686564 
 990      20747269 
 990      67676572 
 991 00a7 00       		.align	2
 992              	.LC12:
 993 00a8 63616E6E 		.ascii	"cannot create std::deque larger than max_size()\000"
 993      6F742063 
 993      72656174 
 993      65207374 
 993      643A3A64 
 994              		.align	2
 995              	.LC13:
 996 00d8 42504D20 		.ascii	"BPM adjusted: %d\000"
 996      61646A75 
 996      73746564 
 996      3A202564 
 996      00
 997              		.section	.text.startup.main,"ax",%progbits
 998              		.align	1
 999              		.p2align 2,,3
 1000              		.global	main
 1001              		.syntax unified
 1002              		.thumb
 1003              		.thumb_func
 1005              	main:
 1006              	.LFB5022:
 147:TestTFT.cpp   **** 
 148:TestTFT.cpp   **** 
 149:TestTFT.cpp   **** 
 150:TestTFT.cpp   **** 
 151:TestTFT.cpp   **** int main(void)
 152:TestTFT.cpp   **** {
 1007              		.loc 8 152 1 view -0
 1008              		.cfi_startproc
 1009              		@ args = 0, pretend = 0, frame = 8
 1010              		@ frame_needed = 0, uses_anonymous_args = 0
 153:TestTFT.cpp   ****     InitHardware();
 1011              		.loc 8 153 5 view .LVU235
 152:TestTFT.cpp   ****     InitHardware();
 1012              		.loc 8 152 1 is_stmt 0 view .LVU236
 1013 0000 2DE9F04F 		push	{r4, r5, r6, r7, r8, r9, r10, fp, lr}
 1014              		.cfi_def_cfa_offset 36
 1015              		.cfi_offset 4, -36
 1016              		.cfi_offset 5, -32
 1017              		.cfi_offset 6, -28
 1018              		.cfi_offset 7, -24
 1019              		.cfi_offset 8, -20
 1020              		.cfi_offset 9, -16
 1021              		.cfi_offset 10, -12
 1022              		.cfi_offset 11, -8
 1023              		.cfi_offset 14, -4
 1024 0004 83B0     		sub	sp, sp, #12
 1025              		.cfi_def_cfa_offset 48
ARM GAS  /var/folders/s6/2bsynnl15rj0bwtb9pgx4dc00000gn/T//cc76hY55.s 			page 39


 1026 0006 B14C     		ldr	r4, .L143
 1027              		.loc 8 153 17 view .LVU237
 1028 0008 FFF7FEFF 		bl	_Z12InitHardwarev
 1029              	.LVL73:
 154:TestTFT.cpp   ****     InitMenu();
 1030              		.loc 8 154 5 is_stmt 1 view .LVU238
 1031 000c B04F     		ldr	r7, .L143+4
 1032              		.loc 8 154 13 is_stmt 0 view .LVU239
 1033 000e FFF7FEFF 		bl	_Z8InitMenuv
 1034              	.LVL74:
 155:TestTFT.cpp   ****     DisplayMenu();
 1035              		.loc 8 155 5 is_stmt 1 view .LVU240
 1036 0012 B04D     		ldr	r5, .L143+8
 1037              		.loc 8 155 16 is_stmt 0 view .LVU241
 1038 0014 FFF7FEFF 		bl	_Z11DisplayMenuv
 1039              	.LVL75:
 156:TestTFT.cpp   **** 
 157:TestTFT.cpp   ****     hw.PrintLine("Main loop starting...");
 1040              		.loc 8 157 5 is_stmt 1 view .LVU242
 1041              	.LBB648:
 1042              	.LBI648:
 126:./libDaisy/src/daisy_seed.h ****     {
 1043              		.loc 3 126 17 view .LVU243
 1044              	.LBB649:
 1045              		.loc 3 128 23 is_stmt 0 view .LVU244
 1046 0018 AF48     		ldr	r0, .L143+12
 1047 001a B04E     		ldr	r6, .L143+16
 1048 001c DFF80C83 		ldr	r8, .L143+96
 1049 0020 FFF7FEFF 		bl	_ZN5daisy6LoggerILNS_17LoggerDestinationE1EE9PrintLineEPKcz
 1050              	.LVL76:
 129:./libDaisy/src/daisy_seed.h ****     }
 1051              		.loc 3 129 5 view .LVU245
 1052 0024 2DE0     		b	.L106
 1053              	.LVL77:
 1054              	.L132:
 1055              		.loc 3 129 5 view .LVU246
 1056              	.LBE649:
 1057              	.LBE648:
 1058              	.LBB650:
 158:TestTFT.cpp   **** 
 159:TestTFT.cpp   ****    while (1)
 160:TestTFT.cpp   ****     {
 161:TestTFT.cpp   ****         UpdateButtons();
 162:TestTFT.cpp   ****         encoder.Debounce();
 163:TestTFT.cpp   **** 
 164:TestTFT.cpp   ****         UpdateMenu();
 165:TestTFT.cpp   **** 
 166:TestTFT.cpp   **** 
 167:TestTFT.cpp   ****         // Handle sound triggering for all sounds
 168:TestTFT.cpp   ****         if (currentState == CHORD_SELECTION)
 169:TestTFT.cpp   ****         {
 170:TestTFT.cpp   ****             if (buttonC.Pressed()) {
 171:TestTFT.cpp   ****                 spirits.Trigger(0);
 172:TestTFT.cpp   ****                 hw.PrintLine("C Major triggered");
 173:TestTFT.cpp   ****             } else if (buttonDm.Pressed()) {
 174:TestTFT.cpp   ****                 spirits.Trigger(1);
 175:TestTFT.cpp   ****                 hw.PrintLine("D Minor triggered");
ARM GAS  /var/folders/s6/2bsynnl15rj0bwtb9pgx4dc00000gn/T//cc76hY55.s 			page 40


 176:TestTFT.cpp   ****             } else if (buttonEm.Pressed()) {
 177:TestTFT.cpp   ****                 spirits.Trigger(2);
 178:TestTFT.cpp   ****                 hw.PrintLine("E Minor triggered");
 179:TestTFT.cpp   ****             } else if (buttonF.Pressed()) {
 180:TestTFT.cpp   ****                 spirits.Trigger(3);
 181:TestTFT.cpp   ****                 hw.PrintLine("F Major triggered");
 182:TestTFT.cpp   ****             } else if (buttonG.Pressed()) {
 183:TestTFT.cpp   ****                 spirits.Trigger(4);
 184:TestTFT.cpp   ****                 hw.PrintLine("G Major triggered");
 185:TestTFT.cpp   ****             } else if (buttonAm.Pressed()) {
 186:TestTFT.cpp   ****                 spirits.Trigger(5);
 187:TestTFT.cpp   ****                 hw.PrintLine("A Minor triggered");
 188:TestTFT.cpp   ****             } else if (buttonBdim.Pressed()) {
 189:TestTFT.cpp   ****                 spirits.Trigger(6);
 190:TestTFT.cpp   ****                 hw.PrintLine("B Diminished triggered");
 191:TestTFT.cpp   ****             }
 192:TestTFT.cpp   ****         }
 193:TestTFT.cpp   **** 
 194:TestTFT.cpp   **** 
 195:TestTFT.cpp   **** 
 196:TestTFT.cpp   **** 
 197:TestTFT.cpp   **** 
 198:TestTFT.cpp   ****         if (button2.RisingEdge() || encoder.RisingEdge())
 1059              		.loc 8 198 34 view .LVU247
 1060 0026 BB7A     		ldrb	r3, [r7, #10]	@ zero_extendqisi2
 1061 0028 7F2B     		cmp	r3, #127
 1062 002a 37D1     		bne	.L90
 199:TestTFT.cpp   ****         {
 200:TestTFT.cpp   ****             HandleMenuSelection(encoder.RisingEdge());
 1063              		.loc 8 200 13 is_stmt 1 discriminator 3 view .LVU248
 1064              	.LVL78:
 1065              	.LBB651:
 1066              	.LBI651:
  37:./libDaisy/src/hid/encoder.h **** 
  38:./libDaisy/src/hid/encoder.h ****     /** Returns true if the encoder was just pressed. */
  39:./libDaisy/src/hid/encoder.h ****     inline bool RisingEdge() const { return sw_.RisingEdge(); }
 1067              		.loc 1 39 17 discriminator 3 view .LVU249
 1068              	.LBE651:
 1069              	.LBE650:
 1070              		.loc 1 39 38 discriminator 3 view .LVU250
 1071              	.LBB828:
 1072              	.LBB656:
 1073              	.LBB652:
 1074              	.LBI652:
 1075              		.loc 2 70 17 discriminator 3 view .LVU251
 1076              	.LBB653:
 1077              		.loc 2 70 38 discriminator 3 view .LVU252
 1078              		.loc 2 70 45 is_stmt 0 discriminator 3 view .LVU253
 1079 002c 287B     		ldrb	r0, [r5, #12]	@ zero_extendqisi2
 1080              		.loc 2 70 54 discriminator 3 view .LVU254
 1081 002e 0028     		cmp	r0, #0
 1082 0030 40F09580 		bne	.L129
 1083              	.L94:
 1084              	.LVL79:
 1085              		.loc 2 70 54 discriminator 3 view .LVU255
 1086              	.LBE653:
 1087              	.LBE652:
ARM GAS  /var/folders/s6/2bsynnl15rj0bwtb9pgx4dc00000gn/T//cc76hY55.s 			page 41


 1088              	.LBE656:
 1089              		.loc 8 200 32 view .LVU256
 1090 0034 FFF7FEFF 		bl	_Z19HandleMenuSelectionb
 1091              	.LVL80:
 1092              	.L92:
 201:TestTFT.cpp   ****         }
 202:TestTFT.cpp   **** 
 203:TestTFT.cpp   ****         // Handle button1 for Visuals
 204:TestTFT.cpp   ****         if (button1.RisingEdge())
 1093              		.loc 8 204 9 is_stmt 1 view .LVU257
 1094              	.LBB657:
 1095              	.LBI657:
 1096              		.loc 2 70 17 view .LVU258
 1097              	.LBB658:
 1098              		.loc 2 70 38 view .LVU259
 1099              		.loc 2 70 54 is_stmt 0 view .LVU260
 1100 0038 3379     		ldrb	r3, [r6, #4]	@ zero_extendqisi2
 1101 003a 13B1     		cbz	r3, .L95
 1102              	.LVL81:
 1103              		.loc 2 70 54 view .LVU261
 1104              	.LBE658:
 1105              	.LBE657:
 1106              		.loc 8 204 9 view .LVU262
 1107 003c B37A     		ldrb	r3, [r6, #10]	@ zero_extendqisi2
 1108 003e 7F2B     		cmp	r3, #127
 1109 0040 5DD0     		beq	.L130
 1110              	.L95:
 205:TestTFT.cpp   ****         {
 206:TestTFT.cpp   ****             stateStack.push(currentState);
 207:TestTFT.cpp   ****             currentState = VISUALS;
 208:TestTFT.cpp   ****             DisplayMenu();
 209:TestTFT.cpp   ****         }
 210:TestTFT.cpp   **** 
 211:TestTFT.cpp   ****         HandleBackButton();
 1111              		.loc 8 211 9 is_stmt 1 view .LVU263
 1112              		.loc 8 211 25 is_stmt 0 view .LVU264
 1113 0042 FFF7FEFF 		bl	_Z16HandleBackButtonv
 1114              	.LVL82:
 212:TestTFT.cpp   ****         // Special handling for BPM adjustment (now part of Global Settings)
 213:TestTFT.cpp   ****         if (currentState == GLOBAL_SETTINGS && currentOption == 0) // Assuming BPM is the first opt
 1115              		.loc 8 213 9 is_stmt 1 view .LVU265
 1116              	.LBB659:
 1117 0046 2378     		ldrb	r3, [r4]	@ zero_extendqisi2
 1118 0048 042B     		cmp	r3, #4
 1119 004a 17D1     		bne	.L105
 1120              		.loc 8 213 62 is_stmt 0 discriminator 1 view .LVU266
 1121 004c A44B     		ldr	r3, .L143+20
 1122              		.loc 8 213 45 discriminator 1 view .LVU267
 1123 004e 1B68     		ldr	r3, [r3]
 1124 0050 A3B9     		cbnz	r3, .L105
 1125              	.LBB660:
 214:TestTFT.cpp   ****         {
 215:TestTFT.cpp   ****             int increment = -encoder.Increment();
 1126              		.loc 8 215 13 is_stmt 1 view .LVU268
 1127              	.LVL83:
 1128              	.LBB661:
 1129              	.LBI661:
ARM GAS  /var/folders/s6/2bsynnl15rj0bwtb9pgx4dc00000gn/T//cc76hY55.s 			page 42


  36:./libDaisy/src/hid/encoder.h **** 
 1130              		.loc 1 36 20 view .LVU269
 1131              	.LBB662:
  36:./libDaisy/src/hid/encoder.h **** 
 1132              		.loc 1 36 40 view .LVU270
  36:./libDaisy/src/hid/encoder.h **** 
 1133              		.loc 1 36 56 is_stmt 0 view .LVU271
 1134 0052 2B79     		ldrb	r3, [r5, #4]	@ zero_extendqisi2
 1135 0054 93B1     		cbz	r3, .L105
 1136 0056 6B6A     		ldr	r3, [r5, #36]
 1137              	.LVL84:
  36:./libDaisy/src/hid/encoder.h **** 
 1138              		.loc 1 36 56 view .LVU272
 1139              	.LBE662:
 1140              	.LBE661:
 216:TestTFT.cpp   ****             if (increment != 0)
 1141              		.loc 8 216 13 is_stmt 1 view .LVU273
 1142 0058 83B1     		cbz	r3, .L105
 217:TestTFT.cpp   ****             {
 218:TestTFT.cpp   ****                 projectBPM = std::max(20, std::min(300, projectBPM + increment));
 1143              		.loc 8 218 17 view .LVU274
 1144              	.LVL85:
 1145              		.loc 8 218 68 is_stmt 0 view .LVU275
 1146 005a A24A     		ldr	r2, .L143+24
 1147              	.LBB663:
 1148              	.LBB664:
 128:./libDaisy/src/daisy_seed.h ****     }
 1149              		.loc 3 128 23 view .LVU276
 1150 005c A248     		ldr	r0, .L143+28
 1151 005e 1168     		ldr	r1, [r2]
 1152 0060 C91A     		subs	r1, r1, r3
 1153 0062 1429     		cmp	r1, #20
 1154 0064 B8BF     		it	lt
 1155 0066 1421     		movlt	r1, #20
 1156 0068 B1F5967F 		cmp	r1, #300
 1157 006c A8BF     		it	ge
 1158 006e 4FF49671 		movge	r1, #300
 1159              	.LVL86:
 128:./libDaisy/src/daisy_seed.h ****     }
 1160              		.loc 3 128 23 view .LVU277
 1161              	.LBE664:
 1162              	.LBE663:
 1163              		.loc 8 218 28 view .LVU278
 1164 0072 1160     		str	r1, [r2]
 219:TestTFT.cpp   ****                 hw.PrintLine("BPM adjusted: %d", projectBPM); //bpm set to 120 upon initialization
 1165              		.loc 8 219 17 is_stmt 1 view .LVU279
 1166              	.LVL87:
 1167              	.LBB666:
 1168              	.LBI663:
 126:./libDaisy/src/daisy_seed.h ****     {
 1169              		.loc 3 126 17 view .LVU280
 1170              	.LBB665:
 128:./libDaisy/src/daisy_seed.h ****     }
 1171              		.loc 3 128 23 is_stmt 0 view .LVU281
 1172 0074 FFF7FEFF 		bl	_ZN5daisy6LoggerILNS_17LoggerDestinationE1EE9PrintLineEPKcz
 1173              	.LVL88:
 128:./libDaisy/src/daisy_seed.h ****     }
ARM GAS  /var/folders/s6/2bsynnl15rj0bwtb9pgx4dc00000gn/T//cc76hY55.s 			page 43


 1174              		.loc 3 128 23 view .LVU282
 1175              	.LBE665:
 1176              	.LBE666:
 220:TestTFT.cpp   ****                 DisplayMenu();
 1177              		.loc 8 220 17 is_stmt 1 view .LVU283
 1178              		.loc 8 220 28 is_stmt 0 view .LVU284
 1179 0078 FFF7FEFF 		bl	_Z11DisplayMenuv
 1180              	.LVL89:
 1181              	.L105:
 1182              		.loc 8 220 28 view .LVU285
 1183              	.LBE660:
 1184              	.LBE659:
 221:TestTFT.cpp   ****             }
 222:TestTFT.cpp   ****         }
 223:TestTFT.cpp   **** 
 224:TestTFT.cpp   **** 
 225:TestTFT.cpp   ****         System::DelayUs(50);
 1185              		.loc 8 225 9 is_stmt 1 view .LVU286
 1186              		.loc 8 225 24 is_stmt 0 view .LVU287
 1187 007c 3220     		movs	r0, #50
 1188 007e FFF7FEFF 		bl	_ZN5daisy6System7DelayUsEm
 1189              	.LVL90:
 1190              	.LBE828:
 159:TestTFT.cpp   ****     {
 1191              		.loc 8 159 4 is_stmt 1 view .LVU288
 1192              	.L106:
 159:TestTFT.cpp   ****     {
 1193              		.loc 8 159 4 view .LVU289
 1194              	.LBB829:
 161:TestTFT.cpp   ****         encoder.Debounce();
 1195              		.loc 8 161 9 view .LVU290
 161:TestTFT.cpp   ****         encoder.Debounce();
 1196              		.loc 8 161 22 is_stmt 0 view .LVU291
 1197 0082 FFF7FEFF 		bl	_Z13UpdateButtonsv
 1198              	.LVL91:
 162:TestTFT.cpp   **** 
 1199              		.loc 8 162 9 is_stmt 1 view .LVU292
 162:TestTFT.cpp   **** 
 1200              		.loc 8 162 25 is_stmt 0 view .LVU293
 1201 0086 9348     		ldr	r0, .L143+8
 1202 0088 FFF7FEFF 		bl	_ZN5daisy7Encoder8DebounceEv
 1203              	.LVL92:
 164:TestTFT.cpp   **** 
 1204              		.loc 8 164 9 is_stmt 1 view .LVU294
 164:TestTFT.cpp   **** 
 1205              		.loc 8 164 19 is_stmt 0 view .LVU295
 1206 008c FFF7FEFF 		bl	_Z10UpdateMenuv
 1207              	.LVL93:
 168:TestTFT.cpp   ****         {
 1208              		.loc 8 168 9 is_stmt 1 view .LVU296
 1209 0090 2178     		ldrb	r1, [r4]	@ zero_extendqisi2
 1210 0092 0129     		cmp	r1, #1
 1211 0094 0ED0     		beq	.L131
 1212              	.L83:
 198:TestTFT.cpp   ****         {
 1213              		.loc 8 198 9 view .LVU297
 1214              	.LVL94:
ARM GAS  /var/folders/s6/2bsynnl15rj0bwtb9pgx4dc00000gn/T//cc76hY55.s 			page 44


 1215              	.LBB667:
 1216              	.LBI667:
 1217              		.loc 2 70 17 view .LVU298
 1218              	.LBB668:
 1219              		.loc 2 70 38 view .LVU299
 1220              		.loc 2 70 54 is_stmt 0 view .LVU300
 1221 0096 3B79     		ldrb	r3, [r7, #4]	@ zero_extendqisi2
 1222 0098 002B     		cmp	r3, #0
 1223 009a C4D1     		bne	.L132
 1224              	.LVL95:
 1225              	.L90:
 1226              		.loc 2 70 54 view .LVU301
 1227              	.LBE668:
 1228              	.LBE667:
 1229              	.LBB669:
 1230              	.LBI669:
 1231              		.loc 1 39 17 is_stmt 1 view .LVU302
 1232              	.LBE669:
 1233              	.LBE829:
 1234              		.loc 1 39 38 view .LVU303
 1235              	.LBB830:
 1236              	.LBB674:
 1237              	.LBB670:
 1238              	.LBI670:
 1239              		.loc 2 70 17 view .LVU304
 1240              	.LBB671:
 1241              		.loc 2 70 38 view .LVU305
 1242              		.loc 2 70 54 is_stmt 0 view .LVU306
 1243 009c 2B7B     		ldrb	r3, [r5, #12]	@ zero_extendqisi2
 1244 009e 002B     		cmp	r3, #0
 1245 00a0 CAD0     		beq	.L92
 1246              		.loc 2 70 56 view .LVU307
 1247 00a2 A87C     		ldrb	r0, [r5, #18]	@ zero_extendqisi2
 1248              	.LVL96:
 1249              		.loc 2 70 56 view .LVU308
 1250              	.LBE671:
 1251              	.LBE670:
 1252              	.LBE674:
 198:TestTFT.cpp   ****         {
 1253              		.loc 8 198 34 view .LVU309
 1254 00a4 7F28     		cmp	r0, #127
 1255 00a6 C7D1     		bne	.L92
 1256              	.L93:
 1257              	.LVL97:
 1258              	.LBB675:
 1259              	.LBB655:
 1260              	.LBB654:
 1261              		.loc 2 70 54 view .LVU310
 1262 00a8 A0F17F00 		sub	r0, #127
 1263 00ac B0FA80F0 		clz	r0, r0
 1264 00b0 4009     		lsrs	r0, r0, #5
 1265 00b2 BFE7     		b	.L94
 1266              	.LVL98:
 1267              	.L131:
 1268              		.loc 2 70 54 view .LVU311
 1269              	.LBE654:
 1270              	.LBE655:
ARM GAS  /var/folders/s6/2bsynnl15rj0bwtb9pgx4dc00000gn/T//cc76hY55.s 			page 45


 1271              	.LBE675:
 170:TestTFT.cpp   ****                 spirits.Trigger(0);
 1272              		.loc 8 170 13 is_stmt 1 view .LVU312
 1273              	.LBB676:
 1274              	.LBI676:
  71:./libDaisy/src/hid/switch.h **** 
  72:./libDaisy/src/hid/switch.h ****     /** \return true if the button was just released */
  73:./libDaisy/src/hid/switch.h ****     inline bool FallingEdge() const
  74:./libDaisy/src/hid/switch.h ****     {
  75:./libDaisy/src/hid/switch.h ****         return updated_ ? state_ == 0x80 : false;
  76:./libDaisy/src/hid/switch.h ****     }
  77:./libDaisy/src/hid/switch.h **** 
  78:./libDaisy/src/hid/switch.h ****     /** \return true if the button is held down (or if the toggle is on) */
  79:./libDaisy/src/hid/switch.h ****     inline bool Pressed() const { return state_ == 0xff; }
 1275              		.loc 2 79 17 view .LVU313
 1276              	.LBB677:
 1277              		.loc 2 79 35 view .LVU314
 1278              		.loc 2 79 42 is_stmt 0 view .LVU315
 1279 00b4 8D4B     		ldr	r3, .L143+32
 1280              	.LBE677:
 1281              	.LBE676:
 170:TestTFT.cpp   ****                 spirits.Trigger(0);
 1282              		.loc 8 170 13 view .LVU316
 1283 00b6 9B7A     		ldrb	r3, [r3, #10]	@ zero_extendqisi2
 1284 00b8 FF2B     		cmp	r3, #255
 1285 00ba 31D0     		beq	.L133
 173:TestTFT.cpp   ****                 spirits.Trigger(1);
 1286              		.loc 8 173 20 is_stmt 1 view .LVU317
 1287              	.LVL99:
 1288              	.LBB678:
 1289              	.LBI678:
 1290              		.loc 2 79 17 view .LVU318
 1291              	.LBB679:
 1292              		.loc 2 79 35 view .LVU319
 1293              		.loc 2 79 42 is_stmt 0 view .LVU320
 1294 00bc 8C4B     		ldr	r3, .L143+36
 1295              	.LBE679:
 1296              	.LBE678:
 173:TestTFT.cpp   ****                 spirits.Trigger(1);
 1297              		.loc 8 173 20 view .LVU321
 1298 00be 9B7A     		ldrb	r3, [r3, #10]	@ zero_extendqisi2
 1299 00c0 FF2B     		cmp	r3, #255
 1300 00c2 35D0     		beq	.L134
 176:TestTFT.cpp   ****                 spirits.Trigger(2);
 1301              		.loc 8 176 20 is_stmt 1 view .LVU322
 1302              	.LVL100:
 1303              	.LBB680:
 1304              	.LBI680:
 1305              		.loc 2 79 17 view .LVU323
 1306              	.LBB681:
 1307              		.loc 2 79 35 view .LVU324
 1308              		.loc 2 79 42 is_stmt 0 view .LVU325
 1309 00c4 8B4B     		ldr	r3, .L143+40
 1310              	.LBE681:
 1311              	.LBE680:
 176:TestTFT.cpp   ****                 spirits.Trigger(2);
 1312              		.loc 8 176 20 view .LVU326
ARM GAS  /var/folders/s6/2bsynnl15rj0bwtb9pgx4dc00000gn/T//cc76hY55.s 			page 46


 1313 00c6 9B7A     		ldrb	r3, [r3, #10]	@ zero_extendqisi2
 1314 00c8 FF2B     		cmp	r3, #255
 1315 00ca 38D0     		beq	.L135
 179:TestTFT.cpp   ****                 spirits.Trigger(3);
 1316              		.loc 8 179 20 is_stmt 1 view .LVU327
 1317              	.LVL101:
 1318              	.LBB682:
 1319              	.LBI682:
 1320              		.loc 2 79 17 view .LVU328
 1321              	.LBB683:
 1322              		.loc 2 79 35 view .LVU329
 1323              		.loc 2 79 42 is_stmt 0 view .LVU330
 1324 00cc 8A4B     		ldr	r3, .L143+44
 1325              	.LBE683:
 1326              	.LBE682:
 179:TestTFT.cpp   ****                 spirits.Trigger(3);
 1327              		.loc 8 179 20 view .LVU331
 1328 00ce 9B7A     		ldrb	r3, [r3, #10]	@ zero_extendqisi2
 1329 00d0 FF2B     		cmp	r3, #255
 1330 00d2 3CD0     		beq	.L136
 182:TestTFT.cpp   ****                 spirits.Trigger(4);
 1331              		.loc 8 182 20 is_stmt 1 view .LVU332
 1332              	.LVL102:
 1333              	.LBB684:
 1334              	.LBI684:
 1335              		.loc 2 79 17 view .LVU333
 1336              	.LBB685:
 1337              		.loc 2 79 35 view .LVU334
 1338              		.loc 2 79 42 is_stmt 0 view .LVU335
 1339 00d4 894B     		ldr	r3, .L143+48
 1340              	.LBE685:
 1341              	.LBE684:
 182:TestTFT.cpp   ****                 spirits.Trigger(4);
 1342              		.loc 8 182 20 view .LVU336
 1343 00d6 9B7A     		ldrb	r3, [r3, #10]	@ zero_extendqisi2
 1344 00d8 FF2B     		cmp	r3, #255
 1345 00da 7DD0     		beq	.L137
 185:TestTFT.cpp   ****                 spirits.Trigger(5);
 1346              		.loc 8 185 20 is_stmt 1 view .LVU337
 1347              	.LVL103:
 1348              	.LBB686:
 1349              	.LBI686:
 1350              		.loc 2 79 17 view .LVU338
 1351              	.LBB687:
 1352              		.loc 2 79 35 view .LVU339
 1353              		.loc 2 79 42 is_stmt 0 view .LVU340
 1354 00dc 884B     		ldr	r3, .L143+52
 1355              	.LBE687:
 1356              	.LBE686:
 185:TestTFT.cpp   ****                 spirits.Trigger(5);
 1357              		.loc 8 185 20 view .LVU341
 1358 00de 9B7A     		ldrb	r3, [r3, #10]	@ zero_extendqisi2
 1359 00e0 FF2B     		cmp	r3, #255
 1360 00e2 00F08180 		beq	.L138
 188:TestTFT.cpp   ****                 spirits.Trigger(6);
 1361              		.loc 8 188 20 is_stmt 1 view .LVU342
 1362              	.LVL104:
ARM GAS  /var/folders/s6/2bsynnl15rj0bwtb9pgx4dc00000gn/T//cc76hY55.s 			page 47


 1363              	.LBB688:
 1364              	.LBI688:
 1365              		.loc 2 79 17 view .LVU343
 1366              	.LBB689:
 1367              		.loc 2 79 35 view .LVU344
 1368              		.loc 2 79 42 is_stmt 0 view .LVU345
 1369 00e6 874B     		ldr	r3, .L143+56
 1370              	.LBE689:
 1371              	.LBE688:
 188:TestTFT.cpp   ****                 spirits.Trigger(6);
 1372              		.loc 8 188 20 view .LVU346
 1373 00e8 9B7A     		ldrb	r3, [r3, #10]	@ zero_extendqisi2
 1374 00ea FF2B     		cmp	r3, #255
 1375 00ec D3D1     		bne	.L83
 189:TestTFT.cpp   ****                 hw.PrintLine("B Diminished triggered");
 1376              		.loc 8 189 17 is_stmt 1 view .LVU347
 189:TestTFT.cpp   ****                 hw.PrintLine("B Diminished triggered");
 1377              		.loc 8 189 32 is_stmt 0 view .LVU348
 1378 00ee 8648     		ldr	r0, .L143+60
 1379 00f0 0621     		movs	r1, #6
 1380 00f2 FFF7FEFF 		bl	_ZN7Spirits7TriggerEi
 1381              	.LVL105:
 190:TestTFT.cpp   ****             }
 1382              		.loc 8 190 17 is_stmt 1 view .LVU349
 1383              	.LBB690:
 1384              	.LBI690:
 126:./libDaisy/src/daisy_seed.h ****     {
 1385              		.loc 3 126 17 view .LVU350
 1386              	.LBB691:
 128:./libDaisy/src/daisy_seed.h ****     }
 1387              		.loc 3 128 23 is_stmt 0 view .LVU351
 1388 00f6 8548     		ldr	r0, .L143+64
 1389 00f8 FFF7FEFF 		bl	_ZN5daisy6LoggerILNS_17LoggerDestinationE1EE9PrintLineEPKcz
 1390              	.LVL106:
 1391              		.loc 3 129 5 view .LVU352
 1392 00fc CBE7     		b	.L83
 1393              	.LVL107:
 1394              	.L130:
 1395              		.loc 3 129 5 view .LVU353
 1396              	.LBE691:
 1397              	.LBE690:
 206:TestTFT.cpp   ****             currentState = VISUALS;
 1398              		.loc 8 206 13 is_stmt 1 view .LVU354
 1399              	.LBB692:
 1400              	.LBI692:
 1401              		.file 13 "/Library/DaisyToolchain/0.2.0/arm/arm-none-eabi/include/c++/10.3.1/bits/stl_stack.h"
   1:/Library/DaisyToolchain/0.2.0/arm/arm-none-eabi/include/c++/10.3.1/bits/stl_stack.h **** // Stack implementation -*- C++ -*-
   2:/Library/DaisyToolchain/0.2.0/arm/arm-none-eabi/include/c++/10.3.1/bits/stl_stack.h **** 
   3:/Library/DaisyToolchain/0.2.0/arm/arm-none-eabi/include/c++/10.3.1/bits/stl_stack.h **** // Copyright (C) 2001-2020 Free Software Foundation, Inc.
   4:/Library/DaisyToolchain/0.2.0/arm/arm-none-eabi/include/c++/10.3.1/bits/stl_stack.h **** //
   5:/Library/DaisyToolchain/0.2.0/arm/arm-none-eabi/include/c++/10.3.1/bits/stl_stack.h **** // This file is part of the GNU ISO C++ Library.  This library is free
   6:/Library/DaisyToolchain/0.2.0/arm/arm-none-eabi/include/c++/10.3.1/bits/stl_stack.h **** // software; you can redistribute it and/or modify it under the
   7:/Library/DaisyToolchain/0.2.0/arm/arm-none-eabi/include/c++/10.3.1/bits/stl_stack.h **** // terms of the GNU General Public License as published by the
   8:/Library/DaisyToolchain/0.2.0/arm/arm-none-eabi/include/c++/10.3.1/bits/stl_stack.h **** // Free Software Foundation; either version 3, or (at your option)
   9:/Library/DaisyToolchain/0.2.0/arm/arm-none-eabi/include/c++/10.3.1/bits/stl_stack.h **** // any later version.
  10:/Library/DaisyToolchain/0.2.0/arm/arm-none-eabi/include/c++/10.3.1/bits/stl_stack.h **** 
  11:/Library/DaisyToolchain/0.2.0/arm/arm-none-eabi/include/c++/10.3.1/bits/stl_stack.h **** // This library is distributed in the hope that it will be useful,
ARM GAS  /var/folders/s6/2bsynnl15rj0bwtb9pgx4dc00000gn/T//cc76hY55.s 			page 48


  12:/Library/DaisyToolchain/0.2.0/arm/arm-none-eabi/include/c++/10.3.1/bits/stl_stack.h **** // but WITHOUT ANY WARRANTY; without even the implied warranty of
  13:/Library/DaisyToolchain/0.2.0/arm/arm-none-eabi/include/c++/10.3.1/bits/stl_stack.h **** // MERCHANTABILITY or FITNESS FOR A PARTICULAR PURPOSE.  See the
  14:/Library/DaisyToolchain/0.2.0/arm/arm-none-eabi/include/c++/10.3.1/bits/stl_stack.h **** // GNU General Public License for more details.
  15:/Library/DaisyToolchain/0.2.0/arm/arm-none-eabi/include/c++/10.3.1/bits/stl_stack.h **** 
  16:/Library/DaisyToolchain/0.2.0/arm/arm-none-eabi/include/c++/10.3.1/bits/stl_stack.h **** // Under Section 7 of GPL version 3, you are granted additional
  17:/Library/DaisyToolchain/0.2.0/arm/arm-none-eabi/include/c++/10.3.1/bits/stl_stack.h **** // permissions described in the GCC Runtime Library Exception, version
  18:/Library/DaisyToolchain/0.2.0/arm/arm-none-eabi/include/c++/10.3.1/bits/stl_stack.h **** // 3.1, as published by the Free Software Foundation.
  19:/Library/DaisyToolchain/0.2.0/arm/arm-none-eabi/include/c++/10.3.1/bits/stl_stack.h **** 
  20:/Library/DaisyToolchain/0.2.0/arm/arm-none-eabi/include/c++/10.3.1/bits/stl_stack.h **** // You should have received a copy of the GNU General Public License and
  21:/Library/DaisyToolchain/0.2.0/arm/arm-none-eabi/include/c++/10.3.1/bits/stl_stack.h **** // a copy of the GCC Runtime Library Exception along with this program;
  22:/Library/DaisyToolchain/0.2.0/arm/arm-none-eabi/include/c++/10.3.1/bits/stl_stack.h **** // see the files COPYING3 and COPYING.RUNTIME respectively.  If not, see
  23:/Library/DaisyToolchain/0.2.0/arm/arm-none-eabi/include/c++/10.3.1/bits/stl_stack.h **** // <http://www.gnu.org/licenses/>.
  24:/Library/DaisyToolchain/0.2.0/arm/arm-none-eabi/include/c++/10.3.1/bits/stl_stack.h **** 
  25:/Library/DaisyToolchain/0.2.0/arm/arm-none-eabi/include/c++/10.3.1/bits/stl_stack.h **** /*
  26:/Library/DaisyToolchain/0.2.0/arm/arm-none-eabi/include/c++/10.3.1/bits/stl_stack.h ****  *
  27:/Library/DaisyToolchain/0.2.0/arm/arm-none-eabi/include/c++/10.3.1/bits/stl_stack.h ****  * Copyright (c) 1994
  28:/Library/DaisyToolchain/0.2.0/arm/arm-none-eabi/include/c++/10.3.1/bits/stl_stack.h ****  * Hewlett-Packard Company
  29:/Library/DaisyToolchain/0.2.0/arm/arm-none-eabi/include/c++/10.3.1/bits/stl_stack.h ****  *
  30:/Library/DaisyToolchain/0.2.0/arm/arm-none-eabi/include/c++/10.3.1/bits/stl_stack.h ****  * Permission to use, copy, modify, distribute and sell this software
  31:/Library/DaisyToolchain/0.2.0/arm/arm-none-eabi/include/c++/10.3.1/bits/stl_stack.h ****  * and its documentation for any purpose is hereby granted without fee,
  32:/Library/DaisyToolchain/0.2.0/arm/arm-none-eabi/include/c++/10.3.1/bits/stl_stack.h ****  * provided that the above copyright notice appear in all copies and
  33:/Library/DaisyToolchain/0.2.0/arm/arm-none-eabi/include/c++/10.3.1/bits/stl_stack.h ****  * that both that copyright notice and this permission notice appear
  34:/Library/DaisyToolchain/0.2.0/arm/arm-none-eabi/include/c++/10.3.1/bits/stl_stack.h ****  * in supporting documentation.  Hewlett-Packard Company makes no
  35:/Library/DaisyToolchain/0.2.0/arm/arm-none-eabi/include/c++/10.3.1/bits/stl_stack.h ****  * representations about the suitability of this software for any
  36:/Library/DaisyToolchain/0.2.0/arm/arm-none-eabi/include/c++/10.3.1/bits/stl_stack.h ****  * purpose.  It is provided "as is" without express or implied warranty.
  37:/Library/DaisyToolchain/0.2.0/arm/arm-none-eabi/include/c++/10.3.1/bits/stl_stack.h ****  *
  38:/Library/DaisyToolchain/0.2.0/arm/arm-none-eabi/include/c++/10.3.1/bits/stl_stack.h ****  *
  39:/Library/DaisyToolchain/0.2.0/arm/arm-none-eabi/include/c++/10.3.1/bits/stl_stack.h ****  * Copyright (c) 1996,1997
  40:/Library/DaisyToolchain/0.2.0/arm/arm-none-eabi/include/c++/10.3.1/bits/stl_stack.h ****  * Silicon Graphics Computer Systems, Inc.
  41:/Library/DaisyToolchain/0.2.0/arm/arm-none-eabi/include/c++/10.3.1/bits/stl_stack.h ****  *
  42:/Library/DaisyToolchain/0.2.0/arm/arm-none-eabi/include/c++/10.3.1/bits/stl_stack.h ****  * Permission to use, copy, modify, distribute and sell this software
  43:/Library/DaisyToolchain/0.2.0/arm/arm-none-eabi/include/c++/10.3.1/bits/stl_stack.h ****  * and its documentation for any purpose is hereby granted without fee,
  44:/Library/DaisyToolchain/0.2.0/arm/arm-none-eabi/include/c++/10.3.1/bits/stl_stack.h ****  * provided that the above copyright notice appear in all copies and
  45:/Library/DaisyToolchain/0.2.0/arm/arm-none-eabi/include/c++/10.3.1/bits/stl_stack.h ****  * that both that copyright notice and this permission notice appear
  46:/Library/DaisyToolchain/0.2.0/arm/arm-none-eabi/include/c++/10.3.1/bits/stl_stack.h ****  * in supporting documentation.  Silicon Graphics makes no
  47:/Library/DaisyToolchain/0.2.0/arm/arm-none-eabi/include/c++/10.3.1/bits/stl_stack.h ****  * representations about the suitability of this software for any
  48:/Library/DaisyToolchain/0.2.0/arm/arm-none-eabi/include/c++/10.3.1/bits/stl_stack.h ****  * purpose.  It is provided "as is" without express or implied warranty.
  49:/Library/DaisyToolchain/0.2.0/arm/arm-none-eabi/include/c++/10.3.1/bits/stl_stack.h ****  */
  50:/Library/DaisyToolchain/0.2.0/arm/arm-none-eabi/include/c++/10.3.1/bits/stl_stack.h **** 
  51:/Library/DaisyToolchain/0.2.0/arm/arm-none-eabi/include/c++/10.3.1/bits/stl_stack.h **** /** @file bits/stl_stack.h
  52:/Library/DaisyToolchain/0.2.0/arm/arm-none-eabi/include/c++/10.3.1/bits/stl_stack.h ****  *  This is an internal header file, included by other library headers.
  53:/Library/DaisyToolchain/0.2.0/arm/arm-none-eabi/include/c++/10.3.1/bits/stl_stack.h ****  *  Do not attempt to use it directly. @headername{stack}
  54:/Library/DaisyToolchain/0.2.0/arm/arm-none-eabi/include/c++/10.3.1/bits/stl_stack.h ****  */
  55:/Library/DaisyToolchain/0.2.0/arm/arm-none-eabi/include/c++/10.3.1/bits/stl_stack.h **** 
  56:/Library/DaisyToolchain/0.2.0/arm/arm-none-eabi/include/c++/10.3.1/bits/stl_stack.h **** #ifndef _STL_STACK_H
  57:/Library/DaisyToolchain/0.2.0/arm/arm-none-eabi/include/c++/10.3.1/bits/stl_stack.h **** #define _STL_STACK_H 1
  58:/Library/DaisyToolchain/0.2.0/arm/arm-none-eabi/include/c++/10.3.1/bits/stl_stack.h **** 
  59:/Library/DaisyToolchain/0.2.0/arm/arm-none-eabi/include/c++/10.3.1/bits/stl_stack.h **** #include <bits/concept_check.h>
  60:/Library/DaisyToolchain/0.2.0/arm/arm-none-eabi/include/c++/10.3.1/bits/stl_stack.h **** #include <debug/debug.h>
  61:/Library/DaisyToolchain/0.2.0/arm/arm-none-eabi/include/c++/10.3.1/bits/stl_stack.h **** #if __cplusplus >= 201103L
  62:/Library/DaisyToolchain/0.2.0/arm/arm-none-eabi/include/c++/10.3.1/bits/stl_stack.h **** # include <bits/uses_allocator.h>
  63:/Library/DaisyToolchain/0.2.0/arm/arm-none-eabi/include/c++/10.3.1/bits/stl_stack.h **** #endif
  64:/Library/DaisyToolchain/0.2.0/arm/arm-none-eabi/include/c++/10.3.1/bits/stl_stack.h **** 
  65:/Library/DaisyToolchain/0.2.0/arm/arm-none-eabi/include/c++/10.3.1/bits/stl_stack.h **** namespace std _GLIBCXX_VISIBILITY(default)
  66:/Library/DaisyToolchain/0.2.0/arm/arm-none-eabi/include/c++/10.3.1/bits/stl_stack.h **** {
  67:/Library/DaisyToolchain/0.2.0/arm/arm-none-eabi/include/c++/10.3.1/bits/stl_stack.h **** _GLIBCXX_BEGIN_NAMESPACE_VERSION
  68:/Library/DaisyToolchain/0.2.0/arm/arm-none-eabi/include/c++/10.3.1/bits/stl_stack.h **** 
ARM GAS  /var/folders/s6/2bsynnl15rj0bwtb9pgx4dc00000gn/T//cc76hY55.s 			page 49


  69:/Library/DaisyToolchain/0.2.0/arm/arm-none-eabi/include/c++/10.3.1/bits/stl_stack.h ****   /**
  70:/Library/DaisyToolchain/0.2.0/arm/arm-none-eabi/include/c++/10.3.1/bits/stl_stack.h ****    *  @brief  A standard container giving FILO behavior.
  71:/Library/DaisyToolchain/0.2.0/arm/arm-none-eabi/include/c++/10.3.1/bits/stl_stack.h ****    *
  72:/Library/DaisyToolchain/0.2.0/arm/arm-none-eabi/include/c++/10.3.1/bits/stl_stack.h ****    *  @ingroup sequences
  73:/Library/DaisyToolchain/0.2.0/arm/arm-none-eabi/include/c++/10.3.1/bits/stl_stack.h ****    *
  74:/Library/DaisyToolchain/0.2.0/arm/arm-none-eabi/include/c++/10.3.1/bits/stl_stack.h ****    *  @tparam _Tp  Type of element.
  75:/Library/DaisyToolchain/0.2.0/arm/arm-none-eabi/include/c++/10.3.1/bits/stl_stack.h ****    *  @tparam _Sequence  Type of underlying sequence, defaults to deque<_Tp>.
  76:/Library/DaisyToolchain/0.2.0/arm/arm-none-eabi/include/c++/10.3.1/bits/stl_stack.h ****    *
  77:/Library/DaisyToolchain/0.2.0/arm/arm-none-eabi/include/c++/10.3.1/bits/stl_stack.h ****    *  Meets many of the requirements of a
  78:/Library/DaisyToolchain/0.2.0/arm/arm-none-eabi/include/c++/10.3.1/bits/stl_stack.h ****    *  <a href="tables.html#65">container</a>,
  79:/Library/DaisyToolchain/0.2.0/arm/arm-none-eabi/include/c++/10.3.1/bits/stl_stack.h ****    *  but does not define anything to do with iterators.  Very few of the
  80:/Library/DaisyToolchain/0.2.0/arm/arm-none-eabi/include/c++/10.3.1/bits/stl_stack.h ****    *  other standard container interfaces are defined.
  81:/Library/DaisyToolchain/0.2.0/arm/arm-none-eabi/include/c++/10.3.1/bits/stl_stack.h ****    *
  82:/Library/DaisyToolchain/0.2.0/arm/arm-none-eabi/include/c++/10.3.1/bits/stl_stack.h ****    *  This is not a true container, but an @e adaptor.  It holds
  83:/Library/DaisyToolchain/0.2.0/arm/arm-none-eabi/include/c++/10.3.1/bits/stl_stack.h ****    *  another container, and provides a wrapper interface to that
  84:/Library/DaisyToolchain/0.2.0/arm/arm-none-eabi/include/c++/10.3.1/bits/stl_stack.h ****    *  container.  The wrapper is what enforces strict
  85:/Library/DaisyToolchain/0.2.0/arm/arm-none-eabi/include/c++/10.3.1/bits/stl_stack.h ****    *  first-in-last-out %stack behavior.
  86:/Library/DaisyToolchain/0.2.0/arm/arm-none-eabi/include/c++/10.3.1/bits/stl_stack.h ****    *
  87:/Library/DaisyToolchain/0.2.0/arm/arm-none-eabi/include/c++/10.3.1/bits/stl_stack.h ****    *  The second template parameter defines the type of the underlying
  88:/Library/DaisyToolchain/0.2.0/arm/arm-none-eabi/include/c++/10.3.1/bits/stl_stack.h ****    *  sequence/container.  It defaults to std::deque, but it can be
  89:/Library/DaisyToolchain/0.2.0/arm/arm-none-eabi/include/c++/10.3.1/bits/stl_stack.h ****    *  any type that supports @c back, @c push_back, and @c pop_back,
  90:/Library/DaisyToolchain/0.2.0/arm/arm-none-eabi/include/c++/10.3.1/bits/stl_stack.h ****    *  such as std::list, std::vector, or an appropriate user-defined
  91:/Library/DaisyToolchain/0.2.0/arm/arm-none-eabi/include/c++/10.3.1/bits/stl_stack.h ****    *  type.
  92:/Library/DaisyToolchain/0.2.0/arm/arm-none-eabi/include/c++/10.3.1/bits/stl_stack.h ****    *
  93:/Library/DaisyToolchain/0.2.0/arm/arm-none-eabi/include/c++/10.3.1/bits/stl_stack.h ****    *  Members not found in @a normal containers are @c container_type,
  94:/Library/DaisyToolchain/0.2.0/arm/arm-none-eabi/include/c++/10.3.1/bits/stl_stack.h ****    *  which is a typedef for the second Sequence parameter, and @c
  95:/Library/DaisyToolchain/0.2.0/arm/arm-none-eabi/include/c++/10.3.1/bits/stl_stack.h ****    *  push, @c pop, and @c top, which are standard %stack/FILO
  96:/Library/DaisyToolchain/0.2.0/arm/arm-none-eabi/include/c++/10.3.1/bits/stl_stack.h ****    *  operations.
  97:/Library/DaisyToolchain/0.2.0/arm/arm-none-eabi/include/c++/10.3.1/bits/stl_stack.h ****   */
  98:/Library/DaisyToolchain/0.2.0/arm/arm-none-eabi/include/c++/10.3.1/bits/stl_stack.h ****   template<typename _Tp, typename _Sequence = deque<_Tp> >
  99:/Library/DaisyToolchain/0.2.0/arm/arm-none-eabi/include/c++/10.3.1/bits/stl_stack.h ****     class stack
 100:/Library/DaisyToolchain/0.2.0/arm/arm-none-eabi/include/c++/10.3.1/bits/stl_stack.h ****     {
 101:/Library/DaisyToolchain/0.2.0/arm/arm-none-eabi/include/c++/10.3.1/bits/stl_stack.h **** #ifdef _GLIBCXX_CONCEPT_CHECKS
 102:/Library/DaisyToolchain/0.2.0/arm/arm-none-eabi/include/c++/10.3.1/bits/stl_stack.h ****       // concept requirements
 103:/Library/DaisyToolchain/0.2.0/arm/arm-none-eabi/include/c++/10.3.1/bits/stl_stack.h ****       typedef typename _Sequence::value_type _Sequence_value_type;
 104:/Library/DaisyToolchain/0.2.0/arm/arm-none-eabi/include/c++/10.3.1/bits/stl_stack.h **** # if __cplusplus < 201103L
 105:/Library/DaisyToolchain/0.2.0/arm/arm-none-eabi/include/c++/10.3.1/bits/stl_stack.h ****       __glibcxx_class_requires(_Tp, _SGIAssignableConcept)
 106:/Library/DaisyToolchain/0.2.0/arm/arm-none-eabi/include/c++/10.3.1/bits/stl_stack.h ****       __glibcxx_class_requires(_Sequence, _BackInsertionSequenceConcept)
 107:/Library/DaisyToolchain/0.2.0/arm/arm-none-eabi/include/c++/10.3.1/bits/stl_stack.h **** # endif
 108:/Library/DaisyToolchain/0.2.0/arm/arm-none-eabi/include/c++/10.3.1/bits/stl_stack.h ****       __glibcxx_class_requires2(_Tp, _Sequence_value_type, _SameTypeConcept)
 109:/Library/DaisyToolchain/0.2.0/arm/arm-none-eabi/include/c++/10.3.1/bits/stl_stack.h **** #endif
 110:/Library/DaisyToolchain/0.2.0/arm/arm-none-eabi/include/c++/10.3.1/bits/stl_stack.h **** 
 111:/Library/DaisyToolchain/0.2.0/arm/arm-none-eabi/include/c++/10.3.1/bits/stl_stack.h ****       template<typename _Tp1, typename _Seq1>
 112:/Library/DaisyToolchain/0.2.0/arm/arm-none-eabi/include/c++/10.3.1/bits/stl_stack.h **** 	friend bool
 113:/Library/DaisyToolchain/0.2.0/arm/arm-none-eabi/include/c++/10.3.1/bits/stl_stack.h **** 	operator==(const stack<_Tp1, _Seq1>&, const stack<_Tp1, _Seq1>&);
 114:/Library/DaisyToolchain/0.2.0/arm/arm-none-eabi/include/c++/10.3.1/bits/stl_stack.h **** 
 115:/Library/DaisyToolchain/0.2.0/arm/arm-none-eabi/include/c++/10.3.1/bits/stl_stack.h ****       template<typename _Tp1, typename _Seq1>
 116:/Library/DaisyToolchain/0.2.0/arm/arm-none-eabi/include/c++/10.3.1/bits/stl_stack.h **** 	friend bool
 117:/Library/DaisyToolchain/0.2.0/arm/arm-none-eabi/include/c++/10.3.1/bits/stl_stack.h **** 	operator<(const stack<_Tp1, _Seq1>&, const stack<_Tp1, _Seq1>&);
 118:/Library/DaisyToolchain/0.2.0/arm/arm-none-eabi/include/c++/10.3.1/bits/stl_stack.h **** 
 119:/Library/DaisyToolchain/0.2.0/arm/arm-none-eabi/include/c++/10.3.1/bits/stl_stack.h **** #if __cpp_lib_three_way_comparison
 120:/Library/DaisyToolchain/0.2.0/arm/arm-none-eabi/include/c++/10.3.1/bits/stl_stack.h ****       template<typename _Tp1, three_way_comparable _Seq1>
 121:/Library/DaisyToolchain/0.2.0/arm/arm-none-eabi/include/c++/10.3.1/bits/stl_stack.h **** 	friend compare_three_way_result_t<_Seq1>
 122:/Library/DaisyToolchain/0.2.0/arm/arm-none-eabi/include/c++/10.3.1/bits/stl_stack.h **** 	operator<=>(const stack<_Tp1, _Seq1>&, const stack<_Tp1, _Seq1>&);
 123:/Library/DaisyToolchain/0.2.0/arm/arm-none-eabi/include/c++/10.3.1/bits/stl_stack.h **** #endif
 124:/Library/DaisyToolchain/0.2.0/arm/arm-none-eabi/include/c++/10.3.1/bits/stl_stack.h **** 
 125:/Library/DaisyToolchain/0.2.0/arm/arm-none-eabi/include/c++/10.3.1/bits/stl_stack.h **** #if __cplusplus >= 201103L
ARM GAS  /var/folders/s6/2bsynnl15rj0bwtb9pgx4dc00000gn/T//cc76hY55.s 			page 50


 126:/Library/DaisyToolchain/0.2.0/arm/arm-none-eabi/include/c++/10.3.1/bits/stl_stack.h ****       template<typename _Alloc>
 127:/Library/DaisyToolchain/0.2.0/arm/arm-none-eabi/include/c++/10.3.1/bits/stl_stack.h **** 	using _Uses = typename
 128:/Library/DaisyToolchain/0.2.0/arm/arm-none-eabi/include/c++/10.3.1/bits/stl_stack.h **** 	  enable_if<uses_allocator<_Sequence, _Alloc>::value>::type;
 129:/Library/DaisyToolchain/0.2.0/arm/arm-none-eabi/include/c++/10.3.1/bits/stl_stack.h **** 
 130:/Library/DaisyToolchain/0.2.0/arm/arm-none-eabi/include/c++/10.3.1/bits/stl_stack.h **** #if __cplusplus >= 201703L
 131:/Library/DaisyToolchain/0.2.0/arm/arm-none-eabi/include/c++/10.3.1/bits/stl_stack.h ****       // _GLIBCXX_RESOLVE_LIB_DEFECTS
 132:/Library/DaisyToolchain/0.2.0/arm/arm-none-eabi/include/c++/10.3.1/bits/stl_stack.h ****       // 2566. Requirements on the first template parameter of container
 133:/Library/DaisyToolchain/0.2.0/arm/arm-none-eabi/include/c++/10.3.1/bits/stl_stack.h ****       // adaptors
 134:/Library/DaisyToolchain/0.2.0/arm/arm-none-eabi/include/c++/10.3.1/bits/stl_stack.h ****       static_assert(is_same<_Tp, typename _Sequence::value_type>::value,
 135:/Library/DaisyToolchain/0.2.0/arm/arm-none-eabi/include/c++/10.3.1/bits/stl_stack.h **** 	  "value_type must be the same as the underlying container");
 136:/Library/DaisyToolchain/0.2.0/arm/arm-none-eabi/include/c++/10.3.1/bits/stl_stack.h **** #endif // C++17
 137:/Library/DaisyToolchain/0.2.0/arm/arm-none-eabi/include/c++/10.3.1/bits/stl_stack.h **** #endif // C++11
 138:/Library/DaisyToolchain/0.2.0/arm/arm-none-eabi/include/c++/10.3.1/bits/stl_stack.h **** 
 139:/Library/DaisyToolchain/0.2.0/arm/arm-none-eabi/include/c++/10.3.1/bits/stl_stack.h ****     public:
 140:/Library/DaisyToolchain/0.2.0/arm/arm-none-eabi/include/c++/10.3.1/bits/stl_stack.h ****       typedef typename _Sequence::value_type		value_type;
 141:/Library/DaisyToolchain/0.2.0/arm/arm-none-eabi/include/c++/10.3.1/bits/stl_stack.h ****       typedef typename _Sequence::reference		reference;
 142:/Library/DaisyToolchain/0.2.0/arm/arm-none-eabi/include/c++/10.3.1/bits/stl_stack.h ****       typedef typename _Sequence::const_reference	const_reference;
 143:/Library/DaisyToolchain/0.2.0/arm/arm-none-eabi/include/c++/10.3.1/bits/stl_stack.h ****       typedef typename _Sequence::size_type		size_type;
 144:/Library/DaisyToolchain/0.2.0/arm/arm-none-eabi/include/c++/10.3.1/bits/stl_stack.h ****       typedef	       _Sequence			container_type;
 145:/Library/DaisyToolchain/0.2.0/arm/arm-none-eabi/include/c++/10.3.1/bits/stl_stack.h **** 
 146:/Library/DaisyToolchain/0.2.0/arm/arm-none-eabi/include/c++/10.3.1/bits/stl_stack.h ****     protected:
 147:/Library/DaisyToolchain/0.2.0/arm/arm-none-eabi/include/c++/10.3.1/bits/stl_stack.h ****       //  See queue::c for notes on this name.
 148:/Library/DaisyToolchain/0.2.0/arm/arm-none-eabi/include/c++/10.3.1/bits/stl_stack.h ****       _Sequence c;
 149:/Library/DaisyToolchain/0.2.0/arm/arm-none-eabi/include/c++/10.3.1/bits/stl_stack.h **** 
 150:/Library/DaisyToolchain/0.2.0/arm/arm-none-eabi/include/c++/10.3.1/bits/stl_stack.h ****     public:
 151:/Library/DaisyToolchain/0.2.0/arm/arm-none-eabi/include/c++/10.3.1/bits/stl_stack.h ****       // XXX removed old def ctor, added def arg to this one to match 14882
 152:/Library/DaisyToolchain/0.2.0/arm/arm-none-eabi/include/c++/10.3.1/bits/stl_stack.h ****       /**
 153:/Library/DaisyToolchain/0.2.0/arm/arm-none-eabi/include/c++/10.3.1/bits/stl_stack.h ****        *  @brief  Default constructor creates no elements.
 154:/Library/DaisyToolchain/0.2.0/arm/arm-none-eabi/include/c++/10.3.1/bits/stl_stack.h ****        */
 155:/Library/DaisyToolchain/0.2.0/arm/arm-none-eabi/include/c++/10.3.1/bits/stl_stack.h **** #if __cplusplus < 201103L
 156:/Library/DaisyToolchain/0.2.0/arm/arm-none-eabi/include/c++/10.3.1/bits/stl_stack.h ****       explicit
 157:/Library/DaisyToolchain/0.2.0/arm/arm-none-eabi/include/c++/10.3.1/bits/stl_stack.h ****       stack(const _Sequence& __c = _Sequence())
 158:/Library/DaisyToolchain/0.2.0/arm/arm-none-eabi/include/c++/10.3.1/bits/stl_stack.h ****       : c(__c) { }
 159:/Library/DaisyToolchain/0.2.0/arm/arm-none-eabi/include/c++/10.3.1/bits/stl_stack.h **** #else
 160:/Library/DaisyToolchain/0.2.0/arm/arm-none-eabi/include/c++/10.3.1/bits/stl_stack.h ****       template<typename _Seq = _Sequence, typename _Requires = typename
 161:/Library/DaisyToolchain/0.2.0/arm/arm-none-eabi/include/c++/10.3.1/bits/stl_stack.h **** 	       enable_if<is_default_constructible<_Seq>::value>::type>
 162:/Library/DaisyToolchain/0.2.0/arm/arm-none-eabi/include/c++/10.3.1/bits/stl_stack.h **** 	stack()
 163:/Library/DaisyToolchain/0.2.0/arm/arm-none-eabi/include/c++/10.3.1/bits/stl_stack.h **** 	: c() { }
 164:/Library/DaisyToolchain/0.2.0/arm/arm-none-eabi/include/c++/10.3.1/bits/stl_stack.h **** 
 165:/Library/DaisyToolchain/0.2.0/arm/arm-none-eabi/include/c++/10.3.1/bits/stl_stack.h ****       explicit
 166:/Library/DaisyToolchain/0.2.0/arm/arm-none-eabi/include/c++/10.3.1/bits/stl_stack.h ****       stack(const _Sequence& __c)
 167:/Library/DaisyToolchain/0.2.0/arm/arm-none-eabi/include/c++/10.3.1/bits/stl_stack.h ****       : c(__c) { }
 168:/Library/DaisyToolchain/0.2.0/arm/arm-none-eabi/include/c++/10.3.1/bits/stl_stack.h **** 
 169:/Library/DaisyToolchain/0.2.0/arm/arm-none-eabi/include/c++/10.3.1/bits/stl_stack.h ****       explicit
 170:/Library/DaisyToolchain/0.2.0/arm/arm-none-eabi/include/c++/10.3.1/bits/stl_stack.h ****       stack(_Sequence&& __c)
 171:/Library/DaisyToolchain/0.2.0/arm/arm-none-eabi/include/c++/10.3.1/bits/stl_stack.h ****       : c(std::move(__c)) { }
 172:/Library/DaisyToolchain/0.2.0/arm/arm-none-eabi/include/c++/10.3.1/bits/stl_stack.h **** 
 173:/Library/DaisyToolchain/0.2.0/arm/arm-none-eabi/include/c++/10.3.1/bits/stl_stack.h ****       template<typename _Alloc, typename _Requires = _Uses<_Alloc>>
 174:/Library/DaisyToolchain/0.2.0/arm/arm-none-eabi/include/c++/10.3.1/bits/stl_stack.h **** 	explicit
 175:/Library/DaisyToolchain/0.2.0/arm/arm-none-eabi/include/c++/10.3.1/bits/stl_stack.h **** 	stack(const _Alloc& __a)
 176:/Library/DaisyToolchain/0.2.0/arm/arm-none-eabi/include/c++/10.3.1/bits/stl_stack.h **** 	: c(__a) { }
 177:/Library/DaisyToolchain/0.2.0/arm/arm-none-eabi/include/c++/10.3.1/bits/stl_stack.h **** 
 178:/Library/DaisyToolchain/0.2.0/arm/arm-none-eabi/include/c++/10.3.1/bits/stl_stack.h ****       template<typename _Alloc, typename _Requires = _Uses<_Alloc>>
 179:/Library/DaisyToolchain/0.2.0/arm/arm-none-eabi/include/c++/10.3.1/bits/stl_stack.h **** 	stack(const _Sequence& __c, const _Alloc& __a)
 180:/Library/DaisyToolchain/0.2.0/arm/arm-none-eabi/include/c++/10.3.1/bits/stl_stack.h **** 	: c(__c, __a) { }
 181:/Library/DaisyToolchain/0.2.0/arm/arm-none-eabi/include/c++/10.3.1/bits/stl_stack.h **** 
 182:/Library/DaisyToolchain/0.2.0/arm/arm-none-eabi/include/c++/10.3.1/bits/stl_stack.h ****       template<typename _Alloc, typename _Requires = _Uses<_Alloc>>
ARM GAS  /var/folders/s6/2bsynnl15rj0bwtb9pgx4dc00000gn/T//cc76hY55.s 			page 51


 183:/Library/DaisyToolchain/0.2.0/arm/arm-none-eabi/include/c++/10.3.1/bits/stl_stack.h **** 	stack(_Sequence&& __c, const _Alloc& __a)
 184:/Library/DaisyToolchain/0.2.0/arm/arm-none-eabi/include/c++/10.3.1/bits/stl_stack.h **** 	: c(std::move(__c), __a) { }
 185:/Library/DaisyToolchain/0.2.0/arm/arm-none-eabi/include/c++/10.3.1/bits/stl_stack.h **** 
 186:/Library/DaisyToolchain/0.2.0/arm/arm-none-eabi/include/c++/10.3.1/bits/stl_stack.h ****       template<typename _Alloc, typename _Requires = _Uses<_Alloc>>
 187:/Library/DaisyToolchain/0.2.0/arm/arm-none-eabi/include/c++/10.3.1/bits/stl_stack.h **** 	stack(const stack& __q, const _Alloc& __a)
 188:/Library/DaisyToolchain/0.2.0/arm/arm-none-eabi/include/c++/10.3.1/bits/stl_stack.h **** 	: c(__q.c, __a) { }
 189:/Library/DaisyToolchain/0.2.0/arm/arm-none-eabi/include/c++/10.3.1/bits/stl_stack.h **** 
 190:/Library/DaisyToolchain/0.2.0/arm/arm-none-eabi/include/c++/10.3.1/bits/stl_stack.h ****       template<typename _Alloc, typename _Requires = _Uses<_Alloc>>
 191:/Library/DaisyToolchain/0.2.0/arm/arm-none-eabi/include/c++/10.3.1/bits/stl_stack.h **** 	stack(stack&& __q, const _Alloc& __a)
 192:/Library/DaisyToolchain/0.2.0/arm/arm-none-eabi/include/c++/10.3.1/bits/stl_stack.h **** 	: c(std::move(__q.c), __a) { }
 193:/Library/DaisyToolchain/0.2.0/arm/arm-none-eabi/include/c++/10.3.1/bits/stl_stack.h **** #endif
 194:/Library/DaisyToolchain/0.2.0/arm/arm-none-eabi/include/c++/10.3.1/bits/stl_stack.h **** 
 195:/Library/DaisyToolchain/0.2.0/arm/arm-none-eabi/include/c++/10.3.1/bits/stl_stack.h ****       /**
 196:/Library/DaisyToolchain/0.2.0/arm/arm-none-eabi/include/c++/10.3.1/bits/stl_stack.h ****        *  Returns true if the %stack is empty.
 197:/Library/DaisyToolchain/0.2.0/arm/arm-none-eabi/include/c++/10.3.1/bits/stl_stack.h ****        */
 198:/Library/DaisyToolchain/0.2.0/arm/arm-none-eabi/include/c++/10.3.1/bits/stl_stack.h ****       _GLIBCXX_NODISCARD bool
 199:/Library/DaisyToolchain/0.2.0/arm/arm-none-eabi/include/c++/10.3.1/bits/stl_stack.h ****       empty() const
 200:/Library/DaisyToolchain/0.2.0/arm/arm-none-eabi/include/c++/10.3.1/bits/stl_stack.h ****       { return c.empty(); }
 201:/Library/DaisyToolchain/0.2.0/arm/arm-none-eabi/include/c++/10.3.1/bits/stl_stack.h **** 
 202:/Library/DaisyToolchain/0.2.0/arm/arm-none-eabi/include/c++/10.3.1/bits/stl_stack.h ****       /**  Returns the number of elements in the %stack.  */
 203:/Library/DaisyToolchain/0.2.0/arm/arm-none-eabi/include/c++/10.3.1/bits/stl_stack.h ****       size_type
 204:/Library/DaisyToolchain/0.2.0/arm/arm-none-eabi/include/c++/10.3.1/bits/stl_stack.h ****       size() const
 205:/Library/DaisyToolchain/0.2.0/arm/arm-none-eabi/include/c++/10.3.1/bits/stl_stack.h ****       { return c.size(); }
 206:/Library/DaisyToolchain/0.2.0/arm/arm-none-eabi/include/c++/10.3.1/bits/stl_stack.h **** 
 207:/Library/DaisyToolchain/0.2.0/arm/arm-none-eabi/include/c++/10.3.1/bits/stl_stack.h ****       /**
 208:/Library/DaisyToolchain/0.2.0/arm/arm-none-eabi/include/c++/10.3.1/bits/stl_stack.h ****        *  Returns a read/write reference to the data at the first
 209:/Library/DaisyToolchain/0.2.0/arm/arm-none-eabi/include/c++/10.3.1/bits/stl_stack.h ****        *  element of the %stack.
 210:/Library/DaisyToolchain/0.2.0/arm/arm-none-eabi/include/c++/10.3.1/bits/stl_stack.h ****        */
 211:/Library/DaisyToolchain/0.2.0/arm/arm-none-eabi/include/c++/10.3.1/bits/stl_stack.h ****       reference
 212:/Library/DaisyToolchain/0.2.0/arm/arm-none-eabi/include/c++/10.3.1/bits/stl_stack.h ****       top()
 213:/Library/DaisyToolchain/0.2.0/arm/arm-none-eabi/include/c++/10.3.1/bits/stl_stack.h ****       {
 214:/Library/DaisyToolchain/0.2.0/arm/arm-none-eabi/include/c++/10.3.1/bits/stl_stack.h **** 	__glibcxx_requires_nonempty();
 215:/Library/DaisyToolchain/0.2.0/arm/arm-none-eabi/include/c++/10.3.1/bits/stl_stack.h **** 	return c.back();
 216:/Library/DaisyToolchain/0.2.0/arm/arm-none-eabi/include/c++/10.3.1/bits/stl_stack.h ****       }
 217:/Library/DaisyToolchain/0.2.0/arm/arm-none-eabi/include/c++/10.3.1/bits/stl_stack.h **** 
 218:/Library/DaisyToolchain/0.2.0/arm/arm-none-eabi/include/c++/10.3.1/bits/stl_stack.h ****       /**
 219:/Library/DaisyToolchain/0.2.0/arm/arm-none-eabi/include/c++/10.3.1/bits/stl_stack.h ****        *  Returns a read-only (constant) reference to the data at the first
 220:/Library/DaisyToolchain/0.2.0/arm/arm-none-eabi/include/c++/10.3.1/bits/stl_stack.h ****        *  element of the %stack.
 221:/Library/DaisyToolchain/0.2.0/arm/arm-none-eabi/include/c++/10.3.1/bits/stl_stack.h ****        */
 222:/Library/DaisyToolchain/0.2.0/arm/arm-none-eabi/include/c++/10.3.1/bits/stl_stack.h ****       const_reference
 223:/Library/DaisyToolchain/0.2.0/arm/arm-none-eabi/include/c++/10.3.1/bits/stl_stack.h ****       top() const
 224:/Library/DaisyToolchain/0.2.0/arm/arm-none-eabi/include/c++/10.3.1/bits/stl_stack.h ****       {
 225:/Library/DaisyToolchain/0.2.0/arm/arm-none-eabi/include/c++/10.3.1/bits/stl_stack.h **** 	__glibcxx_requires_nonempty();
 226:/Library/DaisyToolchain/0.2.0/arm/arm-none-eabi/include/c++/10.3.1/bits/stl_stack.h **** 	return c.back();
 227:/Library/DaisyToolchain/0.2.0/arm/arm-none-eabi/include/c++/10.3.1/bits/stl_stack.h ****       }
 228:/Library/DaisyToolchain/0.2.0/arm/arm-none-eabi/include/c++/10.3.1/bits/stl_stack.h **** 
 229:/Library/DaisyToolchain/0.2.0/arm/arm-none-eabi/include/c++/10.3.1/bits/stl_stack.h ****       /**
 230:/Library/DaisyToolchain/0.2.0/arm/arm-none-eabi/include/c++/10.3.1/bits/stl_stack.h ****        *  @brief  Add data to the top of the %stack.
 231:/Library/DaisyToolchain/0.2.0/arm/arm-none-eabi/include/c++/10.3.1/bits/stl_stack.h ****        *  @param  __x  Data to be added.
 232:/Library/DaisyToolchain/0.2.0/arm/arm-none-eabi/include/c++/10.3.1/bits/stl_stack.h ****        *
 233:/Library/DaisyToolchain/0.2.0/arm/arm-none-eabi/include/c++/10.3.1/bits/stl_stack.h ****        *  This is a typical %stack operation.  The function creates an
 234:/Library/DaisyToolchain/0.2.0/arm/arm-none-eabi/include/c++/10.3.1/bits/stl_stack.h ****        *  element at the top of the %stack and assigns the given data
 235:/Library/DaisyToolchain/0.2.0/arm/arm-none-eabi/include/c++/10.3.1/bits/stl_stack.h ****        *  to it.  The time complexity of the operation depends on the
 236:/Library/DaisyToolchain/0.2.0/arm/arm-none-eabi/include/c++/10.3.1/bits/stl_stack.h ****        *  underlying sequence.
 237:/Library/DaisyToolchain/0.2.0/arm/arm-none-eabi/include/c++/10.3.1/bits/stl_stack.h ****        */
 238:/Library/DaisyToolchain/0.2.0/arm/arm-none-eabi/include/c++/10.3.1/bits/stl_stack.h ****       void
 239:/Library/DaisyToolchain/0.2.0/arm/arm-none-eabi/include/c++/10.3.1/bits/stl_stack.h ****       push(const value_type& __x)
ARM GAS  /var/folders/s6/2bsynnl15rj0bwtb9pgx4dc00000gn/T//cc76hY55.s 			page 52


 1402              		.loc 13 239 7 view .LVU355
 1403              	.LBB693:
 1404              	.LBI693:
 1405              		.file 14 "/Library/DaisyToolchain/0.2.0/arm/arm-none-eabi/include/c++/10.3.1/bits/stl_deque.h"
   1:/Library/DaisyToolchain/0.2.0/arm/arm-none-eabi/include/c++/10.3.1/bits/stl_deque.h **** // Deque implementation -*- C++ -*-
   2:/Library/DaisyToolchain/0.2.0/arm/arm-none-eabi/include/c++/10.3.1/bits/stl_deque.h **** 
   3:/Library/DaisyToolchain/0.2.0/arm/arm-none-eabi/include/c++/10.3.1/bits/stl_deque.h **** // Copyright (C) 2001-2020 Free Software Foundation, Inc.
   4:/Library/DaisyToolchain/0.2.0/arm/arm-none-eabi/include/c++/10.3.1/bits/stl_deque.h **** //
   5:/Library/DaisyToolchain/0.2.0/arm/arm-none-eabi/include/c++/10.3.1/bits/stl_deque.h **** // This file is part of the GNU ISO C++ Library.  This library is free
   6:/Library/DaisyToolchain/0.2.0/arm/arm-none-eabi/include/c++/10.3.1/bits/stl_deque.h **** // software; you can redistribute it and/or modify it under the
   7:/Library/DaisyToolchain/0.2.0/arm/arm-none-eabi/include/c++/10.3.1/bits/stl_deque.h **** // terms of the GNU General Public License as published by the
   8:/Library/DaisyToolchain/0.2.0/arm/arm-none-eabi/include/c++/10.3.1/bits/stl_deque.h **** // Free Software Foundation; either version 3, or (at your option)
   9:/Library/DaisyToolchain/0.2.0/arm/arm-none-eabi/include/c++/10.3.1/bits/stl_deque.h **** // any later version.
  10:/Library/DaisyToolchain/0.2.0/arm/arm-none-eabi/include/c++/10.3.1/bits/stl_deque.h **** 
  11:/Library/DaisyToolchain/0.2.0/arm/arm-none-eabi/include/c++/10.3.1/bits/stl_deque.h **** // This library is distributed in the hope that it will be useful,
  12:/Library/DaisyToolchain/0.2.0/arm/arm-none-eabi/include/c++/10.3.1/bits/stl_deque.h **** // but WITHOUT ANY WARRANTY; without even the implied warranty of
  13:/Library/DaisyToolchain/0.2.0/arm/arm-none-eabi/include/c++/10.3.1/bits/stl_deque.h **** // MERCHANTABILITY or FITNESS FOR A PARTICULAR PURPOSE.  See the
  14:/Library/DaisyToolchain/0.2.0/arm/arm-none-eabi/include/c++/10.3.1/bits/stl_deque.h **** // GNU General Public License for more details.
  15:/Library/DaisyToolchain/0.2.0/arm/arm-none-eabi/include/c++/10.3.1/bits/stl_deque.h **** 
  16:/Library/DaisyToolchain/0.2.0/arm/arm-none-eabi/include/c++/10.3.1/bits/stl_deque.h **** // Under Section 7 of GPL version 3, you are granted additional
  17:/Library/DaisyToolchain/0.2.0/arm/arm-none-eabi/include/c++/10.3.1/bits/stl_deque.h **** // permissions described in the GCC Runtime Library Exception, version
  18:/Library/DaisyToolchain/0.2.0/arm/arm-none-eabi/include/c++/10.3.1/bits/stl_deque.h **** // 3.1, as published by the Free Software Foundation.
  19:/Library/DaisyToolchain/0.2.0/arm/arm-none-eabi/include/c++/10.3.1/bits/stl_deque.h **** 
  20:/Library/DaisyToolchain/0.2.0/arm/arm-none-eabi/include/c++/10.3.1/bits/stl_deque.h **** // You should have received a copy of the GNU General Public License and
  21:/Library/DaisyToolchain/0.2.0/arm/arm-none-eabi/include/c++/10.3.1/bits/stl_deque.h **** // a copy of the GCC Runtime Library Exception along with this program;
  22:/Library/DaisyToolchain/0.2.0/arm/arm-none-eabi/include/c++/10.3.1/bits/stl_deque.h **** // see the files COPYING3 and COPYING.RUNTIME respectively.  If not, see
  23:/Library/DaisyToolchain/0.2.0/arm/arm-none-eabi/include/c++/10.3.1/bits/stl_deque.h **** // <http://www.gnu.org/licenses/>.
  24:/Library/DaisyToolchain/0.2.0/arm/arm-none-eabi/include/c++/10.3.1/bits/stl_deque.h **** 
  25:/Library/DaisyToolchain/0.2.0/arm/arm-none-eabi/include/c++/10.3.1/bits/stl_deque.h **** /*
  26:/Library/DaisyToolchain/0.2.0/arm/arm-none-eabi/include/c++/10.3.1/bits/stl_deque.h ****  *
  27:/Library/DaisyToolchain/0.2.0/arm/arm-none-eabi/include/c++/10.3.1/bits/stl_deque.h ****  * Copyright (c) 1994
  28:/Library/DaisyToolchain/0.2.0/arm/arm-none-eabi/include/c++/10.3.1/bits/stl_deque.h ****  * Hewlett-Packard Company
  29:/Library/DaisyToolchain/0.2.0/arm/arm-none-eabi/include/c++/10.3.1/bits/stl_deque.h ****  *
  30:/Library/DaisyToolchain/0.2.0/arm/arm-none-eabi/include/c++/10.3.1/bits/stl_deque.h ****  * Permission to use, copy, modify, distribute and sell this software
  31:/Library/DaisyToolchain/0.2.0/arm/arm-none-eabi/include/c++/10.3.1/bits/stl_deque.h ****  * and its documentation for any purpose is hereby granted without fee,
  32:/Library/DaisyToolchain/0.2.0/arm/arm-none-eabi/include/c++/10.3.1/bits/stl_deque.h ****  * provided that the above copyright notice appear in all copies and
  33:/Library/DaisyToolchain/0.2.0/arm/arm-none-eabi/include/c++/10.3.1/bits/stl_deque.h ****  * that both that copyright notice and this permission notice appear
  34:/Library/DaisyToolchain/0.2.0/arm/arm-none-eabi/include/c++/10.3.1/bits/stl_deque.h ****  * in supporting documentation.  Hewlett-Packard Company makes no
  35:/Library/DaisyToolchain/0.2.0/arm/arm-none-eabi/include/c++/10.3.1/bits/stl_deque.h ****  * representations about the suitability of this software for any
  36:/Library/DaisyToolchain/0.2.0/arm/arm-none-eabi/include/c++/10.3.1/bits/stl_deque.h ****  * purpose.  It is provided "as is" without express or implied warranty.
  37:/Library/DaisyToolchain/0.2.0/arm/arm-none-eabi/include/c++/10.3.1/bits/stl_deque.h ****  *
  38:/Library/DaisyToolchain/0.2.0/arm/arm-none-eabi/include/c++/10.3.1/bits/stl_deque.h ****  *
  39:/Library/DaisyToolchain/0.2.0/arm/arm-none-eabi/include/c++/10.3.1/bits/stl_deque.h ****  * Copyright (c) 1997
  40:/Library/DaisyToolchain/0.2.0/arm/arm-none-eabi/include/c++/10.3.1/bits/stl_deque.h ****  * Silicon Graphics Computer Systems, Inc.
  41:/Library/DaisyToolchain/0.2.0/arm/arm-none-eabi/include/c++/10.3.1/bits/stl_deque.h ****  *
  42:/Library/DaisyToolchain/0.2.0/arm/arm-none-eabi/include/c++/10.3.1/bits/stl_deque.h ****  * Permission to use, copy, modify, distribute and sell this software
  43:/Library/DaisyToolchain/0.2.0/arm/arm-none-eabi/include/c++/10.3.1/bits/stl_deque.h ****  * and its documentation for any purpose is hereby granted without fee,
  44:/Library/DaisyToolchain/0.2.0/arm/arm-none-eabi/include/c++/10.3.1/bits/stl_deque.h ****  * provided that the above copyright notice appear in all copies and
  45:/Library/DaisyToolchain/0.2.0/arm/arm-none-eabi/include/c++/10.3.1/bits/stl_deque.h ****  * that both that copyright notice and this permission notice appear
  46:/Library/DaisyToolchain/0.2.0/arm/arm-none-eabi/include/c++/10.3.1/bits/stl_deque.h ****  * in supporting documentation.  Silicon Graphics makes no
  47:/Library/DaisyToolchain/0.2.0/arm/arm-none-eabi/include/c++/10.3.1/bits/stl_deque.h ****  * representations about the suitability of this software for any
  48:/Library/DaisyToolchain/0.2.0/arm/arm-none-eabi/include/c++/10.3.1/bits/stl_deque.h ****  * purpose.  It is provided "as is" without express or implied warranty.
  49:/Library/DaisyToolchain/0.2.0/arm/arm-none-eabi/include/c++/10.3.1/bits/stl_deque.h ****  */
  50:/Library/DaisyToolchain/0.2.0/arm/arm-none-eabi/include/c++/10.3.1/bits/stl_deque.h **** 
  51:/Library/DaisyToolchain/0.2.0/arm/arm-none-eabi/include/c++/10.3.1/bits/stl_deque.h **** /** @file bits/stl_deque.h
  52:/Library/DaisyToolchain/0.2.0/arm/arm-none-eabi/include/c++/10.3.1/bits/stl_deque.h ****  *  This is an internal header file, included by other library headers.
  53:/Library/DaisyToolchain/0.2.0/arm/arm-none-eabi/include/c++/10.3.1/bits/stl_deque.h ****  *  Do not attempt to use it directly. @headername{deque}
ARM GAS  /var/folders/s6/2bsynnl15rj0bwtb9pgx4dc00000gn/T//cc76hY55.s 			page 53


  54:/Library/DaisyToolchain/0.2.0/arm/arm-none-eabi/include/c++/10.3.1/bits/stl_deque.h ****  */
  55:/Library/DaisyToolchain/0.2.0/arm/arm-none-eabi/include/c++/10.3.1/bits/stl_deque.h **** 
  56:/Library/DaisyToolchain/0.2.0/arm/arm-none-eabi/include/c++/10.3.1/bits/stl_deque.h **** #ifndef _STL_DEQUE_H
  57:/Library/DaisyToolchain/0.2.0/arm/arm-none-eabi/include/c++/10.3.1/bits/stl_deque.h **** #define _STL_DEQUE_H 1
  58:/Library/DaisyToolchain/0.2.0/arm/arm-none-eabi/include/c++/10.3.1/bits/stl_deque.h **** 
  59:/Library/DaisyToolchain/0.2.0/arm/arm-none-eabi/include/c++/10.3.1/bits/stl_deque.h **** #include <bits/concept_check.h>
  60:/Library/DaisyToolchain/0.2.0/arm/arm-none-eabi/include/c++/10.3.1/bits/stl_deque.h **** #include <bits/stl_iterator_base_types.h>
  61:/Library/DaisyToolchain/0.2.0/arm/arm-none-eabi/include/c++/10.3.1/bits/stl_deque.h **** #include <bits/stl_iterator_base_funcs.h>
  62:/Library/DaisyToolchain/0.2.0/arm/arm-none-eabi/include/c++/10.3.1/bits/stl_deque.h **** #if __cplusplus >= 201103L
  63:/Library/DaisyToolchain/0.2.0/arm/arm-none-eabi/include/c++/10.3.1/bits/stl_deque.h **** #include <initializer_list>
  64:/Library/DaisyToolchain/0.2.0/arm/arm-none-eabi/include/c++/10.3.1/bits/stl_deque.h **** #include <bits/stl_uninitialized.h> // for __is_bitwise_relocatable
  65:/Library/DaisyToolchain/0.2.0/arm/arm-none-eabi/include/c++/10.3.1/bits/stl_deque.h **** #endif
  66:/Library/DaisyToolchain/0.2.0/arm/arm-none-eabi/include/c++/10.3.1/bits/stl_deque.h **** #if __cplusplus > 201703L
  67:/Library/DaisyToolchain/0.2.0/arm/arm-none-eabi/include/c++/10.3.1/bits/stl_deque.h **** # include <compare>
  68:/Library/DaisyToolchain/0.2.0/arm/arm-none-eabi/include/c++/10.3.1/bits/stl_deque.h **** #endif
  69:/Library/DaisyToolchain/0.2.0/arm/arm-none-eabi/include/c++/10.3.1/bits/stl_deque.h **** 
  70:/Library/DaisyToolchain/0.2.0/arm/arm-none-eabi/include/c++/10.3.1/bits/stl_deque.h **** #include <debug/assertions.h>
  71:/Library/DaisyToolchain/0.2.0/arm/arm-none-eabi/include/c++/10.3.1/bits/stl_deque.h **** 
  72:/Library/DaisyToolchain/0.2.0/arm/arm-none-eabi/include/c++/10.3.1/bits/stl_deque.h **** namespace std _GLIBCXX_VISIBILITY(default)
  73:/Library/DaisyToolchain/0.2.0/arm/arm-none-eabi/include/c++/10.3.1/bits/stl_deque.h **** {
  74:/Library/DaisyToolchain/0.2.0/arm/arm-none-eabi/include/c++/10.3.1/bits/stl_deque.h **** _GLIBCXX_BEGIN_NAMESPACE_VERSION
  75:/Library/DaisyToolchain/0.2.0/arm/arm-none-eabi/include/c++/10.3.1/bits/stl_deque.h **** _GLIBCXX_BEGIN_NAMESPACE_CONTAINER
  76:/Library/DaisyToolchain/0.2.0/arm/arm-none-eabi/include/c++/10.3.1/bits/stl_deque.h **** 
  77:/Library/DaisyToolchain/0.2.0/arm/arm-none-eabi/include/c++/10.3.1/bits/stl_deque.h ****   /**
  78:/Library/DaisyToolchain/0.2.0/arm/arm-none-eabi/include/c++/10.3.1/bits/stl_deque.h ****    *  @brief This function controls the size of memory nodes.
  79:/Library/DaisyToolchain/0.2.0/arm/arm-none-eabi/include/c++/10.3.1/bits/stl_deque.h ****    *  @param  __size  The size of an element.
  80:/Library/DaisyToolchain/0.2.0/arm/arm-none-eabi/include/c++/10.3.1/bits/stl_deque.h ****    *  @return   The number (not byte size) of elements per node.
  81:/Library/DaisyToolchain/0.2.0/arm/arm-none-eabi/include/c++/10.3.1/bits/stl_deque.h ****    *
  82:/Library/DaisyToolchain/0.2.0/arm/arm-none-eabi/include/c++/10.3.1/bits/stl_deque.h ****    *  This function started off as a compiler kludge from SGI, but
  83:/Library/DaisyToolchain/0.2.0/arm/arm-none-eabi/include/c++/10.3.1/bits/stl_deque.h ****    *  seems to be a useful wrapper around a repeated constant
  84:/Library/DaisyToolchain/0.2.0/arm/arm-none-eabi/include/c++/10.3.1/bits/stl_deque.h ****    *  expression.  The @b 512 is tunable (and no other code needs to
  85:/Library/DaisyToolchain/0.2.0/arm/arm-none-eabi/include/c++/10.3.1/bits/stl_deque.h ****    *  change), but no investigation has been done since inheriting the
  86:/Library/DaisyToolchain/0.2.0/arm/arm-none-eabi/include/c++/10.3.1/bits/stl_deque.h ****    *  SGI code.  Touch _GLIBCXX_DEQUE_BUF_SIZE only if you know what
  87:/Library/DaisyToolchain/0.2.0/arm/arm-none-eabi/include/c++/10.3.1/bits/stl_deque.h ****    *  you are doing, however: changing it breaks the binary
  88:/Library/DaisyToolchain/0.2.0/arm/arm-none-eabi/include/c++/10.3.1/bits/stl_deque.h ****    *  compatibility!!
  89:/Library/DaisyToolchain/0.2.0/arm/arm-none-eabi/include/c++/10.3.1/bits/stl_deque.h ****   */
  90:/Library/DaisyToolchain/0.2.0/arm/arm-none-eabi/include/c++/10.3.1/bits/stl_deque.h **** 
  91:/Library/DaisyToolchain/0.2.0/arm/arm-none-eabi/include/c++/10.3.1/bits/stl_deque.h **** #ifndef _GLIBCXX_DEQUE_BUF_SIZE
  92:/Library/DaisyToolchain/0.2.0/arm/arm-none-eabi/include/c++/10.3.1/bits/stl_deque.h **** #define _GLIBCXX_DEQUE_BUF_SIZE 512
  93:/Library/DaisyToolchain/0.2.0/arm/arm-none-eabi/include/c++/10.3.1/bits/stl_deque.h **** #endif
  94:/Library/DaisyToolchain/0.2.0/arm/arm-none-eabi/include/c++/10.3.1/bits/stl_deque.h **** 
  95:/Library/DaisyToolchain/0.2.0/arm/arm-none-eabi/include/c++/10.3.1/bits/stl_deque.h ****   _GLIBCXX_CONSTEXPR inline size_t
  96:/Library/DaisyToolchain/0.2.0/arm/arm-none-eabi/include/c++/10.3.1/bits/stl_deque.h ****   __deque_buf_size(size_t __size)
  97:/Library/DaisyToolchain/0.2.0/arm/arm-none-eabi/include/c++/10.3.1/bits/stl_deque.h ****   { return (__size < _GLIBCXX_DEQUE_BUF_SIZE
  98:/Library/DaisyToolchain/0.2.0/arm/arm-none-eabi/include/c++/10.3.1/bits/stl_deque.h **** 	    ? size_t(_GLIBCXX_DEQUE_BUF_SIZE / __size) : size_t(1)); }
  99:/Library/DaisyToolchain/0.2.0/arm/arm-none-eabi/include/c++/10.3.1/bits/stl_deque.h **** 
 100:/Library/DaisyToolchain/0.2.0/arm/arm-none-eabi/include/c++/10.3.1/bits/stl_deque.h **** 
 101:/Library/DaisyToolchain/0.2.0/arm/arm-none-eabi/include/c++/10.3.1/bits/stl_deque.h ****   /**
 102:/Library/DaisyToolchain/0.2.0/arm/arm-none-eabi/include/c++/10.3.1/bits/stl_deque.h ****    *  @brief A deque::iterator.
 103:/Library/DaisyToolchain/0.2.0/arm/arm-none-eabi/include/c++/10.3.1/bits/stl_deque.h ****    *
 104:/Library/DaisyToolchain/0.2.0/arm/arm-none-eabi/include/c++/10.3.1/bits/stl_deque.h ****    *  Quite a bit of intelligence here.  Much of the functionality of
 105:/Library/DaisyToolchain/0.2.0/arm/arm-none-eabi/include/c++/10.3.1/bits/stl_deque.h ****    *  deque is actually passed off to this class.  A deque holds two
 106:/Library/DaisyToolchain/0.2.0/arm/arm-none-eabi/include/c++/10.3.1/bits/stl_deque.h ****    *  of these internally, marking its valid range.  Access to
 107:/Library/DaisyToolchain/0.2.0/arm/arm-none-eabi/include/c++/10.3.1/bits/stl_deque.h ****    *  elements is done as offsets of either of those two, relying on
 108:/Library/DaisyToolchain/0.2.0/arm/arm-none-eabi/include/c++/10.3.1/bits/stl_deque.h ****    *  operator overloading in this class.
 109:/Library/DaisyToolchain/0.2.0/arm/arm-none-eabi/include/c++/10.3.1/bits/stl_deque.h ****    *
 110:/Library/DaisyToolchain/0.2.0/arm/arm-none-eabi/include/c++/10.3.1/bits/stl_deque.h ****    *  All the functions are op overloads except for _M_set_node.
ARM GAS  /var/folders/s6/2bsynnl15rj0bwtb9pgx4dc00000gn/T//cc76hY55.s 			page 54


 111:/Library/DaisyToolchain/0.2.0/arm/arm-none-eabi/include/c++/10.3.1/bits/stl_deque.h ****   */
 112:/Library/DaisyToolchain/0.2.0/arm/arm-none-eabi/include/c++/10.3.1/bits/stl_deque.h ****   template<typename _Tp, typename _Ref, typename _Ptr>
 113:/Library/DaisyToolchain/0.2.0/arm/arm-none-eabi/include/c++/10.3.1/bits/stl_deque.h ****     struct _Deque_iterator
 114:/Library/DaisyToolchain/0.2.0/arm/arm-none-eabi/include/c++/10.3.1/bits/stl_deque.h ****     {
 115:/Library/DaisyToolchain/0.2.0/arm/arm-none-eabi/include/c++/10.3.1/bits/stl_deque.h **** #if __cplusplus < 201103L
 116:/Library/DaisyToolchain/0.2.0/arm/arm-none-eabi/include/c++/10.3.1/bits/stl_deque.h ****       typedef _Deque_iterator<_Tp, _Tp&, _Tp*>		   iterator;
 117:/Library/DaisyToolchain/0.2.0/arm/arm-none-eabi/include/c++/10.3.1/bits/stl_deque.h ****       typedef _Deque_iterator<_Tp, const _Tp&, const _Tp*> const_iterator;
 118:/Library/DaisyToolchain/0.2.0/arm/arm-none-eabi/include/c++/10.3.1/bits/stl_deque.h ****       typedef _Tp*					   _Elt_pointer;
 119:/Library/DaisyToolchain/0.2.0/arm/arm-none-eabi/include/c++/10.3.1/bits/stl_deque.h ****       typedef _Tp**					   _Map_pointer;
 120:/Library/DaisyToolchain/0.2.0/arm/arm-none-eabi/include/c++/10.3.1/bits/stl_deque.h **** #else
 121:/Library/DaisyToolchain/0.2.0/arm/arm-none-eabi/include/c++/10.3.1/bits/stl_deque.h ****     private:
 122:/Library/DaisyToolchain/0.2.0/arm/arm-none-eabi/include/c++/10.3.1/bits/stl_deque.h ****       template<typename _CvTp>
 123:/Library/DaisyToolchain/0.2.0/arm/arm-none-eabi/include/c++/10.3.1/bits/stl_deque.h **** 	using __iter = _Deque_iterator<_Tp, _CvTp&, __ptr_rebind<_Ptr, _CvTp>>;
 124:/Library/DaisyToolchain/0.2.0/arm/arm-none-eabi/include/c++/10.3.1/bits/stl_deque.h ****     public:
 125:/Library/DaisyToolchain/0.2.0/arm/arm-none-eabi/include/c++/10.3.1/bits/stl_deque.h ****       typedef __iter<_Tp>				   iterator;
 126:/Library/DaisyToolchain/0.2.0/arm/arm-none-eabi/include/c++/10.3.1/bits/stl_deque.h ****       typedef __iter<const _Tp>				   const_iterator;
 127:/Library/DaisyToolchain/0.2.0/arm/arm-none-eabi/include/c++/10.3.1/bits/stl_deque.h ****       typedef __ptr_rebind<_Ptr, _Tp>			   _Elt_pointer;
 128:/Library/DaisyToolchain/0.2.0/arm/arm-none-eabi/include/c++/10.3.1/bits/stl_deque.h ****       typedef __ptr_rebind<_Ptr, _Elt_pointer>		   _Map_pointer;
 129:/Library/DaisyToolchain/0.2.0/arm/arm-none-eabi/include/c++/10.3.1/bits/stl_deque.h **** #endif
 130:/Library/DaisyToolchain/0.2.0/arm/arm-none-eabi/include/c++/10.3.1/bits/stl_deque.h **** 
 131:/Library/DaisyToolchain/0.2.0/arm/arm-none-eabi/include/c++/10.3.1/bits/stl_deque.h ****       static size_t _S_buffer_size() _GLIBCXX_NOEXCEPT
 132:/Library/DaisyToolchain/0.2.0/arm/arm-none-eabi/include/c++/10.3.1/bits/stl_deque.h ****       { return __deque_buf_size(sizeof(_Tp)); }
 133:/Library/DaisyToolchain/0.2.0/arm/arm-none-eabi/include/c++/10.3.1/bits/stl_deque.h **** 
 134:/Library/DaisyToolchain/0.2.0/arm/arm-none-eabi/include/c++/10.3.1/bits/stl_deque.h ****       typedef std::random_access_iterator_tag	iterator_category;
 135:/Library/DaisyToolchain/0.2.0/arm/arm-none-eabi/include/c++/10.3.1/bits/stl_deque.h ****       typedef _Tp				value_type;
 136:/Library/DaisyToolchain/0.2.0/arm/arm-none-eabi/include/c++/10.3.1/bits/stl_deque.h ****       typedef _Ptr				pointer;
 137:/Library/DaisyToolchain/0.2.0/arm/arm-none-eabi/include/c++/10.3.1/bits/stl_deque.h ****       typedef _Ref				reference;
 138:/Library/DaisyToolchain/0.2.0/arm/arm-none-eabi/include/c++/10.3.1/bits/stl_deque.h ****       typedef size_t				size_type;
 139:/Library/DaisyToolchain/0.2.0/arm/arm-none-eabi/include/c++/10.3.1/bits/stl_deque.h ****       typedef ptrdiff_t				difference_type;
 140:/Library/DaisyToolchain/0.2.0/arm/arm-none-eabi/include/c++/10.3.1/bits/stl_deque.h ****       typedef _Deque_iterator			_Self;
 141:/Library/DaisyToolchain/0.2.0/arm/arm-none-eabi/include/c++/10.3.1/bits/stl_deque.h **** 
 142:/Library/DaisyToolchain/0.2.0/arm/arm-none-eabi/include/c++/10.3.1/bits/stl_deque.h ****       _Elt_pointer _M_cur;
 143:/Library/DaisyToolchain/0.2.0/arm/arm-none-eabi/include/c++/10.3.1/bits/stl_deque.h ****       _Elt_pointer _M_first;
 144:/Library/DaisyToolchain/0.2.0/arm/arm-none-eabi/include/c++/10.3.1/bits/stl_deque.h ****       _Elt_pointer _M_last;
 145:/Library/DaisyToolchain/0.2.0/arm/arm-none-eabi/include/c++/10.3.1/bits/stl_deque.h ****       _Map_pointer _M_node;
 146:/Library/DaisyToolchain/0.2.0/arm/arm-none-eabi/include/c++/10.3.1/bits/stl_deque.h **** 
 147:/Library/DaisyToolchain/0.2.0/arm/arm-none-eabi/include/c++/10.3.1/bits/stl_deque.h ****       _Deque_iterator(_Elt_pointer __x, _Map_pointer __y) _GLIBCXX_NOEXCEPT
 148:/Library/DaisyToolchain/0.2.0/arm/arm-none-eabi/include/c++/10.3.1/bits/stl_deque.h ****       : _M_cur(__x), _M_first(*__y),
 149:/Library/DaisyToolchain/0.2.0/arm/arm-none-eabi/include/c++/10.3.1/bits/stl_deque.h **** 	_M_last(*__y + _S_buffer_size()), _M_node(__y) { }
 150:/Library/DaisyToolchain/0.2.0/arm/arm-none-eabi/include/c++/10.3.1/bits/stl_deque.h **** 
 151:/Library/DaisyToolchain/0.2.0/arm/arm-none-eabi/include/c++/10.3.1/bits/stl_deque.h ****       _Deque_iterator() _GLIBCXX_NOEXCEPT
 152:/Library/DaisyToolchain/0.2.0/arm/arm-none-eabi/include/c++/10.3.1/bits/stl_deque.h ****       : _M_cur(), _M_first(), _M_last(), _M_node() { }
 153:/Library/DaisyToolchain/0.2.0/arm/arm-none-eabi/include/c++/10.3.1/bits/stl_deque.h **** 
 154:/Library/DaisyToolchain/0.2.0/arm/arm-none-eabi/include/c++/10.3.1/bits/stl_deque.h **** #if __cplusplus < 201103L
 155:/Library/DaisyToolchain/0.2.0/arm/arm-none-eabi/include/c++/10.3.1/bits/stl_deque.h ****       // Conversion from iterator to const_iterator.
 156:/Library/DaisyToolchain/0.2.0/arm/arm-none-eabi/include/c++/10.3.1/bits/stl_deque.h ****       _Deque_iterator(const iterator& __x) _GLIBCXX_NOEXCEPT
 157:/Library/DaisyToolchain/0.2.0/arm/arm-none-eabi/include/c++/10.3.1/bits/stl_deque.h ****       : _M_cur(__x._M_cur), _M_first(__x._M_first),
 158:/Library/DaisyToolchain/0.2.0/arm/arm-none-eabi/include/c++/10.3.1/bits/stl_deque.h **** 	_M_last(__x._M_last), _M_node(__x._M_node) { }
 159:/Library/DaisyToolchain/0.2.0/arm/arm-none-eabi/include/c++/10.3.1/bits/stl_deque.h **** #else
 160:/Library/DaisyToolchain/0.2.0/arm/arm-none-eabi/include/c++/10.3.1/bits/stl_deque.h ****       // Conversion from iterator to const_iterator.
 161:/Library/DaisyToolchain/0.2.0/arm/arm-none-eabi/include/c++/10.3.1/bits/stl_deque.h ****       template<typename _Iter,
 162:/Library/DaisyToolchain/0.2.0/arm/arm-none-eabi/include/c++/10.3.1/bits/stl_deque.h **** 	       typename = _Require<is_same<_Self, const_iterator>,
 163:/Library/DaisyToolchain/0.2.0/arm/arm-none-eabi/include/c++/10.3.1/bits/stl_deque.h **** 				   is_same<_Iter, iterator>>>
 164:/Library/DaisyToolchain/0.2.0/arm/arm-none-eabi/include/c++/10.3.1/bits/stl_deque.h ****        _Deque_iterator(const _Iter& __x) noexcept
 165:/Library/DaisyToolchain/0.2.0/arm/arm-none-eabi/include/c++/10.3.1/bits/stl_deque.h ****        : _M_cur(__x._M_cur), _M_first(__x._M_first),
 166:/Library/DaisyToolchain/0.2.0/arm/arm-none-eabi/include/c++/10.3.1/bits/stl_deque.h **** 	 _M_last(__x._M_last), _M_node(__x._M_node) { }
 167:/Library/DaisyToolchain/0.2.0/arm/arm-none-eabi/include/c++/10.3.1/bits/stl_deque.h **** 
ARM GAS  /var/folders/s6/2bsynnl15rj0bwtb9pgx4dc00000gn/T//cc76hY55.s 			page 55


 168:/Library/DaisyToolchain/0.2.0/arm/arm-none-eabi/include/c++/10.3.1/bits/stl_deque.h ****       _Deque_iterator(const _Deque_iterator& __x) noexcept
 169:/Library/DaisyToolchain/0.2.0/arm/arm-none-eabi/include/c++/10.3.1/bits/stl_deque.h ****        : _M_cur(__x._M_cur), _M_first(__x._M_first),
 170:/Library/DaisyToolchain/0.2.0/arm/arm-none-eabi/include/c++/10.3.1/bits/stl_deque.h **** 	 _M_last(__x._M_last), _M_node(__x._M_node) { }
 171:/Library/DaisyToolchain/0.2.0/arm/arm-none-eabi/include/c++/10.3.1/bits/stl_deque.h **** 
 172:/Library/DaisyToolchain/0.2.0/arm/arm-none-eabi/include/c++/10.3.1/bits/stl_deque.h ****       _Deque_iterator& operator=(const _Deque_iterator&) = default;
 173:/Library/DaisyToolchain/0.2.0/arm/arm-none-eabi/include/c++/10.3.1/bits/stl_deque.h **** #endif
 174:/Library/DaisyToolchain/0.2.0/arm/arm-none-eabi/include/c++/10.3.1/bits/stl_deque.h **** 
 175:/Library/DaisyToolchain/0.2.0/arm/arm-none-eabi/include/c++/10.3.1/bits/stl_deque.h ****       iterator
 176:/Library/DaisyToolchain/0.2.0/arm/arm-none-eabi/include/c++/10.3.1/bits/stl_deque.h ****       _M_const_cast() const _GLIBCXX_NOEXCEPT
 177:/Library/DaisyToolchain/0.2.0/arm/arm-none-eabi/include/c++/10.3.1/bits/stl_deque.h ****       { return iterator(_M_cur, _M_node); }
 178:/Library/DaisyToolchain/0.2.0/arm/arm-none-eabi/include/c++/10.3.1/bits/stl_deque.h **** 
 179:/Library/DaisyToolchain/0.2.0/arm/arm-none-eabi/include/c++/10.3.1/bits/stl_deque.h ****       reference
 180:/Library/DaisyToolchain/0.2.0/arm/arm-none-eabi/include/c++/10.3.1/bits/stl_deque.h ****       operator*() const _GLIBCXX_NOEXCEPT
 181:/Library/DaisyToolchain/0.2.0/arm/arm-none-eabi/include/c++/10.3.1/bits/stl_deque.h ****       { return *_M_cur; }
 182:/Library/DaisyToolchain/0.2.0/arm/arm-none-eabi/include/c++/10.3.1/bits/stl_deque.h **** 
 183:/Library/DaisyToolchain/0.2.0/arm/arm-none-eabi/include/c++/10.3.1/bits/stl_deque.h ****       pointer
 184:/Library/DaisyToolchain/0.2.0/arm/arm-none-eabi/include/c++/10.3.1/bits/stl_deque.h ****       operator->() const _GLIBCXX_NOEXCEPT
 185:/Library/DaisyToolchain/0.2.0/arm/arm-none-eabi/include/c++/10.3.1/bits/stl_deque.h ****       { return _M_cur; }
 186:/Library/DaisyToolchain/0.2.0/arm/arm-none-eabi/include/c++/10.3.1/bits/stl_deque.h **** 
 187:/Library/DaisyToolchain/0.2.0/arm/arm-none-eabi/include/c++/10.3.1/bits/stl_deque.h ****       _Self&
 188:/Library/DaisyToolchain/0.2.0/arm/arm-none-eabi/include/c++/10.3.1/bits/stl_deque.h ****       operator++() _GLIBCXX_NOEXCEPT
 189:/Library/DaisyToolchain/0.2.0/arm/arm-none-eabi/include/c++/10.3.1/bits/stl_deque.h ****       {
 190:/Library/DaisyToolchain/0.2.0/arm/arm-none-eabi/include/c++/10.3.1/bits/stl_deque.h **** 	++_M_cur;
 191:/Library/DaisyToolchain/0.2.0/arm/arm-none-eabi/include/c++/10.3.1/bits/stl_deque.h **** 	if (_M_cur == _M_last)
 192:/Library/DaisyToolchain/0.2.0/arm/arm-none-eabi/include/c++/10.3.1/bits/stl_deque.h **** 	  {
 193:/Library/DaisyToolchain/0.2.0/arm/arm-none-eabi/include/c++/10.3.1/bits/stl_deque.h **** 	    _M_set_node(_M_node + 1);
 194:/Library/DaisyToolchain/0.2.0/arm/arm-none-eabi/include/c++/10.3.1/bits/stl_deque.h **** 	    _M_cur = _M_first;
 195:/Library/DaisyToolchain/0.2.0/arm/arm-none-eabi/include/c++/10.3.1/bits/stl_deque.h **** 	  }
 196:/Library/DaisyToolchain/0.2.0/arm/arm-none-eabi/include/c++/10.3.1/bits/stl_deque.h **** 	return *this;
 197:/Library/DaisyToolchain/0.2.0/arm/arm-none-eabi/include/c++/10.3.1/bits/stl_deque.h ****       }
 198:/Library/DaisyToolchain/0.2.0/arm/arm-none-eabi/include/c++/10.3.1/bits/stl_deque.h **** 
 199:/Library/DaisyToolchain/0.2.0/arm/arm-none-eabi/include/c++/10.3.1/bits/stl_deque.h ****       _Self
 200:/Library/DaisyToolchain/0.2.0/arm/arm-none-eabi/include/c++/10.3.1/bits/stl_deque.h ****       operator++(int) _GLIBCXX_NOEXCEPT
 201:/Library/DaisyToolchain/0.2.0/arm/arm-none-eabi/include/c++/10.3.1/bits/stl_deque.h ****       {
 202:/Library/DaisyToolchain/0.2.0/arm/arm-none-eabi/include/c++/10.3.1/bits/stl_deque.h **** 	_Self __tmp = *this;
 203:/Library/DaisyToolchain/0.2.0/arm/arm-none-eabi/include/c++/10.3.1/bits/stl_deque.h **** 	++*this;
 204:/Library/DaisyToolchain/0.2.0/arm/arm-none-eabi/include/c++/10.3.1/bits/stl_deque.h **** 	return __tmp;
 205:/Library/DaisyToolchain/0.2.0/arm/arm-none-eabi/include/c++/10.3.1/bits/stl_deque.h ****       }
 206:/Library/DaisyToolchain/0.2.0/arm/arm-none-eabi/include/c++/10.3.1/bits/stl_deque.h **** 
 207:/Library/DaisyToolchain/0.2.0/arm/arm-none-eabi/include/c++/10.3.1/bits/stl_deque.h ****       _Self&
 208:/Library/DaisyToolchain/0.2.0/arm/arm-none-eabi/include/c++/10.3.1/bits/stl_deque.h ****       operator--() _GLIBCXX_NOEXCEPT
 209:/Library/DaisyToolchain/0.2.0/arm/arm-none-eabi/include/c++/10.3.1/bits/stl_deque.h ****       {
 210:/Library/DaisyToolchain/0.2.0/arm/arm-none-eabi/include/c++/10.3.1/bits/stl_deque.h **** 	if (_M_cur == _M_first)
 211:/Library/DaisyToolchain/0.2.0/arm/arm-none-eabi/include/c++/10.3.1/bits/stl_deque.h **** 	  {
 212:/Library/DaisyToolchain/0.2.0/arm/arm-none-eabi/include/c++/10.3.1/bits/stl_deque.h **** 	    _M_set_node(_M_node - 1);
 213:/Library/DaisyToolchain/0.2.0/arm/arm-none-eabi/include/c++/10.3.1/bits/stl_deque.h **** 	    _M_cur = _M_last;
 214:/Library/DaisyToolchain/0.2.0/arm/arm-none-eabi/include/c++/10.3.1/bits/stl_deque.h **** 	  }
 215:/Library/DaisyToolchain/0.2.0/arm/arm-none-eabi/include/c++/10.3.1/bits/stl_deque.h **** 	--_M_cur;
 216:/Library/DaisyToolchain/0.2.0/arm/arm-none-eabi/include/c++/10.3.1/bits/stl_deque.h **** 	return *this;
 217:/Library/DaisyToolchain/0.2.0/arm/arm-none-eabi/include/c++/10.3.1/bits/stl_deque.h ****       }
 218:/Library/DaisyToolchain/0.2.0/arm/arm-none-eabi/include/c++/10.3.1/bits/stl_deque.h **** 
 219:/Library/DaisyToolchain/0.2.0/arm/arm-none-eabi/include/c++/10.3.1/bits/stl_deque.h ****       _Self
 220:/Library/DaisyToolchain/0.2.0/arm/arm-none-eabi/include/c++/10.3.1/bits/stl_deque.h ****       operator--(int) _GLIBCXX_NOEXCEPT
 221:/Library/DaisyToolchain/0.2.0/arm/arm-none-eabi/include/c++/10.3.1/bits/stl_deque.h ****       {
 222:/Library/DaisyToolchain/0.2.0/arm/arm-none-eabi/include/c++/10.3.1/bits/stl_deque.h **** 	_Self __tmp = *this;
 223:/Library/DaisyToolchain/0.2.0/arm/arm-none-eabi/include/c++/10.3.1/bits/stl_deque.h **** 	--*this;
 224:/Library/DaisyToolchain/0.2.0/arm/arm-none-eabi/include/c++/10.3.1/bits/stl_deque.h **** 	return __tmp;
ARM GAS  /var/folders/s6/2bsynnl15rj0bwtb9pgx4dc00000gn/T//cc76hY55.s 			page 56


 225:/Library/DaisyToolchain/0.2.0/arm/arm-none-eabi/include/c++/10.3.1/bits/stl_deque.h ****       }
 226:/Library/DaisyToolchain/0.2.0/arm/arm-none-eabi/include/c++/10.3.1/bits/stl_deque.h **** 
 227:/Library/DaisyToolchain/0.2.0/arm/arm-none-eabi/include/c++/10.3.1/bits/stl_deque.h ****       _Self&
 228:/Library/DaisyToolchain/0.2.0/arm/arm-none-eabi/include/c++/10.3.1/bits/stl_deque.h ****       operator+=(difference_type __n) _GLIBCXX_NOEXCEPT
 229:/Library/DaisyToolchain/0.2.0/arm/arm-none-eabi/include/c++/10.3.1/bits/stl_deque.h ****       {
 230:/Library/DaisyToolchain/0.2.0/arm/arm-none-eabi/include/c++/10.3.1/bits/stl_deque.h **** 	const difference_type __offset = __n + (_M_cur - _M_first);
 231:/Library/DaisyToolchain/0.2.0/arm/arm-none-eabi/include/c++/10.3.1/bits/stl_deque.h **** 	if (__offset >= 0 && __offset < difference_type(_S_buffer_size()))
 232:/Library/DaisyToolchain/0.2.0/arm/arm-none-eabi/include/c++/10.3.1/bits/stl_deque.h **** 	  _M_cur += __n;
 233:/Library/DaisyToolchain/0.2.0/arm/arm-none-eabi/include/c++/10.3.1/bits/stl_deque.h **** 	else
 234:/Library/DaisyToolchain/0.2.0/arm/arm-none-eabi/include/c++/10.3.1/bits/stl_deque.h **** 	  {
 235:/Library/DaisyToolchain/0.2.0/arm/arm-none-eabi/include/c++/10.3.1/bits/stl_deque.h **** 	    const difference_type __node_offset =
 236:/Library/DaisyToolchain/0.2.0/arm/arm-none-eabi/include/c++/10.3.1/bits/stl_deque.h **** 	      __offset > 0 ? __offset / difference_type(_S_buffer_size())
 237:/Library/DaisyToolchain/0.2.0/arm/arm-none-eabi/include/c++/10.3.1/bits/stl_deque.h **** 			   : -difference_type((-__offset - 1)
 238:/Library/DaisyToolchain/0.2.0/arm/arm-none-eabi/include/c++/10.3.1/bits/stl_deque.h **** 					      / _S_buffer_size()) - 1;
 239:/Library/DaisyToolchain/0.2.0/arm/arm-none-eabi/include/c++/10.3.1/bits/stl_deque.h **** 	    _M_set_node(_M_node + __node_offset);
 240:/Library/DaisyToolchain/0.2.0/arm/arm-none-eabi/include/c++/10.3.1/bits/stl_deque.h **** 	    _M_cur = _M_first + (__offset - __node_offset
 241:/Library/DaisyToolchain/0.2.0/arm/arm-none-eabi/include/c++/10.3.1/bits/stl_deque.h **** 				 * difference_type(_S_buffer_size()));
 242:/Library/DaisyToolchain/0.2.0/arm/arm-none-eabi/include/c++/10.3.1/bits/stl_deque.h **** 	  }
 243:/Library/DaisyToolchain/0.2.0/arm/arm-none-eabi/include/c++/10.3.1/bits/stl_deque.h **** 	return *this;
 244:/Library/DaisyToolchain/0.2.0/arm/arm-none-eabi/include/c++/10.3.1/bits/stl_deque.h ****       }
 245:/Library/DaisyToolchain/0.2.0/arm/arm-none-eabi/include/c++/10.3.1/bits/stl_deque.h **** 
 246:/Library/DaisyToolchain/0.2.0/arm/arm-none-eabi/include/c++/10.3.1/bits/stl_deque.h ****       _Self&
 247:/Library/DaisyToolchain/0.2.0/arm/arm-none-eabi/include/c++/10.3.1/bits/stl_deque.h ****       operator-=(difference_type __n) _GLIBCXX_NOEXCEPT
 248:/Library/DaisyToolchain/0.2.0/arm/arm-none-eabi/include/c++/10.3.1/bits/stl_deque.h ****       { return *this += -__n; }
 249:/Library/DaisyToolchain/0.2.0/arm/arm-none-eabi/include/c++/10.3.1/bits/stl_deque.h **** 
 250:/Library/DaisyToolchain/0.2.0/arm/arm-none-eabi/include/c++/10.3.1/bits/stl_deque.h ****       reference
 251:/Library/DaisyToolchain/0.2.0/arm/arm-none-eabi/include/c++/10.3.1/bits/stl_deque.h ****       operator[](difference_type __n) const _GLIBCXX_NOEXCEPT
 252:/Library/DaisyToolchain/0.2.0/arm/arm-none-eabi/include/c++/10.3.1/bits/stl_deque.h ****       { return *(*this + __n); }
 253:/Library/DaisyToolchain/0.2.0/arm/arm-none-eabi/include/c++/10.3.1/bits/stl_deque.h **** 
 254:/Library/DaisyToolchain/0.2.0/arm/arm-none-eabi/include/c++/10.3.1/bits/stl_deque.h ****       /**
 255:/Library/DaisyToolchain/0.2.0/arm/arm-none-eabi/include/c++/10.3.1/bits/stl_deque.h ****        *  Prepares to traverse new_node.  Sets everything except
 256:/Library/DaisyToolchain/0.2.0/arm/arm-none-eabi/include/c++/10.3.1/bits/stl_deque.h ****        *  _M_cur, which should therefore be set by the caller
 257:/Library/DaisyToolchain/0.2.0/arm/arm-none-eabi/include/c++/10.3.1/bits/stl_deque.h ****        *  immediately afterwards, based on _M_first and _M_last.
 258:/Library/DaisyToolchain/0.2.0/arm/arm-none-eabi/include/c++/10.3.1/bits/stl_deque.h ****        */
 259:/Library/DaisyToolchain/0.2.0/arm/arm-none-eabi/include/c++/10.3.1/bits/stl_deque.h ****       void
 260:/Library/DaisyToolchain/0.2.0/arm/arm-none-eabi/include/c++/10.3.1/bits/stl_deque.h ****       _M_set_node(_Map_pointer __new_node) _GLIBCXX_NOEXCEPT
 261:/Library/DaisyToolchain/0.2.0/arm/arm-none-eabi/include/c++/10.3.1/bits/stl_deque.h ****       {
 262:/Library/DaisyToolchain/0.2.0/arm/arm-none-eabi/include/c++/10.3.1/bits/stl_deque.h **** 	_M_node = __new_node;
 263:/Library/DaisyToolchain/0.2.0/arm/arm-none-eabi/include/c++/10.3.1/bits/stl_deque.h **** 	_M_first = *__new_node;
 264:/Library/DaisyToolchain/0.2.0/arm/arm-none-eabi/include/c++/10.3.1/bits/stl_deque.h **** 	_M_last = _M_first + difference_type(_S_buffer_size());
 265:/Library/DaisyToolchain/0.2.0/arm/arm-none-eabi/include/c++/10.3.1/bits/stl_deque.h ****       }
 266:/Library/DaisyToolchain/0.2.0/arm/arm-none-eabi/include/c++/10.3.1/bits/stl_deque.h **** 
 267:/Library/DaisyToolchain/0.2.0/arm/arm-none-eabi/include/c++/10.3.1/bits/stl_deque.h ****       friend bool
 268:/Library/DaisyToolchain/0.2.0/arm/arm-none-eabi/include/c++/10.3.1/bits/stl_deque.h ****       operator==(const _Self& __x, const _Self& __y) _GLIBCXX_NOEXCEPT
 269:/Library/DaisyToolchain/0.2.0/arm/arm-none-eabi/include/c++/10.3.1/bits/stl_deque.h ****       { return __x._M_cur == __y._M_cur; }
 270:/Library/DaisyToolchain/0.2.0/arm/arm-none-eabi/include/c++/10.3.1/bits/stl_deque.h **** 
 271:/Library/DaisyToolchain/0.2.0/arm/arm-none-eabi/include/c++/10.3.1/bits/stl_deque.h ****       // Note: we also provide overloads whose operands are of the same type in
 272:/Library/DaisyToolchain/0.2.0/arm/arm-none-eabi/include/c++/10.3.1/bits/stl_deque.h ****       // order to avoid ambiguous overload resolution when std::rel_ops
 273:/Library/DaisyToolchain/0.2.0/arm/arm-none-eabi/include/c++/10.3.1/bits/stl_deque.h ****       // operators are in scope (for additional details, see libstdc++/3628)
 274:/Library/DaisyToolchain/0.2.0/arm/arm-none-eabi/include/c++/10.3.1/bits/stl_deque.h ****       template<typename _RefR, typename _PtrR>
 275:/Library/DaisyToolchain/0.2.0/arm/arm-none-eabi/include/c++/10.3.1/bits/stl_deque.h **** 	friend bool
 276:/Library/DaisyToolchain/0.2.0/arm/arm-none-eabi/include/c++/10.3.1/bits/stl_deque.h **** 	operator==(const _Self& __x,
 277:/Library/DaisyToolchain/0.2.0/arm/arm-none-eabi/include/c++/10.3.1/bits/stl_deque.h **** 		   const _Deque_iterator<_Tp, _RefR, _PtrR>& __y)
 278:/Library/DaisyToolchain/0.2.0/arm/arm-none-eabi/include/c++/10.3.1/bits/stl_deque.h **** 	_GLIBCXX_NOEXCEPT
 279:/Library/DaisyToolchain/0.2.0/arm/arm-none-eabi/include/c++/10.3.1/bits/stl_deque.h **** 	{ return __x._M_cur == __y._M_cur; }
 280:/Library/DaisyToolchain/0.2.0/arm/arm-none-eabi/include/c++/10.3.1/bits/stl_deque.h **** 
 281:/Library/DaisyToolchain/0.2.0/arm/arm-none-eabi/include/c++/10.3.1/bits/stl_deque.h **** #if __cpp_lib_three_way_comparison
ARM GAS  /var/folders/s6/2bsynnl15rj0bwtb9pgx4dc00000gn/T//cc76hY55.s 			page 57


 282:/Library/DaisyToolchain/0.2.0/arm/arm-none-eabi/include/c++/10.3.1/bits/stl_deque.h ****       friend strong_ordering
 283:/Library/DaisyToolchain/0.2.0/arm/arm-none-eabi/include/c++/10.3.1/bits/stl_deque.h ****       operator<=>(const _Self& __x, const _Self& __y) noexcept
 284:/Library/DaisyToolchain/0.2.0/arm/arm-none-eabi/include/c++/10.3.1/bits/stl_deque.h ****       {
 285:/Library/DaisyToolchain/0.2.0/arm/arm-none-eabi/include/c++/10.3.1/bits/stl_deque.h **** 	if (const auto __cmp = __x._M_node <=> __y._M_node; __cmp != 0)
 286:/Library/DaisyToolchain/0.2.0/arm/arm-none-eabi/include/c++/10.3.1/bits/stl_deque.h **** 	  return __cmp;
 287:/Library/DaisyToolchain/0.2.0/arm/arm-none-eabi/include/c++/10.3.1/bits/stl_deque.h **** 	return __x._M_cur <=> __y._M_cur;
 288:/Library/DaisyToolchain/0.2.0/arm/arm-none-eabi/include/c++/10.3.1/bits/stl_deque.h ****       }
 289:/Library/DaisyToolchain/0.2.0/arm/arm-none-eabi/include/c++/10.3.1/bits/stl_deque.h **** #else
 290:/Library/DaisyToolchain/0.2.0/arm/arm-none-eabi/include/c++/10.3.1/bits/stl_deque.h ****       friend bool
 291:/Library/DaisyToolchain/0.2.0/arm/arm-none-eabi/include/c++/10.3.1/bits/stl_deque.h ****       operator!=(const _Self& __x, const _Self& __y) _GLIBCXX_NOEXCEPT
 292:/Library/DaisyToolchain/0.2.0/arm/arm-none-eabi/include/c++/10.3.1/bits/stl_deque.h ****       { return !(__x == __y); }
 293:/Library/DaisyToolchain/0.2.0/arm/arm-none-eabi/include/c++/10.3.1/bits/stl_deque.h **** 
 294:/Library/DaisyToolchain/0.2.0/arm/arm-none-eabi/include/c++/10.3.1/bits/stl_deque.h ****       template<typename _RefR, typename _PtrR>
 295:/Library/DaisyToolchain/0.2.0/arm/arm-none-eabi/include/c++/10.3.1/bits/stl_deque.h **** 	friend bool
 296:/Library/DaisyToolchain/0.2.0/arm/arm-none-eabi/include/c++/10.3.1/bits/stl_deque.h **** 	operator!=(const _Self& __x,
 297:/Library/DaisyToolchain/0.2.0/arm/arm-none-eabi/include/c++/10.3.1/bits/stl_deque.h **** 		   const _Deque_iterator<_Tp, _RefR, _PtrR>& __y)
 298:/Library/DaisyToolchain/0.2.0/arm/arm-none-eabi/include/c++/10.3.1/bits/stl_deque.h **** 	_GLIBCXX_NOEXCEPT
 299:/Library/DaisyToolchain/0.2.0/arm/arm-none-eabi/include/c++/10.3.1/bits/stl_deque.h **** 	{ return !(__x == __y); }
 300:/Library/DaisyToolchain/0.2.0/arm/arm-none-eabi/include/c++/10.3.1/bits/stl_deque.h **** 
 301:/Library/DaisyToolchain/0.2.0/arm/arm-none-eabi/include/c++/10.3.1/bits/stl_deque.h ****       friend bool
 302:/Library/DaisyToolchain/0.2.0/arm/arm-none-eabi/include/c++/10.3.1/bits/stl_deque.h ****       operator<(const _Self& __x, const _Self& __y) _GLIBCXX_NOEXCEPT
 303:/Library/DaisyToolchain/0.2.0/arm/arm-none-eabi/include/c++/10.3.1/bits/stl_deque.h ****       {
 304:/Library/DaisyToolchain/0.2.0/arm/arm-none-eabi/include/c++/10.3.1/bits/stl_deque.h **** 	return (__x._M_node == __y._M_node)
 305:/Library/DaisyToolchain/0.2.0/arm/arm-none-eabi/include/c++/10.3.1/bits/stl_deque.h **** 	  ? (__x._M_cur < __y._M_cur) : (__x._M_node < __y._M_node);
 306:/Library/DaisyToolchain/0.2.0/arm/arm-none-eabi/include/c++/10.3.1/bits/stl_deque.h ****       }
 307:/Library/DaisyToolchain/0.2.0/arm/arm-none-eabi/include/c++/10.3.1/bits/stl_deque.h **** 
 308:/Library/DaisyToolchain/0.2.0/arm/arm-none-eabi/include/c++/10.3.1/bits/stl_deque.h ****       template<typename _RefR, typename _PtrR>
 309:/Library/DaisyToolchain/0.2.0/arm/arm-none-eabi/include/c++/10.3.1/bits/stl_deque.h **** 	friend bool
 310:/Library/DaisyToolchain/0.2.0/arm/arm-none-eabi/include/c++/10.3.1/bits/stl_deque.h **** 	operator<(const _Self& __x,
 311:/Library/DaisyToolchain/0.2.0/arm/arm-none-eabi/include/c++/10.3.1/bits/stl_deque.h **** 		  const _Deque_iterator<_Tp, _RefR, _PtrR>& __y)
 312:/Library/DaisyToolchain/0.2.0/arm/arm-none-eabi/include/c++/10.3.1/bits/stl_deque.h **** 	_GLIBCXX_NOEXCEPT
 313:/Library/DaisyToolchain/0.2.0/arm/arm-none-eabi/include/c++/10.3.1/bits/stl_deque.h **** 	{
 314:/Library/DaisyToolchain/0.2.0/arm/arm-none-eabi/include/c++/10.3.1/bits/stl_deque.h **** 	  return (__x._M_node == __y._M_node)
 315:/Library/DaisyToolchain/0.2.0/arm/arm-none-eabi/include/c++/10.3.1/bits/stl_deque.h **** 	    ? (__x._M_cur < __y._M_cur) : (__x._M_node < __y._M_node);
 316:/Library/DaisyToolchain/0.2.0/arm/arm-none-eabi/include/c++/10.3.1/bits/stl_deque.h **** 	}
 317:/Library/DaisyToolchain/0.2.0/arm/arm-none-eabi/include/c++/10.3.1/bits/stl_deque.h **** 
 318:/Library/DaisyToolchain/0.2.0/arm/arm-none-eabi/include/c++/10.3.1/bits/stl_deque.h ****       friend bool
 319:/Library/DaisyToolchain/0.2.0/arm/arm-none-eabi/include/c++/10.3.1/bits/stl_deque.h ****       operator>(const _Self& __x, const _Self& __y) _GLIBCXX_NOEXCEPT
 320:/Library/DaisyToolchain/0.2.0/arm/arm-none-eabi/include/c++/10.3.1/bits/stl_deque.h ****       { return __y < __x; }
 321:/Library/DaisyToolchain/0.2.0/arm/arm-none-eabi/include/c++/10.3.1/bits/stl_deque.h **** 
 322:/Library/DaisyToolchain/0.2.0/arm/arm-none-eabi/include/c++/10.3.1/bits/stl_deque.h ****       template<typename _RefR, typename _PtrR>
 323:/Library/DaisyToolchain/0.2.0/arm/arm-none-eabi/include/c++/10.3.1/bits/stl_deque.h **** 	friend bool
 324:/Library/DaisyToolchain/0.2.0/arm/arm-none-eabi/include/c++/10.3.1/bits/stl_deque.h **** 	operator>(const _Self& __x,
 325:/Library/DaisyToolchain/0.2.0/arm/arm-none-eabi/include/c++/10.3.1/bits/stl_deque.h **** 		  const _Deque_iterator<_Tp, _RefR, _PtrR>& __y)
 326:/Library/DaisyToolchain/0.2.0/arm/arm-none-eabi/include/c++/10.3.1/bits/stl_deque.h **** 	_GLIBCXX_NOEXCEPT
 327:/Library/DaisyToolchain/0.2.0/arm/arm-none-eabi/include/c++/10.3.1/bits/stl_deque.h **** 	{ return __y < __x; }
 328:/Library/DaisyToolchain/0.2.0/arm/arm-none-eabi/include/c++/10.3.1/bits/stl_deque.h **** 
 329:/Library/DaisyToolchain/0.2.0/arm/arm-none-eabi/include/c++/10.3.1/bits/stl_deque.h ****       friend bool
 330:/Library/DaisyToolchain/0.2.0/arm/arm-none-eabi/include/c++/10.3.1/bits/stl_deque.h ****       operator<=(const _Self& __x, const _Self& __y) _GLIBCXX_NOEXCEPT
 331:/Library/DaisyToolchain/0.2.0/arm/arm-none-eabi/include/c++/10.3.1/bits/stl_deque.h ****       { return !(__y < __x); }
 332:/Library/DaisyToolchain/0.2.0/arm/arm-none-eabi/include/c++/10.3.1/bits/stl_deque.h **** 
 333:/Library/DaisyToolchain/0.2.0/arm/arm-none-eabi/include/c++/10.3.1/bits/stl_deque.h ****       template<typename _RefR, typename _PtrR>
 334:/Library/DaisyToolchain/0.2.0/arm/arm-none-eabi/include/c++/10.3.1/bits/stl_deque.h **** 	friend bool
 335:/Library/DaisyToolchain/0.2.0/arm/arm-none-eabi/include/c++/10.3.1/bits/stl_deque.h **** 	operator<=(const _Self& __x,
 336:/Library/DaisyToolchain/0.2.0/arm/arm-none-eabi/include/c++/10.3.1/bits/stl_deque.h **** 		   const _Deque_iterator<_Tp, _RefR, _PtrR>& __y)
 337:/Library/DaisyToolchain/0.2.0/arm/arm-none-eabi/include/c++/10.3.1/bits/stl_deque.h **** 	_GLIBCXX_NOEXCEPT
 338:/Library/DaisyToolchain/0.2.0/arm/arm-none-eabi/include/c++/10.3.1/bits/stl_deque.h **** 	{ return !(__y < __x); }
ARM GAS  /var/folders/s6/2bsynnl15rj0bwtb9pgx4dc00000gn/T//cc76hY55.s 			page 58


 339:/Library/DaisyToolchain/0.2.0/arm/arm-none-eabi/include/c++/10.3.1/bits/stl_deque.h **** 
 340:/Library/DaisyToolchain/0.2.0/arm/arm-none-eabi/include/c++/10.3.1/bits/stl_deque.h ****       friend bool
 341:/Library/DaisyToolchain/0.2.0/arm/arm-none-eabi/include/c++/10.3.1/bits/stl_deque.h ****       operator>=(const _Self& __x, const _Self& __y) _GLIBCXX_NOEXCEPT
 342:/Library/DaisyToolchain/0.2.0/arm/arm-none-eabi/include/c++/10.3.1/bits/stl_deque.h ****       { return !(__x < __y); }
 343:/Library/DaisyToolchain/0.2.0/arm/arm-none-eabi/include/c++/10.3.1/bits/stl_deque.h **** 
 344:/Library/DaisyToolchain/0.2.0/arm/arm-none-eabi/include/c++/10.3.1/bits/stl_deque.h ****       template<typename _RefR, typename _PtrR>
 345:/Library/DaisyToolchain/0.2.0/arm/arm-none-eabi/include/c++/10.3.1/bits/stl_deque.h **** 	friend bool
 346:/Library/DaisyToolchain/0.2.0/arm/arm-none-eabi/include/c++/10.3.1/bits/stl_deque.h **** 	operator>=(const _Self& __x,
 347:/Library/DaisyToolchain/0.2.0/arm/arm-none-eabi/include/c++/10.3.1/bits/stl_deque.h **** 		   const _Deque_iterator<_Tp, _RefR, _PtrR>& __y)
 348:/Library/DaisyToolchain/0.2.0/arm/arm-none-eabi/include/c++/10.3.1/bits/stl_deque.h **** 	_GLIBCXX_NOEXCEPT
 349:/Library/DaisyToolchain/0.2.0/arm/arm-none-eabi/include/c++/10.3.1/bits/stl_deque.h **** 	{ return !(__x < __y); }
 350:/Library/DaisyToolchain/0.2.0/arm/arm-none-eabi/include/c++/10.3.1/bits/stl_deque.h **** #endif // three-way comparison
 351:/Library/DaisyToolchain/0.2.0/arm/arm-none-eabi/include/c++/10.3.1/bits/stl_deque.h **** 
 352:/Library/DaisyToolchain/0.2.0/arm/arm-none-eabi/include/c++/10.3.1/bits/stl_deque.h ****       friend difference_type
 353:/Library/DaisyToolchain/0.2.0/arm/arm-none-eabi/include/c++/10.3.1/bits/stl_deque.h ****       operator-(const _Self& __x, const _Self& __y) _GLIBCXX_NOEXCEPT
 354:/Library/DaisyToolchain/0.2.0/arm/arm-none-eabi/include/c++/10.3.1/bits/stl_deque.h ****       {
 355:/Library/DaisyToolchain/0.2.0/arm/arm-none-eabi/include/c++/10.3.1/bits/stl_deque.h **** 	return difference_type(_S_buffer_size())
 356:/Library/DaisyToolchain/0.2.0/arm/arm-none-eabi/include/c++/10.3.1/bits/stl_deque.h **** 	  * (__x._M_node - __y._M_node - 1) + (__x._M_cur - __x._M_first)
 357:/Library/DaisyToolchain/0.2.0/arm/arm-none-eabi/include/c++/10.3.1/bits/stl_deque.h **** 	  + (__y._M_last - __y._M_cur);
 358:/Library/DaisyToolchain/0.2.0/arm/arm-none-eabi/include/c++/10.3.1/bits/stl_deque.h ****       }
 359:/Library/DaisyToolchain/0.2.0/arm/arm-none-eabi/include/c++/10.3.1/bits/stl_deque.h **** 
 360:/Library/DaisyToolchain/0.2.0/arm/arm-none-eabi/include/c++/10.3.1/bits/stl_deque.h ****       // _GLIBCXX_RESOLVE_LIB_DEFECTS
 361:/Library/DaisyToolchain/0.2.0/arm/arm-none-eabi/include/c++/10.3.1/bits/stl_deque.h ****       // According to the resolution of DR179 not only the various comparison
 362:/Library/DaisyToolchain/0.2.0/arm/arm-none-eabi/include/c++/10.3.1/bits/stl_deque.h ****       // operators but also operator- must accept mixed iterator/const_iterator
 363:/Library/DaisyToolchain/0.2.0/arm/arm-none-eabi/include/c++/10.3.1/bits/stl_deque.h ****       // parameters.
 364:/Library/DaisyToolchain/0.2.0/arm/arm-none-eabi/include/c++/10.3.1/bits/stl_deque.h ****       template<typename _RefR, typename _PtrR>
 365:/Library/DaisyToolchain/0.2.0/arm/arm-none-eabi/include/c++/10.3.1/bits/stl_deque.h **** 	friend difference_type
 366:/Library/DaisyToolchain/0.2.0/arm/arm-none-eabi/include/c++/10.3.1/bits/stl_deque.h **** 	operator-(const _Self& __x,
 367:/Library/DaisyToolchain/0.2.0/arm/arm-none-eabi/include/c++/10.3.1/bits/stl_deque.h **** 		  const _Deque_iterator<_Tp, _RefR, _PtrR>& __y) _GLIBCXX_NOEXCEPT
 368:/Library/DaisyToolchain/0.2.0/arm/arm-none-eabi/include/c++/10.3.1/bits/stl_deque.h **** 	{
 369:/Library/DaisyToolchain/0.2.0/arm/arm-none-eabi/include/c++/10.3.1/bits/stl_deque.h **** 	  return difference_type(_S_buffer_size())
 370:/Library/DaisyToolchain/0.2.0/arm/arm-none-eabi/include/c++/10.3.1/bits/stl_deque.h **** 	    * (__x._M_node - __y._M_node - 1) + (__x._M_cur - __x._M_first)
 371:/Library/DaisyToolchain/0.2.0/arm/arm-none-eabi/include/c++/10.3.1/bits/stl_deque.h **** 	    + (__y._M_last - __y._M_cur);
 372:/Library/DaisyToolchain/0.2.0/arm/arm-none-eabi/include/c++/10.3.1/bits/stl_deque.h **** 	}
 373:/Library/DaisyToolchain/0.2.0/arm/arm-none-eabi/include/c++/10.3.1/bits/stl_deque.h **** 
 374:/Library/DaisyToolchain/0.2.0/arm/arm-none-eabi/include/c++/10.3.1/bits/stl_deque.h ****       friend _Self
 375:/Library/DaisyToolchain/0.2.0/arm/arm-none-eabi/include/c++/10.3.1/bits/stl_deque.h ****       operator+(const _Self& __x, difference_type __n) _GLIBCXX_NOEXCEPT
 376:/Library/DaisyToolchain/0.2.0/arm/arm-none-eabi/include/c++/10.3.1/bits/stl_deque.h ****       {
 377:/Library/DaisyToolchain/0.2.0/arm/arm-none-eabi/include/c++/10.3.1/bits/stl_deque.h **** 	_Self __tmp = __x;
 378:/Library/DaisyToolchain/0.2.0/arm/arm-none-eabi/include/c++/10.3.1/bits/stl_deque.h **** 	__tmp += __n;
 379:/Library/DaisyToolchain/0.2.0/arm/arm-none-eabi/include/c++/10.3.1/bits/stl_deque.h **** 	return __tmp;
 380:/Library/DaisyToolchain/0.2.0/arm/arm-none-eabi/include/c++/10.3.1/bits/stl_deque.h ****       }
 381:/Library/DaisyToolchain/0.2.0/arm/arm-none-eabi/include/c++/10.3.1/bits/stl_deque.h **** 
 382:/Library/DaisyToolchain/0.2.0/arm/arm-none-eabi/include/c++/10.3.1/bits/stl_deque.h ****       friend _Self
 383:/Library/DaisyToolchain/0.2.0/arm/arm-none-eabi/include/c++/10.3.1/bits/stl_deque.h ****       operator-(const _Self& __x, difference_type __n) _GLIBCXX_NOEXCEPT
 384:/Library/DaisyToolchain/0.2.0/arm/arm-none-eabi/include/c++/10.3.1/bits/stl_deque.h ****       {
 385:/Library/DaisyToolchain/0.2.0/arm/arm-none-eabi/include/c++/10.3.1/bits/stl_deque.h **** 	_Self __tmp = __x;
 386:/Library/DaisyToolchain/0.2.0/arm/arm-none-eabi/include/c++/10.3.1/bits/stl_deque.h **** 	__tmp -= __n;
 387:/Library/DaisyToolchain/0.2.0/arm/arm-none-eabi/include/c++/10.3.1/bits/stl_deque.h **** 	return __tmp;
 388:/Library/DaisyToolchain/0.2.0/arm/arm-none-eabi/include/c++/10.3.1/bits/stl_deque.h ****       }
 389:/Library/DaisyToolchain/0.2.0/arm/arm-none-eabi/include/c++/10.3.1/bits/stl_deque.h **** 
 390:/Library/DaisyToolchain/0.2.0/arm/arm-none-eabi/include/c++/10.3.1/bits/stl_deque.h ****       friend _Self
 391:/Library/DaisyToolchain/0.2.0/arm/arm-none-eabi/include/c++/10.3.1/bits/stl_deque.h ****       operator+(difference_type __n, const _Self& __x) _GLIBCXX_NOEXCEPT
 392:/Library/DaisyToolchain/0.2.0/arm/arm-none-eabi/include/c++/10.3.1/bits/stl_deque.h ****       { return __x + __n; }
 393:/Library/DaisyToolchain/0.2.0/arm/arm-none-eabi/include/c++/10.3.1/bits/stl_deque.h ****     };
 394:/Library/DaisyToolchain/0.2.0/arm/arm-none-eabi/include/c++/10.3.1/bits/stl_deque.h **** 
 395:/Library/DaisyToolchain/0.2.0/arm/arm-none-eabi/include/c++/10.3.1/bits/stl_deque.h ****   /**
ARM GAS  /var/folders/s6/2bsynnl15rj0bwtb9pgx4dc00000gn/T//cc76hY55.s 			page 59


 396:/Library/DaisyToolchain/0.2.0/arm/arm-none-eabi/include/c++/10.3.1/bits/stl_deque.h ****    *  Deque base class.  This class provides the unified face for %deque's
 397:/Library/DaisyToolchain/0.2.0/arm/arm-none-eabi/include/c++/10.3.1/bits/stl_deque.h ****    *  allocation.  This class's constructor and destructor allocate and
 398:/Library/DaisyToolchain/0.2.0/arm/arm-none-eabi/include/c++/10.3.1/bits/stl_deque.h ****    *  deallocate (but do not initialize) storage.  This makes %exception
 399:/Library/DaisyToolchain/0.2.0/arm/arm-none-eabi/include/c++/10.3.1/bits/stl_deque.h ****    *  safety easier.
 400:/Library/DaisyToolchain/0.2.0/arm/arm-none-eabi/include/c++/10.3.1/bits/stl_deque.h ****    *
 401:/Library/DaisyToolchain/0.2.0/arm/arm-none-eabi/include/c++/10.3.1/bits/stl_deque.h ****    *  Nothing in this class ever constructs or destroys an actual Tp element.
 402:/Library/DaisyToolchain/0.2.0/arm/arm-none-eabi/include/c++/10.3.1/bits/stl_deque.h ****    *  (Deque handles that itself.)  Only/All memory management is performed
 403:/Library/DaisyToolchain/0.2.0/arm/arm-none-eabi/include/c++/10.3.1/bits/stl_deque.h ****    *  here.
 404:/Library/DaisyToolchain/0.2.0/arm/arm-none-eabi/include/c++/10.3.1/bits/stl_deque.h ****   */
 405:/Library/DaisyToolchain/0.2.0/arm/arm-none-eabi/include/c++/10.3.1/bits/stl_deque.h ****   template<typename _Tp, typename _Alloc>
 406:/Library/DaisyToolchain/0.2.0/arm/arm-none-eabi/include/c++/10.3.1/bits/stl_deque.h ****     class _Deque_base
 407:/Library/DaisyToolchain/0.2.0/arm/arm-none-eabi/include/c++/10.3.1/bits/stl_deque.h ****     {
 408:/Library/DaisyToolchain/0.2.0/arm/arm-none-eabi/include/c++/10.3.1/bits/stl_deque.h ****     protected:
 409:/Library/DaisyToolchain/0.2.0/arm/arm-none-eabi/include/c++/10.3.1/bits/stl_deque.h ****       typedef typename __gnu_cxx::__alloc_traits<_Alloc>::template
 410:/Library/DaisyToolchain/0.2.0/arm/arm-none-eabi/include/c++/10.3.1/bits/stl_deque.h **** 	rebind<_Tp>::other _Tp_alloc_type;
 411:/Library/DaisyToolchain/0.2.0/arm/arm-none-eabi/include/c++/10.3.1/bits/stl_deque.h ****       typedef __gnu_cxx::__alloc_traits<_Tp_alloc_type>	 _Alloc_traits;
 412:/Library/DaisyToolchain/0.2.0/arm/arm-none-eabi/include/c++/10.3.1/bits/stl_deque.h **** 
 413:/Library/DaisyToolchain/0.2.0/arm/arm-none-eabi/include/c++/10.3.1/bits/stl_deque.h **** #if __cplusplus < 201103L
 414:/Library/DaisyToolchain/0.2.0/arm/arm-none-eabi/include/c++/10.3.1/bits/stl_deque.h ****       typedef _Tp*					_Ptr;
 415:/Library/DaisyToolchain/0.2.0/arm/arm-none-eabi/include/c++/10.3.1/bits/stl_deque.h ****       typedef const _Tp*				_Ptr_const;
 416:/Library/DaisyToolchain/0.2.0/arm/arm-none-eabi/include/c++/10.3.1/bits/stl_deque.h **** #else
 417:/Library/DaisyToolchain/0.2.0/arm/arm-none-eabi/include/c++/10.3.1/bits/stl_deque.h ****       typedef typename _Alloc_traits::pointer		_Ptr;
 418:/Library/DaisyToolchain/0.2.0/arm/arm-none-eabi/include/c++/10.3.1/bits/stl_deque.h ****       typedef typename _Alloc_traits::const_pointer	_Ptr_const;
 419:/Library/DaisyToolchain/0.2.0/arm/arm-none-eabi/include/c++/10.3.1/bits/stl_deque.h **** #endif
 420:/Library/DaisyToolchain/0.2.0/arm/arm-none-eabi/include/c++/10.3.1/bits/stl_deque.h **** 
 421:/Library/DaisyToolchain/0.2.0/arm/arm-none-eabi/include/c++/10.3.1/bits/stl_deque.h ****       typedef typename _Alloc_traits::template rebind<_Ptr>::other
 422:/Library/DaisyToolchain/0.2.0/arm/arm-none-eabi/include/c++/10.3.1/bits/stl_deque.h **** 	_Map_alloc_type;
 423:/Library/DaisyToolchain/0.2.0/arm/arm-none-eabi/include/c++/10.3.1/bits/stl_deque.h ****       typedef __gnu_cxx::__alloc_traits<_Map_alloc_type> _Map_alloc_traits;
 424:/Library/DaisyToolchain/0.2.0/arm/arm-none-eabi/include/c++/10.3.1/bits/stl_deque.h **** 
 425:/Library/DaisyToolchain/0.2.0/arm/arm-none-eabi/include/c++/10.3.1/bits/stl_deque.h ****       typedef _Alloc		  allocator_type;
 426:/Library/DaisyToolchain/0.2.0/arm/arm-none-eabi/include/c++/10.3.1/bits/stl_deque.h **** 
 427:/Library/DaisyToolchain/0.2.0/arm/arm-none-eabi/include/c++/10.3.1/bits/stl_deque.h ****       allocator_type
 428:/Library/DaisyToolchain/0.2.0/arm/arm-none-eabi/include/c++/10.3.1/bits/stl_deque.h ****       get_allocator() const _GLIBCXX_NOEXCEPT
 429:/Library/DaisyToolchain/0.2.0/arm/arm-none-eabi/include/c++/10.3.1/bits/stl_deque.h ****       { return allocator_type(_M_get_Tp_allocator()); }
 430:/Library/DaisyToolchain/0.2.0/arm/arm-none-eabi/include/c++/10.3.1/bits/stl_deque.h **** 
 431:/Library/DaisyToolchain/0.2.0/arm/arm-none-eabi/include/c++/10.3.1/bits/stl_deque.h ****       typedef _Deque_iterator<_Tp, _Tp&, _Ptr>	  iterator;
 432:/Library/DaisyToolchain/0.2.0/arm/arm-none-eabi/include/c++/10.3.1/bits/stl_deque.h ****       typedef _Deque_iterator<_Tp, const _Tp&, _Ptr_const>   const_iterator;
 433:/Library/DaisyToolchain/0.2.0/arm/arm-none-eabi/include/c++/10.3.1/bits/stl_deque.h **** 
 434:/Library/DaisyToolchain/0.2.0/arm/arm-none-eabi/include/c++/10.3.1/bits/stl_deque.h ****       _Deque_base()
 435:/Library/DaisyToolchain/0.2.0/arm/arm-none-eabi/include/c++/10.3.1/bits/stl_deque.h ****       : _M_impl()
 436:/Library/DaisyToolchain/0.2.0/arm/arm-none-eabi/include/c++/10.3.1/bits/stl_deque.h ****       { _M_initialize_map(0); }
 437:/Library/DaisyToolchain/0.2.0/arm/arm-none-eabi/include/c++/10.3.1/bits/stl_deque.h **** 
 438:/Library/DaisyToolchain/0.2.0/arm/arm-none-eabi/include/c++/10.3.1/bits/stl_deque.h ****       _Deque_base(size_t __num_elements)
 439:/Library/DaisyToolchain/0.2.0/arm/arm-none-eabi/include/c++/10.3.1/bits/stl_deque.h ****       : _M_impl()
 440:/Library/DaisyToolchain/0.2.0/arm/arm-none-eabi/include/c++/10.3.1/bits/stl_deque.h ****       { _M_initialize_map(__num_elements); }
 441:/Library/DaisyToolchain/0.2.0/arm/arm-none-eabi/include/c++/10.3.1/bits/stl_deque.h **** 
 442:/Library/DaisyToolchain/0.2.0/arm/arm-none-eabi/include/c++/10.3.1/bits/stl_deque.h ****       _Deque_base(const allocator_type& __a, size_t __num_elements)
 443:/Library/DaisyToolchain/0.2.0/arm/arm-none-eabi/include/c++/10.3.1/bits/stl_deque.h ****       : _M_impl(__a)
 444:/Library/DaisyToolchain/0.2.0/arm/arm-none-eabi/include/c++/10.3.1/bits/stl_deque.h ****       { _M_initialize_map(__num_elements); }
 445:/Library/DaisyToolchain/0.2.0/arm/arm-none-eabi/include/c++/10.3.1/bits/stl_deque.h **** 
 446:/Library/DaisyToolchain/0.2.0/arm/arm-none-eabi/include/c++/10.3.1/bits/stl_deque.h ****       _Deque_base(const allocator_type& __a)
 447:/Library/DaisyToolchain/0.2.0/arm/arm-none-eabi/include/c++/10.3.1/bits/stl_deque.h ****       : _M_impl(__a)
 448:/Library/DaisyToolchain/0.2.0/arm/arm-none-eabi/include/c++/10.3.1/bits/stl_deque.h ****       { /* Caller must initialize map. */ }
 449:/Library/DaisyToolchain/0.2.0/arm/arm-none-eabi/include/c++/10.3.1/bits/stl_deque.h **** 
 450:/Library/DaisyToolchain/0.2.0/arm/arm-none-eabi/include/c++/10.3.1/bits/stl_deque.h **** #if __cplusplus >= 201103L
 451:/Library/DaisyToolchain/0.2.0/arm/arm-none-eabi/include/c++/10.3.1/bits/stl_deque.h ****       _Deque_base(_Deque_base&& __x)
 452:/Library/DaisyToolchain/0.2.0/arm/arm-none-eabi/include/c++/10.3.1/bits/stl_deque.h ****       : _M_impl(std::move(__x._M_get_Tp_allocator()))
ARM GAS  /var/folders/s6/2bsynnl15rj0bwtb9pgx4dc00000gn/T//cc76hY55.s 			page 60


 453:/Library/DaisyToolchain/0.2.0/arm/arm-none-eabi/include/c++/10.3.1/bits/stl_deque.h ****       {
 454:/Library/DaisyToolchain/0.2.0/arm/arm-none-eabi/include/c++/10.3.1/bits/stl_deque.h **** 	_M_initialize_map(0);
 455:/Library/DaisyToolchain/0.2.0/arm/arm-none-eabi/include/c++/10.3.1/bits/stl_deque.h **** 	if (__x._M_impl._M_map)
 456:/Library/DaisyToolchain/0.2.0/arm/arm-none-eabi/include/c++/10.3.1/bits/stl_deque.h **** 	  this->_M_impl._M_swap_data(__x._M_impl);
 457:/Library/DaisyToolchain/0.2.0/arm/arm-none-eabi/include/c++/10.3.1/bits/stl_deque.h ****       }
 458:/Library/DaisyToolchain/0.2.0/arm/arm-none-eabi/include/c++/10.3.1/bits/stl_deque.h **** 
 459:/Library/DaisyToolchain/0.2.0/arm/arm-none-eabi/include/c++/10.3.1/bits/stl_deque.h ****       _Deque_base(_Deque_base&& __x, const allocator_type& __a)
 460:/Library/DaisyToolchain/0.2.0/arm/arm-none-eabi/include/c++/10.3.1/bits/stl_deque.h ****       : _M_impl(std::move(__x._M_impl), _Tp_alloc_type(__a))
 461:/Library/DaisyToolchain/0.2.0/arm/arm-none-eabi/include/c++/10.3.1/bits/stl_deque.h ****       { __x._M_initialize_map(0); }
 462:/Library/DaisyToolchain/0.2.0/arm/arm-none-eabi/include/c++/10.3.1/bits/stl_deque.h **** 
 463:/Library/DaisyToolchain/0.2.0/arm/arm-none-eabi/include/c++/10.3.1/bits/stl_deque.h ****       _Deque_base(_Deque_base&& __x, const allocator_type& __a, size_t __n)
 464:/Library/DaisyToolchain/0.2.0/arm/arm-none-eabi/include/c++/10.3.1/bits/stl_deque.h ****       : _M_impl(__a)
 465:/Library/DaisyToolchain/0.2.0/arm/arm-none-eabi/include/c++/10.3.1/bits/stl_deque.h ****       {
 466:/Library/DaisyToolchain/0.2.0/arm/arm-none-eabi/include/c++/10.3.1/bits/stl_deque.h **** 	if (__x.get_allocator() == __a)
 467:/Library/DaisyToolchain/0.2.0/arm/arm-none-eabi/include/c++/10.3.1/bits/stl_deque.h **** 	  {
 468:/Library/DaisyToolchain/0.2.0/arm/arm-none-eabi/include/c++/10.3.1/bits/stl_deque.h **** 	    if (__x._M_impl._M_map)
 469:/Library/DaisyToolchain/0.2.0/arm/arm-none-eabi/include/c++/10.3.1/bits/stl_deque.h **** 	      {
 470:/Library/DaisyToolchain/0.2.0/arm/arm-none-eabi/include/c++/10.3.1/bits/stl_deque.h **** 		_M_initialize_map(0);
 471:/Library/DaisyToolchain/0.2.0/arm/arm-none-eabi/include/c++/10.3.1/bits/stl_deque.h **** 		this->_M_impl._M_swap_data(__x._M_impl);
 472:/Library/DaisyToolchain/0.2.0/arm/arm-none-eabi/include/c++/10.3.1/bits/stl_deque.h **** 	      }
 473:/Library/DaisyToolchain/0.2.0/arm/arm-none-eabi/include/c++/10.3.1/bits/stl_deque.h **** 	  }
 474:/Library/DaisyToolchain/0.2.0/arm/arm-none-eabi/include/c++/10.3.1/bits/stl_deque.h **** 	else
 475:/Library/DaisyToolchain/0.2.0/arm/arm-none-eabi/include/c++/10.3.1/bits/stl_deque.h **** 	  {
 476:/Library/DaisyToolchain/0.2.0/arm/arm-none-eabi/include/c++/10.3.1/bits/stl_deque.h **** 	    _M_initialize_map(__n);
 477:/Library/DaisyToolchain/0.2.0/arm/arm-none-eabi/include/c++/10.3.1/bits/stl_deque.h **** 	  }
 478:/Library/DaisyToolchain/0.2.0/arm/arm-none-eabi/include/c++/10.3.1/bits/stl_deque.h ****       }
 479:/Library/DaisyToolchain/0.2.0/arm/arm-none-eabi/include/c++/10.3.1/bits/stl_deque.h **** #endif
 480:/Library/DaisyToolchain/0.2.0/arm/arm-none-eabi/include/c++/10.3.1/bits/stl_deque.h **** 
 481:/Library/DaisyToolchain/0.2.0/arm/arm-none-eabi/include/c++/10.3.1/bits/stl_deque.h ****       ~_Deque_base() _GLIBCXX_NOEXCEPT;
 482:/Library/DaisyToolchain/0.2.0/arm/arm-none-eabi/include/c++/10.3.1/bits/stl_deque.h **** 
 483:/Library/DaisyToolchain/0.2.0/arm/arm-none-eabi/include/c++/10.3.1/bits/stl_deque.h ****       typedef typename iterator::_Map_pointer _Map_pointer;
 484:/Library/DaisyToolchain/0.2.0/arm/arm-none-eabi/include/c++/10.3.1/bits/stl_deque.h **** 
 485:/Library/DaisyToolchain/0.2.0/arm/arm-none-eabi/include/c++/10.3.1/bits/stl_deque.h ****       struct _Deque_impl_data
 486:/Library/DaisyToolchain/0.2.0/arm/arm-none-eabi/include/c++/10.3.1/bits/stl_deque.h ****       {
 487:/Library/DaisyToolchain/0.2.0/arm/arm-none-eabi/include/c++/10.3.1/bits/stl_deque.h **** 	_Map_pointer _M_map;
 488:/Library/DaisyToolchain/0.2.0/arm/arm-none-eabi/include/c++/10.3.1/bits/stl_deque.h **** 	size_t _M_map_size;
 489:/Library/DaisyToolchain/0.2.0/arm/arm-none-eabi/include/c++/10.3.1/bits/stl_deque.h **** 	iterator _M_start;
 490:/Library/DaisyToolchain/0.2.0/arm/arm-none-eabi/include/c++/10.3.1/bits/stl_deque.h **** 	iterator _M_finish;
 491:/Library/DaisyToolchain/0.2.0/arm/arm-none-eabi/include/c++/10.3.1/bits/stl_deque.h **** 
 492:/Library/DaisyToolchain/0.2.0/arm/arm-none-eabi/include/c++/10.3.1/bits/stl_deque.h **** 	_Deque_impl_data() _GLIBCXX_NOEXCEPT
 493:/Library/DaisyToolchain/0.2.0/arm/arm-none-eabi/include/c++/10.3.1/bits/stl_deque.h **** 	: _M_map(), _M_map_size(), _M_start(), _M_finish()
 494:/Library/DaisyToolchain/0.2.0/arm/arm-none-eabi/include/c++/10.3.1/bits/stl_deque.h **** 	{ }
 495:/Library/DaisyToolchain/0.2.0/arm/arm-none-eabi/include/c++/10.3.1/bits/stl_deque.h **** 
 496:/Library/DaisyToolchain/0.2.0/arm/arm-none-eabi/include/c++/10.3.1/bits/stl_deque.h **** #if __cplusplus >= 201103L
 497:/Library/DaisyToolchain/0.2.0/arm/arm-none-eabi/include/c++/10.3.1/bits/stl_deque.h **** 	_Deque_impl_data(const _Deque_impl_data&) = default;
 498:/Library/DaisyToolchain/0.2.0/arm/arm-none-eabi/include/c++/10.3.1/bits/stl_deque.h **** 	_Deque_impl_data&
 499:/Library/DaisyToolchain/0.2.0/arm/arm-none-eabi/include/c++/10.3.1/bits/stl_deque.h **** 	operator=(const _Deque_impl_data&) = default;
 500:/Library/DaisyToolchain/0.2.0/arm/arm-none-eabi/include/c++/10.3.1/bits/stl_deque.h **** 
 501:/Library/DaisyToolchain/0.2.0/arm/arm-none-eabi/include/c++/10.3.1/bits/stl_deque.h **** 	_Deque_impl_data(_Deque_impl_data&& __x) noexcept
 502:/Library/DaisyToolchain/0.2.0/arm/arm-none-eabi/include/c++/10.3.1/bits/stl_deque.h **** 	: _Deque_impl_data(__x)
 503:/Library/DaisyToolchain/0.2.0/arm/arm-none-eabi/include/c++/10.3.1/bits/stl_deque.h **** 	{ __x = _Deque_impl_data(); }
 504:/Library/DaisyToolchain/0.2.0/arm/arm-none-eabi/include/c++/10.3.1/bits/stl_deque.h **** #endif
 505:/Library/DaisyToolchain/0.2.0/arm/arm-none-eabi/include/c++/10.3.1/bits/stl_deque.h **** 
 506:/Library/DaisyToolchain/0.2.0/arm/arm-none-eabi/include/c++/10.3.1/bits/stl_deque.h **** 	void
 507:/Library/DaisyToolchain/0.2.0/arm/arm-none-eabi/include/c++/10.3.1/bits/stl_deque.h **** 	_M_swap_data(_Deque_impl_data& __x) _GLIBCXX_NOEXCEPT
 508:/Library/DaisyToolchain/0.2.0/arm/arm-none-eabi/include/c++/10.3.1/bits/stl_deque.h **** 	{
 509:/Library/DaisyToolchain/0.2.0/arm/arm-none-eabi/include/c++/10.3.1/bits/stl_deque.h **** 	  // Do not use std::swap(_M_start, __x._M_start), etc as it loses
ARM GAS  /var/folders/s6/2bsynnl15rj0bwtb9pgx4dc00000gn/T//cc76hY55.s 			page 61


 510:/Library/DaisyToolchain/0.2.0/arm/arm-none-eabi/include/c++/10.3.1/bits/stl_deque.h **** 	  // information used by TBAA.
 511:/Library/DaisyToolchain/0.2.0/arm/arm-none-eabi/include/c++/10.3.1/bits/stl_deque.h **** 	  std::swap(*this, __x);
 512:/Library/DaisyToolchain/0.2.0/arm/arm-none-eabi/include/c++/10.3.1/bits/stl_deque.h **** 	}
 513:/Library/DaisyToolchain/0.2.0/arm/arm-none-eabi/include/c++/10.3.1/bits/stl_deque.h ****       };
 514:/Library/DaisyToolchain/0.2.0/arm/arm-none-eabi/include/c++/10.3.1/bits/stl_deque.h **** 
 515:/Library/DaisyToolchain/0.2.0/arm/arm-none-eabi/include/c++/10.3.1/bits/stl_deque.h ****       // This struct encapsulates the implementation of the std::deque
 516:/Library/DaisyToolchain/0.2.0/arm/arm-none-eabi/include/c++/10.3.1/bits/stl_deque.h ****       // standard container and at the same time makes use of the EBO
 517:/Library/DaisyToolchain/0.2.0/arm/arm-none-eabi/include/c++/10.3.1/bits/stl_deque.h ****       // for empty allocators.
 518:/Library/DaisyToolchain/0.2.0/arm/arm-none-eabi/include/c++/10.3.1/bits/stl_deque.h ****       struct _Deque_impl
 519:/Library/DaisyToolchain/0.2.0/arm/arm-none-eabi/include/c++/10.3.1/bits/stl_deque.h ****       : public _Tp_alloc_type, public _Deque_impl_data
 520:/Library/DaisyToolchain/0.2.0/arm/arm-none-eabi/include/c++/10.3.1/bits/stl_deque.h ****       {
 521:/Library/DaisyToolchain/0.2.0/arm/arm-none-eabi/include/c++/10.3.1/bits/stl_deque.h **** 	_Deque_impl() _GLIBCXX_NOEXCEPT_IF(
 522:/Library/DaisyToolchain/0.2.0/arm/arm-none-eabi/include/c++/10.3.1/bits/stl_deque.h **** 	  is_nothrow_default_constructible<_Tp_alloc_type>::value)
 523:/Library/DaisyToolchain/0.2.0/arm/arm-none-eabi/include/c++/10.3.1/bits/stl_deque.h **** 	: _Tp_alloc_type()
 524:/Library/DaisyToolchain/0.2.0/arm/arm-none-eabi/include/c++/10.3.1/bits/stl_deque.h **** 	{ }
 525:/Library/DaisyToolchain/0.2.0/arm/arm-none-eabi/include/c++/10.3.1/bits/stl_deque.h **** 
 526:/Library/DaisyToolchain/0.2.0/arm/arm-none-eabi/include/c++/10.3.1/bits/stl_deque.h **** 	_Deque_impl(const _Tp_alloc_type& __a) _GLIBCXX_NOEXCEPT
 527:/Library/DaisyToolchain/0.2.0/arm/arm-none-eabi/include/c++/10.3.1/bits/stl_deque.h **** 	: _Tp_alloc_type(__a)
 528:/Library/DaisyToolchain/0.2.0/arm/arm-none-eabi/include/c++/10.3.1/bits/stl_deque.h **** 	{ }
 529:/Library/DaisyToolchain/0.2.0/arm/arm-none-eabi/include/c++/10.3.1/bits/stl_deque.h **** 
 530:/Library/DaisyToolchain/0.2.0/arm/arm-none-eabi/include/c++/10.3.1/bits/stl_deque.h **** #if __cplusplus >= 201103L
 531:/Library/DaisyToolchain/0.2.0/arm/arm-none-eabi/include/c++/10.3.1/bits/stl_deque.h **** 	_Deque_impl(_Deque_impl&&) = default;
 532:/Library/DaisyToolchain/0.2.0/arm/arm-none-eabi/include/c++/10.3.1/bits/stl_deque.h **** 
 533:/Library/DaisyToolchain/0.2.0/arm/arm-none-eabi/include/c++/10.3.1/bits/stl_deque.h **** 	_Deque_impl(_Tp_alloc_type&& __a) noexcept
 534:/Library/DaisyToolchain/0.2.0/arm/arm-none-eabi/include/c++/10.3.1/bits/stl_deque.h **** 	: _Tp_alloc_type(std::move(__a))
 535:/Library/DaisyToolchain/0.2.0/arm/arm-none-eabi/include/c++/10.3.1/bits/stl_deque.h **** 	{ }
 536:/Library/DaisyToolchain/0.2.0/arm/arm-none-eabi/include/c++/10.3.1/bits/stl_deque.h **** 
 537:/Library/DaisyToolchain/0.2.0/arm/arm-none-eabi/include/c++/10.3.1/bits/stl_deque.h **** 	_Deque_impl(_Deque_impl&& __d, _Tp_alloc_type&& __a)
 538:/Library/DaisyToolchain/0.2.0/arm/arm-none-eabi/include/c++/10.3.1/bits/stl_deque.h **** 	: _Tp_alloc_type(std::move(__a)), _Deque_impl_data(std::move(__d))
 539:/Library/DaisyToolchain/0.2.0/arm/arm-none-eabi/include/c++/10.3.1/bits/stl_deque.h **** 	{ }
 540:/Library/DaisyToolchain/0.2.0/arm/arm-none-eabi/include/c++/10.3.1/bits/stl_deque.h **** #endif
 541:/Library/DaisyToolchain/0.2.0/arm/arm-none-eabi/include/c++/10.3.1/bits/stl_deque.h ****       };
 542:/Library/DaisyToolchain/0.2.0/arm/arm-none-eabi/include/c++/10.3.1/bits/stl_deque.h **** 
 543:/Library/DaisyToolchain/0.2.0/arm/arm-none-eabi/include/c++/10.3.1/bits/stl_deque.h ****       _Tp_alloc_type&
 544:/Library/DaisyToolchain/0.2.0/arm/arm-none-eabi/include/c++/10.3.1/bits/stl_deque.h ****       _M_get_Tp_allocator() _GLIBCXX_NOEXCEPT
 545:/Library/DaisyToolchain/0.2.0/arm/arm-none-eabi/include/c++/10.3.1/bits/stl_deque.h ****       { return this->_M_impl; }
 546:/Library/DaisyToolchain/0.2.0/arm/arm-none-eabi/include/c++/10.3.1/bits/stl_deque.h **** 
 547:/Library/DaisyToolchain/0.2.0/arm/arm-none-eabi/include/c++/10.3.1/bits/stl_deque.h ****       const _Tp_alloc_type&
 548:/Library/DaisyToolchain/0.2.0/arm/arm-none-eabi/include/c++/10.3.1/bits/stl_deque.h ****       _M_get_Tp_allocator() const _GLIBCXX_NOEXCEPT
 549:/Library/DaisyToolchain/0.2.0/arm/arm-none-eabi/include/c++/10.3.1/bits/stl_deque.h ****       { return this->_M_impl; }
 550:/Library/DaisyToolchain/0.2.0/arm/arm-none-eabi/include/c++/10.3.1/bits/stl_deque.h **** 
 551:/Library/DaisyToolchain/0.2.0/arm/arm-none-eabi/include/c++/10.3.1/bits/stl_deque.h ****       _Map_alloc_type
 552:/Library/DaisyToolchain/0.2.0/arm/arm-none-eabi/include/c++/10.3.1/bits/stl_deque.h ****       _M_get_map_allocator() const _GLIBCXX_NOEXCEPT
 553:/Library/DaisyToolchain/0.2.0/arm/arm-none-eabi/include/c++/10.3.1/bits/stl_deque.h ****       { return _Map_alloc_type(_M_get_Tp_allocator()); }
 554:/Library/DaisyToolchain/0.2.0/arm/arm-none-eabi/include/c++/10.3.1/bits/stl_deque.h **** 
 555:/Library/DaisyToolchain/0.2.0/arm/arm-none-eabi/include/c++/10.3.1/bits/stl_deque.h ****       _Ptr
 556:/Library/DaisyToolchain/0.2.0/arm/arm-none-eabi/include/c++/10.3.1/bits/stl_deque.h ****       _M_allocate_node()
 557:/Library/DaisyToolchain/0.2.0/arm/arm-none-eabi/include/c++/10.3.1/bits/stl_deque.h ****       {
 558:/Library/DaisyToolchain/0.2.0/arm/arm-none-eabi/include/c++/10.3.1/bits/stl_deque.h **** 	typedef __gnu_cxx::__alloc_traits<_Tp_alloc_type> _Traits;
 559:/Library/DaisyToolchain/0.2.0/arm/arm-none-eabi/include/c++/10.3.1/bits/stl_deque.h **** 	return _Traits::allocate(_M_impl, __deque_buf_size(sizeof(_Tp)));
 560:/Library/DaisyToolchain/0.2.0/arm/arm-none-eabi/include/c++/10.3.1/bits/stl_deque.h ****       }
 561:/Library/DaisyToolchain/0.2.0/arm/arm-none-eabi/include/c++/10.3.1/bits/stl_deque.h **** 
 562:/Library/DaisyToolchain/0.2.0/arm/arm-none-eabi/include/c++/10.3.1/bits/stl_deque.h ****       void
 563:/Library/DaisyToolchain/0.2.0/arm/arm-none-eabi/include/c++/10.3.1/bits/stl_deque.h ****       _M_deallocate_node(_Ptr __p) _GLIBCXX_NOEXCEPT
 564:/Library/DaisyToolchain/0.2.0/arm/arm-none-eabi/include/c++/10.3.1/bits/stl_deque.h ****       {
 565:/Library/DaisyToolchain/0.2.0/arm/arm-none-eabi/include/c++/10.3.1/bits/stl_deque.h **** 	typedef __gnu_cxx::__alloc_traits<_Tp_alloc_type> _Traits;
 566:/Library/DaisyToolchain/0.2.0/arm/arm-none-eabi/include/c++/10.3.1/bits/stl_deque.h **** 	_Traits::deallocate(_M_impl, __p, __deque_buf_size(sizeof(_Tp)));
ARM GAS  /var/folders/s6/2bsynnl15rj0bwtb9pgx4dc00000gn/T//cc76hY55.s 			page 62


 567:/Library/DaisyToolchain/0.2.0/arm/arm-none-eabi/include/c++/10.3.1/bits/stl_deque.h ****       }
 568:/Library/DaisyToolchain/0.2.0/arm/arm-none-eabi/include/c++/10.3.1/bits/stl_deque.h **** 
 569:/Library/DaisyToolchain/0.2.0/arm/arm-none-eabi/include/c++/10.3.1/bits/stl_deque.h ****       _Map_pointer
 570:/Library/DaisyToolchain/0.2.0/arm/arm-none-eabi/include/c++/10.3.1/bits/stl_deque.h ****       _M_allocate_map(size_t __n)
 571:/Library/DaisyToolchain/0.2.0/arm/arm-none-eabi/include/c++/10.3.1/bits/stl_deque.h ****       {
 572:/Library/DaisyToolchain/0.2.0/arm/arm-none-eabi/include/c++/10.3.1/bits/stl_deque.h **** 	_Map_alloc_type __map_alloc = _M_get_map_allocator();
 573:/Library/DaisyToolchain/0.2.0/arm/arm-none-eabi/include/c++/10.3.1/bits/stl_deque.h **** 	return _Map_alloc_traits::allocate(__map_alloc, __n);
 574:/Library/DaisyToolchain/0.2.0/arm/arm-none-eabi/include/c++/10.3.1/bits/stl_deque.h ****       }
 575:/Library/DaisyToolchain/0.2.0/arm/arm-none-eabi/include/c++/10.3.1/bits/stl_deque.h **** 
 576:/Library/DaisyToolchain/0.2.0/arm/arm-none-eabi/include/c++/10.3.1/bits/stl_deque.h ****       void
 577:/Library/DaisyToolchain/0.2.0/arm/arm-none-eabi/include/c++/10.3.1/bits/stl_deque.h ****       _M_deallocate_map(_Map_pointer __p, size_t __n) _GLIBCXX_NOEXCEPT
 578:/Library/DaisyToolchain/0.2.0/arm/arm-none-eabi/include/c++/10.3.1/bits/stl_deque.h ****       {
 579:/Library/DaisyToolchain/0.2.0/arm/arm-none-eabi/include/c++/10.3.1/bits/stl_deque.h **** 	_Map_alloc_type __map_alloc = _M_get_map_allocator();
 580:/Library/DaisyToolchain/0.2.0/arm/arm-none-eabi/include/c++/10.3.1/bits/stl_deque.h **** 	_Map_alloc_traits::deallocate(__map_alloc, __p, __n);
 581:/Library/DaisyToolchain/0.2.0/arm/arm-none-eabi/include/c++/10.3.1/bits/stl_deque.h ****       }
 582:/Library/DaisyToolchain/0.2.0/arm/arm-none-eabi/include/c++/10.3.1/bits/stl_deque.h **** 
 583:/Library/DaisyToolchain/0.2.0/arm/arm-none-eabi/include/c++/10.3.1/bits/stl_deque.h ****       void _M_initialize_map(size_t);
 584:/Library/DaisyToolchain/0.2.0/arm/arm-none-eabi/include/c++/10.3.1/bits/stl_deque.h ****       void _M_create_nodes(_Map_pointer __nstart, _Map_pointer __nfinish);
 585:/Library/DaisyToolchain/0.2.0/arm/arm-none-eabi/include/c++/10.3.1/bits/stl_deque.h ****       void _M_destroy_nodes(_Map_pointer __nstart,
 586:/Library/DaisyToolchain/0.2.0/arm/arm-none-eabi/include/c++/10.3.1/bits/stl_deque.h **** 			    _Map_pointer __nfinish) _GLIBCXX_NOEXCEPT;
 587:/Library/DaisyToolchain/0.2.0/arm/arm-none-eabi/include/c++/10.3.1/bits/stl_deque.h ****       enum { _S_initial_map_size = 8 };
 588:/Library/DaisyToolchain/0.2.0/arm/arm-none-eabi/include/c++/10.3.1/bits/stl_deque.h **** 
 589:/Library/DaisyToolchain/0.2.0/arm/arm-none-eabi/include/c++/10.3.1/bits/stl_deque.h ****       _Deque_impl _M_impl;
 590:/Library/DaisyToolchain/0.2.0/arm/arm-none-eabi/include/c++/10.3.1/bits/stl_deque.h ****     };
 591:/Library/DaisyToolchain/0.2.0/arm/arm-none-eabi/include/c++/10.3.1/bits/stl_deque.h **** 
 592:/Library/DaisyToolchain/0.2.0/arm/arm-none-eabi/include/c++/10.3.1/bits/stl_deque.h ****   template<typename _Tp, typename _Alloc>
 593:/Library/DaisyToolchain/0.2.0/arm/arm-none-eabi/include/c++/10.3.1/bits/stl_deque.h ****     _Deque_base<_Tp, _Alloc>::
 594:/Library/DaisyToolchain/0.2.0/arm/arm-none-eabi/include/c++/10.3.1/bits/stl_deque.h ****     ~_Deque_base() _GLIBCXX_NOEXCEPT
 595:/Library/DaisyToolchain/0.2.0/arm/arm-none-eabi/include/c++/10.3.1/bits/stl_deque.h ****     {
 596:/Library/DaisyToolchain/0.2.0/arm/arm-none-eabi/include/c++/10.3.1/bits/stl_deque.h ****       if (this->_M_impl._M_map)
 597:/Library/DaisyToolchain/0.2.0/arm/arm-none-eabi/include/c++/10.3.1/bits/stl_deque.h **** 	{
 598:/Library/DaisyToolchain/0.2.0/arm/arm-none-eabi/include/c++/10.3.1/bits/stl_deque.h **** 	  _M_destroy_nodes(this->_M_impl._M_start._M_node,
 599:/Library/DaisyToolchain/0.2.0/arm/arm-none-eabi/include/c++/10.3.1/bits/stl_deque.h **** 			   this->_M_impl._M_finish._M_node + 1);
 600:/Library/DaisyToolchain/0.2.0/arm/arm-none-eabi/include/c++/10.3.1/bits/stl_deque.h **** 	  _M_deallocate_map(this->_M_impl._M_map, this->_M_impl._M_map_size);
 601:/Library/DaisyToolchain/0.2.0/arm/arm-none-eabi/include/c++/10.3.1/bits/stl_deque.h **** 	}
 602:/Library/DaisyToolchain/0.2.0/arm/arm-none-eabi/include/c++/10.3.1/bits/stl_deque.h ****     }
 603:/Library/DaisyToolchain/0.2.0/arm/arm-none-eabi/include/c++/10.3.1/bits/stl_deque.h **** 
 604:/Library/DaisyToolchain/0.2.0/arm/arm-none-eabi/include/c++/10.3.1/bits/stl_deque.h ****   /**
 605:/Library/DaisyToolchain/0.2.0/arm/arm-none-eabi/include/c++/10.3.1/bits/stl_deque.h ****    *  @brief Layout storage.
 606:/Library/DaisyToolchain/0.2.0/arm/arm-none-eabi/include/c++/10.3.1/bits/stl_deque.h ****    *  @param  __num_elements  The count of T's for which to allocate space
 607:/Library/DaisyToolchain/0.2.0/arm/arm-none-eabi/include/c++/10.3.1/bits/stl_deque.h ****    *                          at first.
 608:/Library/DaisyToolchain/0.2.0/arm/arm-none-eabi/include/c++/10.3.1/bits/stl_deque.h ****    *  @return   Nothing.
 609:/Library/DaisyToolchain/0.2.0/arm/arm-none-eabi/include/c++/10.3.1/bits/stl_deque.h ****    *
 610:/Library/DaisyToolchain/0.2.0/arm/arm-none-eabi/include/c++/10.3.1/bits/stl_deque.h ****    *  The initial underlying memory layout is a bit complicated...
 611:/Library/DaisyToolchain/0.2.0/arm/arm-none-eabi/include/c++/10.3.1/bits/stl_deque.h ****   */
 612:/Library/DaisyToolchain/0.2.0/arm/arm-none-eabi/include/c++/10.3.1/bits/stl_deque.h ****   template<typename _Tp, typename _Alloc>
 613:/Library/DaisyToolchain/0.2.0/arm/arm-none-eabi/include/c++/10.3.1/bits/stl_deque.h ****     void
 614:/Library/DaisyToolchain/0.2.0/arm/arm-none-eabi/include/c++/10.3.1/bits/stl_deque.h ****     _Deque_base<_Tp, _Alloc>::
 615:/Library/DaisyToolchain/0.2.0/arm/arm-none-eabi/include/c++/10.3.1/bits/stl_deque.h ****     _M_initialize_map(size_t __num_elements)
 616:/Library/DaisyToolchain/0.2.0/arm/arm-none-eabi/include/c++/10.3.1/bits/stl_deque.h ****     {
 617:/Library/DaisyToolchain/0.2.0/arm/arm-none-eabi/include/c++/10.3.1/bits/stl_deque.h ****       const size_t __num_nodes = (__num_elements / __deque_buf_size(sizeof(_Tp))
 618:/Library/DaisyToolchain/0.2.0/arm/arm-none-eabi/include/c++/10.3.1/bits/stl_deque.h **** 				  + 1);
 619:/Library/DaisyToolchain/0.2.0/arm/arm-none-eabi/include/c++/10.3.1/bits/stl_deque.h **** 
 620:/Library/DaisyToolchain/0.2.0/arm/arm-none-eabi/include/c++/10.3.1/bits/stl_deque.h ****       this->_M_impl._M_map_size = std::max((size_t) _S_initial_map_size,
 621:/Library/DaisyToolchain/0.2.0/arm/arm-none-eabi/include/c++/10.3.1/bits/stl_deque.h **** 					   size_t(__num_nodes + 2));
 622:/Library/DaisyToolchain/0.2.0/arm/arm-none-eabi/include/c++/10.3.1/bits/stl_deque.h ****       this->_M_impl._M_map = _M_allocate_map(this->_M_impl._M_map_size);
 623:/Library/DaisyToolchain/0.2.0/arm/arm-none-eabi/include/c++/10.3.1/bits/stl_deque.h **** 
ARM GAS  /var/folders/s6/2bsynnl15rj0bwtb9pgx4dc00000gn/T//cc76hY55.s 			page 63


 624:/Library/DaisyToolchain/0.2.0/arm/arm-none-eabi/include/c++/10.3.1/bits/stl_deque.h ****       // For "small" maps (needing less than _M_map_size nodes), allocation
 625:/Library/DaisyToolchain/0.2.0/arm/arm-none-eabi/include/c++/10.3.1/bits/stl_deque.h ****       // starts in the middle elements and grows outwards.  So nstart may be
 626:/Library/DaisyToolchain/0.2.0/arm/arm-none-eabi/include/c++/10.3.1/bits/stl_deque.h ****       // the beginning of _M_map, but for small maps it may be as far in as
 627:/Library/DaisyToolchain/0.2.0/arm/arm-none-eabi/include/c++/10.3.1/bits/stl_deque.h ****       // _M_map+3.
 628:/Library/DaisyToolchain/0.2.0/arm/arm-none-eabi/include/c++/10.3.1/bits/stl_deque.h **** 
 629:/Library/DaisyToolchain/0.2.0/arm/arm-none-eabi/include/c++/10.3.1/bits/stl_deque.h ****       _Map_pointer __nstart = (this->_M_impl._M_map
 630:/Library/DaisyToolchain/0.2.0/arm/arm-none-eabi/include/c++/10.3.1/bits/stl_deque.h **** 			       + (this->_M_impl._M_map_size - __num_nodes) / 2);
 631:/Library/DaisyToolchain/0.2.0/arm/arm-none-eabi/include/c++/10.3.1/bits/stl_deque.h ****       _Map_pointer __nfinish = __nstart + __num_nodes;
 632:/Library/DaisyToolchain/0.2.0/arm/arm-none-eabi/include/c++/10.3.1/bits/stl_deque.h **** 
 633:/Library/DaisyToolchain/0.2.0/arm/arm-none-eabi/include/c++/10.3.1/bits/stl_deque.h ****       __try
 634:/Library/DaisyToolchain/0.2.0/arm/arm-none-eabi/include/c++/10.3.1/bits/stl_deque.h **** 	{ _M_create_nodes(__nstart, __nfinish); }
 635:/Library/DaisyToolchain/0.2.0/arm/arm-none-eabi/include/c++/10.3.1/bits/stl_deque.h ****       __catch(...)
 636:/Library/DaisyToolchain/0.2.0/arm/arm-none-eabi/include/c++/10.3.1/bits/stl_deque.h **** 	{
 637:/Library/DaisyToolchain/0.2.0/arm/arm-none-eabi/include/c++/10.3.1/bits/stl_deque.h **** 	  _M_deallocate_map(this->_M_impl._M_map, this->_M_impl._M_map_size);
 638:/Library/DaisyToolchain/0.2.0/arm/arm-none-eabi/include/c++/10.3.1/bits/stl_deque.h **** 	  this->_M_impl._M_map = _Map_pointer();
 639:/Library/DaisyToolchain/0.2.0/arm/arm-none-eabi/include/c++/10.3.1/bits/stl_deque.h **** 	  this->_M_impl._M_map_size = 0;
 640:/Library/DaisyToolchain/0.2.0/arm/arm-none-eabi/include/c++/10.3.1/bits/stl_deque.h **** 	  __throw_exception_again;
 641:/Library/DaisyToolchain/0.2.0/arm/arm-none-eabi/include/c++/10.3.1/bits/stl_deque.h **** 	}
 642:/Library/DaisyToolchain/0.2.0/arm/arm-none-eabi/include/c++/10.3.1/bits/stl_deque.h **** 
 643:/Library/DaisyToolchain/0.2.0/arm/arm-none-eabi/include/c++/10.3.1/bits/stl_deque.h ****       this->_M_impl._M_start._M_set_node(__nstart);
 644:/Library/DaisyToolchain/0.2.0/arm/arm-none-eabi/include/c++/10.3.1/bits/stl_deque.h ****       this->_M_impl._M_finish._M_set_node(__nfinish - 1);
 645:/Library/DaisyToolchain/0.2.0/arm/arm-none-eabi/include/c++/10.3.1/bits/stl_deque.h ****       this->_M_impl._M_start._M_cur = _M_impl._M_start._M_first;
 646:/Library/DaisyToolchain/0.2.0/arm/arm-none-eabi/include/c++/10.3.1/bits/stl_deque.h ****       this->_M_impl._M_finish._M_cur = (this->_M_impl._M_finish._M_first
 647:/Library/DaisyToolchain/0.2.0/arm/arm-none-eabi/include/c++/10.3.1/bits/stl_deque.h **** 					+ __num_elements
 648:/Library/DaisyToolchain/0.2.0/arm/arm-none-eabi/include/c++/10.3.1/bits/stl_deque.h **** 					% __deque_buf_size(sizeof(_Tp)));
 649:/Library/DaisyToolchain/0.2.0/arm/arm-none-eabi/include/c++/10.3.1/bits/stl_deque.h ****     }
 650:/Library/DaisyToolchain/0.2.0/arm/arm-none-eabi/include/c++/10.3.1/bits/stl_deque.h **** 
 651:/Library/DaisyToolchain/0.2.0/arm/arm-none-eabi/include/c++/10.3.1/bits/stl_deque.h ****   template<typename _Tp, typename _Alloc>
 652:/Library/DaisyToolchain/0.2.0/arm/arm-none-eabi/include/c++/10.3.1/bits/stl_deque.h ****     void
 653:/Library/DaisyToolchain/0.2.0/arm/arm-none-eabi/include/c++/10.3.1/bits/stl_deque.h ****     _Deque_base<_Tp, _Alloc>::
 654:/Library/DaisyToolchain/0.2.0/arm/arm-none-eabi/include/c++/10.3.1/bits/stl_deque.h ****     _M_create_nodes(_Map_pointer __nstart, _Map_pointer __nfinish)
 655:/Library/DaisyToolchain/0.2.0/arm/arm-none-eabi/include/c++/10.3.1/bits/stl_deque.h ****     {
 656:/Library/DaisyToolchain/0.2.0/arm/arm-none-eabi/include/c++/10.3.1/bits/stl_deque.h ****       _Map_pointer __cur;
 657:/Library/DaisyToolchain/0.2.0/arm/arm-none-eabi/include/c++/10.3.1/bits/stl_deque.h ****       __try
 658:/Library/DaisyToolchain/0.2.0/arm/arm-none-eabi/include/c++/10.3.1/bits/stl_deque.h **** 	{
 659:/Library/DaisyToolchain/0.2.0/arm/arm-none-eabi/include/c++/10.3.1/bits/stl_deque.h **** 	  for (__cur = __nstart; __cur < __nfinish; ++__cur)
 660:/Library/DaisyToolchain/0.2.0/arm/arm-none-eabi/include/c++/10.3.1/bits/stl_deque.h **** 	    *__cur = this->_M_allocate_node();
 661:/Library/DaisyToolchain/0.2.0/arm/arm-none-eabi/include/c++/10.3.1/bits/stl_deque.h **** 	}
 662:/Library/DaisyToolchain/0.2.0/arm/arm-none-eabi/include/c++/10.3.1/bits/stl_deque.h ****       __catch(...)
 663:/Library/DaisyToolchain/0.2.0/arm/arm-none-eabi/include/c++/10.3.1/bits/stl_deque.h **** 	{
 664:/Library/DaisyToolchain/0.2.0/arm/arm-none-eabi/include/c++/10.3.1/bits/stl_deque.h **** 	  _M_destroy_nodes(__nstart, __cur);
 665:/Library/DaisyToolchain/0.2.0/arm/arm-none-eabi/include/c++/10.3.1/bits/stl_deque.h **** 	  __throw_exception_again;
 666:/Library/DaisyToolchain/0.2.0/arm/arm-none-eabi/include/c++/10.3.1/bits/stl_deque.h **** 	}
 667:/Library/DaisyToolchain/0.2.0/arm/arm-none-eabi/include/c++/10.3.1/bits/stl_deque.h ****     }
 668:/Library/DaisyToolchain/0.2.0/arm/arm-none-eabi/include/c++/10.3.1/bits/stl_deque.h **** 
 669:/Library/DaisyToolchain/0.2.0/arm/arm-none-eabi/include/c++/10.3.1/bits/stl_deque.h ****   template<typename _Tp, typename _Alloc>
 670:/Library/DaisyToolchain/0.2.0/arm/arm-none-eabi/include/c++/10.3.1/bits/stl_deque.h ****     void
 671:/Library/DaisyToolchain/0.2.0/arm/arm-none-eabi/include/c++/10.3.1/bits/stl_deque.h ****     _Deque_base<_Tp, _Alloc>::
 672:/Library/DaisyToolchain/0.2.0/arm/arm-none-eabi/include/c++/10.3.1/bits/stl_deque.h ****     _M_destroy_nodes(_Map_pointer __nstart,
 673:/Library/DaisyToolchain/0.2.0/arm/arm-none-eabi/include/c++/10.3.1/bits/stl_deque.h **** 		     _Map_pointer __nfinish) _GLIBCXX_NOEXCEPT
 674:/Library/DaisyToolchain/0.2.0/arm/arm-none-eabi/include/c++/10.3.1/bits/stl_deque.h ****     {
 675:/Library/DaisyToolchain/0.2.0/arm/arm-none-eabi/include/c++/10.3.1/bits/stl_deque.h ****       for (_Map_pointer __n = __nstart; __n < __nfinish; ++__n)
 676:/Library/DaisyToolchain/0.2.0/arm/arm-none-eabi/include/c++/10.3.1/bits/stl_deque.h **** 	_M_deallocate_node(*__n);
 677:/Library/DaisyToolchain/0.2.0/arm/arm-none-eabi/include/c++/10.3.1/bits/stl_deque.h ****     }
 678:/Library/DaisyToolchain/0.2.0/arm/arm-none-eabi/include/c++/10.3.1/bits/stl_deque.h **** 
 679:/Library/DaisyToolchain/0.2.0/arm/arm-none-eabi/include/c++/10.3.1/bits/stl_deque.h ****   /**
 680:/Library/DaisyToolchain/0.2.0/arm/arm-none-eabi/include/c++/10.3.1/bits/stl_deque.h ****    *  @brief  A standard container using fixed-size memory allocation and
ARM GAS  /var/folders/s6/2bsynnl15rj0bwtb9pgx4dc00000gn/T//cc76hY55.s 			page 64


 681:/Library/DaisyToolchain/0.2.0/arm/arm-none-eabi/include/c++/10.3.1/bits/stl_deque.h ****    *  constant-time manipulation of elements at either end.
 682:/Library/DaisyToolchain/0.2.0/arm/arm-none-eabi/include/c++/10.3.1/bits/stl_deque.h ****    *
 683:/Library/DaisyToolchain/0.2.0/arm/arm-none-eabi/include/c++/10.3.1/bits/stl_deque.h ****    *  @ingroup sequences
 684:/Library/DaisyToolchain/0.2.0/arm/arm-none-eabi/include/c++/10.3.1/bits/stl_deque.h ****    *
 685:/Library/DaisyToolchain/0.2.0/arm/arm-none-eabi/include/c++/10.3.1/bits/stl_deque.h ****    *  @tparam _Tp  Type of element.
 686:/Library/DaisyToolchain/0.2.0/arm/arm-none-eabi/include/c++/10.3.1/bits/stl_deque.h ****    *  @tparam _Alloc  Allocator type, defaults to allocator<_Tp>.
 687:/Library/DaisyToolchain/0.2.0/arm/arm-none-eabi/include/c++/10.3.1/bits/stl_deque.h ****    *
 688:/Library/DaisyToolchain/0.2.0/arm/arm-none-eabi/include/c++/10.3.1/bits/stl_deque.h ****    *  Meets the requirements of a <a href="tables.html#65">container</a>, a
 689:/Library/DaisyToolchain/0.2.0/arm/arm-none-eabi/include/c++/10.3.1/bits/stl_deque.h ****    *  <a href="tables.html#66">reversible container</a>, and a
 690:/Library/DaisyToolchain/0.2.0/arm/arm-none-eabi/include/c++/10.3.1/bits/stl_deque.h ****    *  <a href="tables.html#67">sequence</a>, including the
 691:/Library/DaisyToolchain/0.2.0/arm/arm-none-eabi/include/c++/10.3.1/bits/stl_deque.h ****    *  <a href="tables.html#68">optional sequence requirements</a>.
 692:/Library/DaisyToolchain/0.2.0/arm/arm-none-eabi/include/c++/10.3.1/bits/stl_deque.h ****    *
 693:/Library/DaisyToolchain/0.2.0/arm/arm-none-eabi/include/c++/10.3.1/bits/stl_deque.h ****    *  In previous HP/SGI versions of deque, there was an extra template
 694:/Library/DaisyToolchain/0.2.0/arm/arm-none-eabi/include/c++/10.3.1/bits/stl_deque.h ****    *  parameter so users could control the node size.  This extension turned
 695:/Library/DaisyToolchain/0.2.0/arm/arm-none-eabi/include/c++/10.3.1/bits/stl_deque.h ****    *  out to violate the C++ standard (it can be detected using template
 696:/Library/DaisyToolchain/0.2.0/arm/arm-none-eabi/include/c++/10.3.1/bits/stl_deque.h ****    *  template parameters), and it was removed.
 697:/Library/DaisyToolchain/0.2.0/arm/arm-none-eabi/include/c++/10.3.1/bits/stl_deque.h ****    *
 698:/Library/DaisyToolchain/0.2.0/arm/arm-none-eabi/include/c++/10.3.1/bits/stl_deque.h ****    *  Here's how a deque<Tp> manages memory.  Each deque has 4 members:
 699:/Library/DaisyToolchain/0.2.0/arm/arm-none-eabi/include/c++/10.3.1/bits/stl_deque.h ****    *
 700:/Library/DaisyToolchain/0.2.0/arm/arm-none-eabi/include/c++/10.3.1/bits/stl_deque.h ****    *  - Tp**        _M_map
 701:/Library/DaisyToolchain/0.2.0/arm/arm-none-eabi/include/c++/10.3.1/bits/stl_deque.h ****    *  - size_t      _M_map_size
 702:/Library/DaisyToolchain/0.2.0/arm/arm-none-eabi/include/c++/10.3.1/bits/stl_deque.h ****    *  - iterator    _M_start, _M_finish
 703:/Library/DaisyToolchain/0.2.0/arm/arm-none-eabi/include/c++/10.3.1/bits/stl_deque.h ****    *
 704:/Library/DaisyToolchain/0.2.0/arm/arm-none-eabi/include/c++/10.3.1/bits/stl_deque.h ****    *  map_size is at least 8.  %map is an array of map_size
 705:/Library/DaisyToolchain/0.2.0/arm/arm-none-eabi/include/c++/10.3.1/bits/stl_deque.h ****    *  pointers-to-@a nodes.  (The name %map has nothing to do with the
 706:/Library/DaisyToolchain/0.2.0/arm/arm-none-eabi/include/c++/10.3.1/bits/stl_deque.h ****    *  std::map class, and @b nodes should not be confused with
 707:/Library/DaisyToolchain/0.2.0/arm/arm-none-eabi/include/c++/10.3.1/bits/stl_deque.h ****    *  std::list's usage of @a node.)
 708:/Library/DaisyToolchain/0.2.0/arm/arm-none-eabi/include/c++/10.3.1/bits/stl_deque.h ****    *
 709:/Library/DaisyToolchain/0.2.0/arm/arm-none-eabi/include/c++/10.3.1/bits/stl_deque.h ****    *  A @a node has no specific type name as such, but it is referred
 710:/Library/DaisyToolchain/0.2.0/arm/arm-none-eabi/include/c++/10.3.1/bits/stl_deque.h ****    *  to as @a node in this file.  It is a simple array-of-Tp.  If Tp
 711:/Library/DaisyToolchain/0.2.0/arm/arm-none-eabi/include/c++/10.3.1/bits/stl_deque.h ****    *  is very large, there will be one Tp element per node (i.e., an
 712:/Library/DaisyToolchain/0.2.0/arm/arm-none-eabi/include/c++/10.3.1/bits/stl_deque.h ****    *  @a array of one).  For non-huge Tp's, node size is inversely
 713:/Library/DaisyToolchain/0.2.0/arm/arm-none-eabi/include/c++/10.3.1/bits/stl_deque.h ****    *  related to Tp size: the larger the Tp, the fewer Tp's will fit
 714:/Library/DaisyToolchain/0.2.0/arm/arm-none-eabi/include/c++/10.3.1/bits/stl_deque.h ****    *  in a node.  The goal here is to keep the total size of a node
 715:/Library/DaisyToolchain/0.2.0/arm/arm-none-eabi/include/c++/10.3.1/bits/stl_deque.h ****    *  relatively small and constant over different Tp's, to improve
 716:/Library/DaisyToolchain/0.2.0/arm/arm-none-eabi/include/c++/10.3.1/bits/stl_deque.h ****    *  allocator efficiency.
 717:/Library/DaisyToolchain/0.2.0/arm/arm-none-eabi/include/c++/10.3.1/bits/stl_deque.h ****    *
 718:/Library/DaisyToolchain/0.2.0/arm/arm-none-eabi/include/c++/10.3.1/bits/stl_deque.h ****    *  Not every pointer in the %map array will point to a node.  If
 719:/Library/DaisyToolchain/0.2.0/arm/arm-none-eabi/include/c++/10.3.1/bits/stl_deque.h ****    *  the initial number of elements in the deque is small, the
 720:/Library/DaisyToolchain/0.2.0/arm/arm-none-eabi/include/c++/10.3.1/bits/stl_deque.h ****    *  /middle/ %map pointers will be valid, and the ones at the edges
 721:/Library/DaisyToolchain/0.2.0/arm/arm-none-eabi/include/c++/10.3.1/bits/stl_deque.h ****    *  will be unused.  This same situation will arise as the %map
 722:/Library/DaisyToolchain/0.2.0/arm/arm-none-eabi/include/c++/10.3.1/bits/stl_deque.h ****    *  grows: available %map pointers, if any, will be on the ends.  As
 723:/Library/DaisyToolchain/0.2.0/arm/arm-none-eabi/include/c++/10.3.1/bits/stl_deque.h ****    *  new nodes are created, only a subset of the %map's pointers need
 724:/Library/DaisyToolchain/0.2.0/arm/arm-none-eabi/include/c++/10.3.1/bits/stl_deque.h ****    *  to be copied @a outward.
 725:/Library/DaisyToolchain/0.2.0/arm/arm-none-eabi/include/c++/10.3.1/bits/stl_deque.h ****    *
 726:/Library/DaisyToolchain/0.2.0/arm/arm-none-eabi/include/c++/10.3.1/bits/stl_deque.h ****    *  Class invariants:
 727:/Library/DaisyToolchain/0.2.0/arm/arm-none-eabi/include/c++/10.3.1/bits/stl_deque.h ****    * - For any nonsingular iterator i:
 728:/Library/DaisyToolchain/0.2.0/arm/arm-none-eabi/include/c++/10.3.1/bits/stl_deque.h ****    *    - i.node points to a member of the %map array.  (Yes, you read that
 729:/Library/DaisyToolchain/0.2.0/arm/arm-none-eabi/include/c++/10.3.1/bits/stl_deque.h ****    *      correctly:  i.node does not actually point to a node.)  The member of
 730:/Library/DaisyToolchain/0.2.0/arm/arm-none-eabi/include/c++/10.3.1/bits/stl_deque.h ****    *      the %map array is what actually points to the node.
 731:/Library/DaisyToolchain/0.2.0/arm/arm-none-eabi/include/c++/10.3.1/bits/stl_deque.h ****    *    - i.first == *(i.node)    (This points to the node (first Tp element).)
 732:/Library/DaisyToolchain/0.2.0/arm/arm-none-eabi/include/c++/10.3.1/bits/stl_deque.h ****    *    - i.last  == i.first + node_size
 733:/Library/DaisyToolchain/0.2.0/arm/arm-none-eabi/include/c++/10.3.1/bits/stl_deque.h ****    *    - i.cur is a pointer in the range [i.first, i.last).  NOTE:
 734:/Library/DaisyToolchain/0.2.0/arm/arm-none-eabi/include/c++/10.3.1/bits/stl_deque.h ****    *      the implication of this is that i.cur is always a dereferenceable
 735:/Library/DaisyToolchain/0.2.0/arm/arm-none-eabi/include/c++/10.3.1/bits/stl_deque.h ****    *      pointer, even if i is a past-the-end iterator.
 736:/Library/DaisyToolchain/0.2.0/arm/arm-none-eabi/include/c++/10.3.1/bits/stl_deque.h ****    * - Start and Finish are always nonsingular iterators.  NOTE: this
 737:/Library/DaisyToolchain/0.2.0/arm/arm-none-eabi/include/c++/10.3.1/bits/stl_deque.h ****    * means that an empty deque must have one node, a deque with <N
ARM GAS  /var/folders/s6/2bsynnl15rj0bwtb9pgx4dc00000gn/T//cc76hY55.s 			page 65


 738:/Library/DaisyToolchain/0.2.0/arm/arm-none-eabi/include/c++/10.3.1/bits/stl_deque.h ****    * elements (where N is the node buffer size) must have one node, a
 739:/Library/DaisyToolchain/0.2.0/arm/arm-none-eabi/include/c++/10.3.1/bits/stl_deque.h ****    * deque with N through (2N-1) elements must have two nodes, etc.
 740:/Library/DaisyToolchain/0.2.0/arm/arm-none-eabi/include/c++/10.3.1/bits/stl_deque.h ****    * - For every node other than start.node and finish.node, every
 741:/Library/DaisyToolchain/0.2.0/arm/arm-none-eabi/include/c++/10.3.1/bits/stl_deque.h ****    * element in the node is an initialized object.  If start.node ==
 742:/Library/DaisyToolchain/0.2.0/arm/arm-none-eabi/include/c++/10.3.1/bits/stl_deque.h ****    * finish.node, then [start.cur, finish.cur) are initialized
 743:/Library/DaisyToolchain/0.2.0/arm/arm-none-eabi/include/c++/10.3.1/bits/stl_deque.h ****    * objects, and the elements outside that range are uninitialized
 744:/Library/DaisyToolchain/0.2.0/arm/arm-none-eabi/include/c++/10.3.1/bits/stl_deque.h ****    * storage.  Otherwise, [start.cur, start.last) and [finish.first,
 745:/Library/DaisyToolchain/0.2.0/arm/arm-none-eabi/include/c++/10.3.1/bits/stl_deque.h ****    * finish.cur) are initialized objects, and [start.first, start.cur)
 746:/Library/DaisyToolchain/0.2.0/arm/arm-none-eabi/include/c++/10.3.1/bits/stl_deque.h ****    * and [finish.cur, finish.last) are uninitialized storage.
 747:/Library/DaisyToolchain/0.2.0/arm/arm-none-eabi/include/c++/10.3.1/bits/stl_deque.h ****    * - [%map, %map + map_size) is a valid, non-empty range.
 748:/Library/DaisyToolchain/0.2.0/arm/arm-none-eabi/include/c++/10.3.1/bits/stl_deque.h ****    * - [start.node, finish.node] is a valid range contained within
 749:/Library/DaisyToolchain/0.2.0/arm/arm-none-eabi/include/c++/10.3.1/bits/stl_deque.h ****    *   [%map, %map + map_size).
 750:/Library/DaisyToolchain/0.2.0/arm/arm-none-eabi/include/c++/10.3.1/bits/stl_deque.h ****    * - A pointer in the range [%map, %map + map_size) points to an allocated
 751:/Library/DaisyToolchain/0.2.0/arm/arm-none-eabi/include/c++/10.3.1/bits/stl_deque.h ****    *   node if and only if the pointer is in the range
 752:/Library/DaisyToolchain/0.2.0/arm/arm-none-eabi/include/c++/10.3.1/bits/stl_deque.h ****    *   [start.node, finish.node].
 753:/Library/DaisyToolchain/0.2.0/arm/arm-none-eabi/include/c++/10.3.1/bits/stl_deque.h ****    *
 754:/Library/DaisyToolchain/0.2.0/arm/arm-none-eabi/include/c++/10.3.1/bits/stl_deque.h ****    *  Here's the magic:  nothing in deque is @b aware of the discontiguous
 755:/Library/DaisyToolchain/0.2.0/arm/arm-none-eabi/include/c++/10.3.1/bits/stl_deque.h ****    *  storage!
 756:/Library/DaisyToolchain/0.2.0/arm/arm-none-eabi/include/c++/10.3.1/bits/stl_deque.h ****    *
 757:/Library/DaisyToolchain/0.2.0/arm/arm-none-eabi/include/c++/10.3.1/bits/stl_deque.h ****    *  The memory setup and layout occurs in the parent, _Base, and the iterator
 758:/Library/DaisyToolchain/0.2.0/arm/arm-none-eabi/include/c++/10.3.1/bits/stl_deque.h ****    *  class is entirely responsible for @a leaping from one node to the next.
 759:/Library/DaisyToolchain/0.2.0/arm/arm-none-eabi/include/c++/10.3.1/bits/stl_deque.h ****    *  All the implementation routines for deque itself work only through the
 760:/Library/DaisyToolchain/0.2.0/arm/arm-none-eabi/include/c++/10.3.1/bits/stl_deque.h ****    *  start and finish iterators.  This keeps the routines simple and sane,
 761:/Library/DaisyToolchain/0.2.0/arm/arm-none-eabi/include/c++/10.3.1/bits/stl_deque.h ****    *  and we can use other standard algorithms as well.
 762:/Library/DaisyToolchain/0.2.0/arm/arm-none-eabi/include/c++/10.3.1/bits/stl_deque.h ****   */
 763:/Library/DaisyToolchain/0.2.0/arm/arm-none-eabi/include/c++/10.3.1/bits/stl_deque.h ****   template<typename _Tp, typename _Alloc = std::allocator<_Tp> >
 764:/Library/DaisyToolchain/0.2.0/arm/arm-none-eabi/include/c++/10.3.1/bits/stl_deque.h ****     class deque : protected _Deque_base<_Tp, _Alloc>
 765:/Library/DaisyToolchain/0.2.0/arm/arm-none-eabi/include/c++/10.3.1/bits/stl_deque.h ****     {
 766:/Library/DaisyToolchain/0.2.0/arm/arm-none-eabi/include/c++/10.3.1/bits/stl_deque.h **** #ifdef _GLIBCXX_CONCEPT_CHECKS
 767:/Library/DaisyToolchain/0.2.0/arm/arm-none-eabi/include/c++/10.3.1/bits/stl_deque.h ****       // concept requirements
 768:/Library/DaisyToolchain/0.2.0/arm/arm-none-eabi/include/c++/10.3.1/bits/stl_deque.h ****       typedef typename _Alloc::value_type	_Alloc_value_type;
 769:/Library/DaisyToolchain/0.2.0/arm/arm-none-eabi/include/c++/10.3.1/bits/stl_deque.h **** # if __cplusplus < 201103L
 770:/Library/DaisyToolchain/0.2.0/arm/arm-none-eabi/include/c++/10.3.1/bits/stl_deque.h ****       __glibcxx_class_requires(_Tp, _SGIAssignableConcept)
 771:/Library/DaisyToolchain/0.2.0/arm/arm-none-eabi/include/c++/10.3.1/bits/stl_deque.h **** # endif
 772:/Library/DaisyToolchain/0.2.0/arm/arm-none-eabi/include/c++/10.3.1/bits/stl_deque.h ****       __glibcxx_class_requires2(_Tp, _Alloc_value_type, _SameTypeConcept)
 773:/Library/DaisyToolchain/0.2.0/arm/arm-none-eabi/include/c++/10.3.1/bits/stl_deque.h **** #endif
 774:/Library/DaisyToolchain/0.2.0/arm/arm-none-eabi/include/c++/10.3.1/bits/stl_deque.h **** 
 775:/Library/DaisyToolchain/0.2.0/arm/arm-none-eabi/include/c++/10.3.1/bits/stl_deque.h **** #if __cplusplus >= 201103L
 776:/Library/DaisyToolchain/0.2.0/arm/arm-none-eabi/include/c++/10.3.1/bits/stl_deque.h ****       static_assert(is_same<typename remove_cv<_Tp>::type, _Tp>::value,
 777:/Library/DaisyToolchain/0.2.0/arm/arm-none-eabi/include/c++/10.3.1/bits/stl_deque.h **** 	  "std::deque must have a non-const, non-volatile value_type");
 778:/Library/DaisyToolchain/0.2.0/arm/arm-none-eabi/include/c++/10.3.1/bits/stl_deque.h **** # if __cplusplus > 201703L || defined __STRICT_ANSI__
 779:/Library/DaisyToolchain/0.2.0/arm/arm-none-eabi/include/c++/10.3.1/bits/stl_deque.h ****       static_assert(is_same<typename _Alloc::value_type, _Tp>::value,
 780:/Library/DaisyToolchain/0.2.0/arm/arm-none-eabi/include/c++/10.3.1/bits/stl_deque.h **** 	  "std::deque must have the same value_type as its allocator");
 781:/Library/DaisyToolchain/0.2.0/arm/arm-none-eabi/include/c++/10.3.1/bits/stl_deque.h **** # endif
 782:/Library/DaisyToolchain/0.2.0/arm/arm-none-eabi/include/c++/10.3.1/bits/stl_deque.h **** #endif
 783:/Library/DaisyToolchain/0.2.0/arm/arm-none-eabi/include/c++/10.3.1/bits/stl_deque.h **** 
 784:/Library/DaisyToolchain/0.2.0/arm/arm-none-eabi/include/c++/10.3.1/bits/stl_deque.h ****       typedef _Deque_base<_Tp, _Alloc>			_Base;
 785:/Library/DaisyToolchain/0.2.0/arm/arm-none-eabi/include/c++/10.3.1/bits/stl_deque.h ****       typedef typename _Base::_Tp_alloc_type		_Tp_alloc_type;
 786:/Library/DaisyToolchain/0.2.0/arm/arm-none-eabi/include/c++/10.3.1/bits/stl_deque.h ****       typedef typename _Base::_Alloc_traits		_Alloc_traits;
 787:/Library/DaisyToolchain/0.2.0/arm/arm-none-eabi/include/c++/10.3.1/bits/stl_deque.h ****       typedef typename _Base::_Map_pointer		_Map_pointer;
 788:/Library/DaisyToolchain/0.2.0/arm/arm-none-eabi/include/c++/10.3.1/bits/stl_deque.h **** 
 789:/Library/DaisyToolchain/0.2.0/arm/arm-none-eabi/include/c++/10.3.1/bits/stl_deque.h ****     public:
 790:/Library/DaisyToolchain/0.2.0/arm/arm-none-eabi/include/c++/10.3.1/bits/stl_deque.h ****       typedef _Tp					value_type;
 791:/Library/DaisyToolchain/0.2.0/arm/arm-none-eabi/include/c++/10.3.1/bits/stl_deque.h ****       typedef typename _Alloc_traits::pointer		pointer;
 792:/Library/DaisyToolchain/0.2.0/arm/arm-none-eabi/include/c++/10.3.1/bits/stl_deque.h ****       typedef typename _Alloc_traits::const_pointer	const_pointer;
 793:/Library/DaisyToolchain/0.2.0/arm/arm-none-eabi/include/c++/10.3.1/bits/stl_deque.h ****       typedef typename _Alloc_traits::reference		reference;
 794:/Library/DaisyToolchain/0.2.0/arm/arm-none-eabi/include/c++/10.3.1/bits/stl_deque.h ****       typedef typename _Alloc_traits::const_reference	const_reference;
ARM GAS  /var/folders/s6/2bsynnl15rj0bwtb9pgx4dc00000gn/T//cc76hY55.s 			page 66


 795:/Library/DaisyToolchain/0.2.0/arm/arm-none-eabi/include/c++/10.3.1/bits/stl_deque.h ****       typedef typename _Base::iterator			iterator;
 796:/Library/DaisyToolchain/0.2.0/arm/arm-none-eabi/include/c++/10.3.1/bits/stl_deque.h ****       typedef typename _Base::const_iterator		const_iterator;
 797:/Library/DaisyToolchain/0.2.0/arm/arm-none-eabi/include/c++/10.3.1/bits/stl_deque.h ****       typedef std::reverse_iterator<const_iterator>	const_reverse_iterator;
 798:/Library/DaisyToolchain/0.2.0/arm/arm-none-eabi/include/c++/10.3.1/bits/stl_deque.h ****       typedef std::reverse_iterator<iterator>		reverse_iterator;
 799:/Library/DaisyToolchain/0.2.0/arm/arm-none-eabi/include/c++/10.3.1/bits/stl_deque.h ****       typedef size_t					size_type;
 800:/Library/DaisyToolchain/0.2.0/arm/arm-none-eabi/include/c++/10.3.1/bits/stl_deque.h ****       typedef ptrdiff_t					difference_type;
 801:/Library/DaisyToolchain/0.2.0/arm/arm-none-eabi/include/c++/10.3.1/bits/stl_deque.h ****       typedef _Alloc					allocator_type;
 802:/Library/DaisyToolchain/0.2.0/arm/arm-none-eabi/include/c++/10.3.1/bits/stl_deque.h **** 
 803:/Library/DaisyToolchain/0.2.0/arm/arm-none-eabi/include/c++/10.3.1/bits/stl_deque.h ****     private:
 804:/Library/DaisyToolchain/0.2.0/arm/arm-none-eabi/include/c++/10.3.1/bits/stl_deque.h ****       static size_t _S_buffer_size() _GLIBCXX_NOEXCEPT
 805:/Library/DaisyToolchain/0.2.0/arm/arm-none-eabi/include/c++/10.3.1/bits/stl_deque.h ****       { return __deque_buf_size(sizeof(_Tp)); }
 806:/Library/DaisyToolchain/0.2.0/arm/arm-none-eabi/include/c++/10.3.1/bits/stl_deque.h **** 
 807:/Library/DaisyToolchain/0.2.0/arm/arm-none-eabi/include/c++/10.3.1/bits/stl_deque.h ****       // Functions controlling memory layout, and nothing else.
 808:/Library/DaisyToolchain/0.2.0/arm/arm-none-eabi/include/c++/10.3.1/bits/stl_deque.h ****       using _Base::_M_initialize_map;
 809:/Library/DaisyToolchain/0.2.0/arm/arm-none-eabi/include/c++/10.3.1/bits/stl_deque.h ****       using _Base::_M_create_nodes;
 810:/Library/DaisyToolchain/0.2.0/arm/arm-none-eabi/include/c++/10.3.1/bits/stl_deque.h ****       using _Base::_M_destroy_nodes;
 811:/Library/DaisyToolchain/0.2.0/arm/arm-none-eabi/include/c++/10.3.1/bits/stl_deque.h ****       using _Base::_M_allocate_node;
 812:/Library/DaisyToolchain/0.2.0/arm/arm-none-eabi/include/c++/10.3.1/bits/stl_deque.h ****       using _Base::_M_deallocate_node;
 813:/Library/DaisyToolchain/0.2.0/arm/arm-none-eabi/include/c++/10.3.1/bits/stl_deque.h ****       using _Base::_M_allocate_map;
 814:/Library/DaisyToolchain/0.2.0/arm/arm-none-eabi/include/c++/10.3.1/bits/stl_deque.h ****       using _Base::_M_deallocate_map;
 815:/Library/DaisyToolchain/0.2.0/arm/arm-none-eabi/include/c++/10.3.1/bits/stl_deque.h ****       using _Base::_M_get_Tp_allocator;
 816:/Library/DaisyToolchain/0.2.0/arm/arm-none-eabi/include/c++/10.3.1/bits/stl_deque.h **** 
 817:/Library/DaisyToolchain/0.2.0/arm/arm-none-eabi/include/c++/10.3.1/bits/stl_deque.h ****       /**
 818:/Library/DaisyToolchain/0.2.0/arm/arm-none-eabi/include/c++/10.3.1/bits/stl_deque.h ****        *  A total of four data members accumulated down the hierarchy.
 819:/Library/DaisyToolchain/0.2.0/arm/arm-none-eabi/include/c++/10.3.1/bits/stl_deque.h ****        *  May be accessed via _M_impl.*
 820:/Library/DaisyToolchain/0.2.0/arm/arm-none-eabi/include/c++/10.3.1/bits/stl_deque.h ****        */
 821:/Library/DaisyToolchain/0.2.0/arm/arm-none-eabi/include/c++/10.3.1/bits/stl_deque.h ****       using _Base::_M_impl;
 822:/Library/DaisyToolchain/0.2.0/arm/arm-none-eabi/include/c++/10.3.1/bits/stl_deque.h **** 
 823:/Library/DaisyToolchain/0.2.0/arm/arm-none-eabi/include/c++/10.3.1/bits/stl_deque.h ****     public:
 824:/Library/DaisyToolchain/0.2.0/arm/arm-none-eabi/include/c++/10.3.1/bits/stl_deque.h ****       // [23.2.1.1] construct/copy/destroy
 825:/Library/DaisyToolchain/0.2.0/arm/arm-none-eabi/include/c++/10.3.1/bits/stl_deque.h ****       // (assign() and get_allocator() are also listed in this section)
 826:/Library/DaisyToolchain/0.2.0/arm/arm-none-eabi/include/c++/10.3.1/bits/stl_deque.h **** 
 827:/Library/DaisyToolchain/0.2.0/arm/arm-none-eabi/include/c++/10.3.1/bits/stl_deque.h ****       /**
 828:/Library/DaisyToolchain/0.2.0/arm/arm-none-eabi/include/c++/10.3.1/bits/stl_deque.h ****        *  @brief  Creates a %deque with no elements.
 829:/Library/DaisyToolchain/0.2.0/arm/arm-none-eabi/include/c++/10.3.1/bits/stl_deque.h ****        */
 830:/Library/DaisyToolchain/0.2.0/arm/arm-none-eabi/include/c++/10.3.1/bits/stl_deque.h **** #if __cplusplus >= 201103L
 831:/Library/DaisyToolchain/0.2.0/arm/arm-none-eabi/include/c++/10.3.1/bits/stl_deque.h ****       deque() = default;
 832:/Library/DaisyToolchain/0.2.0/arm/arm-none-eabi/include/c++/10.3.1/bits/stl_deque.h **** #else
 833:/Library/DaisyToolchain/0.2.0/arm/arm-none-eabi/include/c++/10.3.1/bits/stl_deque.h ****       deque() { }
 834:/Library/DaisyToolchain/0.2.0/arm/arm-none-eabi/include/c++/10.3.1/bits/stl_deque.h **** #endif
 835:/Library/DaisyToolchain/0.2.0/arm/arm-none-eabi/include/c++/10.3.1/bits/stl_deque.h **** 
 836:/Library/DaisyToolchain/0.2.0/arm/arm-none-eabi/include/c++/10.3.1/bits/stl_deque.h ****       /**
 837:/Library/DaisyToolchain/0.2.0/arm/arm-none-eabi/include/c++/10.3.1/bits/stl_deque.h ****        *  @brief  Creates a %deque with no elements.
 838:/Library/DaisyToolchain/0.2.0/arm/arm-none-eabi/include/c++/10.3.1/bits/stl_deque.h ****        *  @param  __a  An allocator object.
 839:/Library/DaisyToolchain/0.2.0/arm/arm-none-eabi/include/c++/10.3.1/bits/stl_deque.h ****        */
 840:/Library/DaisyToolchain/0.2.0/arm/arm-none-eabi/include/c++/10.3.1/bits/stl_deque.h ****       explicit
 841:/Library/DaisyToolchain/0.2.0/arm/arm-none-eabi/include/c++/10.3.1/bits/stl_deque.h ****       deque(const allocator_type& __a)
 842:/Library/DaisyToolchain/0.2.0/arm/arm-none-eabi/include/c++/10.3.1/bits/stl_deque.h ****       : _Base(__a, 0) { }
 843:/Library/DaisyToolchain/0.2.0/arm/arm-none-eabi/include/c++/10.3.1/bits/stl_deque.h **** 
 844:/Library/DaisyToolchain/0.2.0/arm/arm-none-eabi/include/c++/10.3.1/bits/stl_deque.h **** #if __cplusplus >= 201103L
 845:/Library/DaisyToolchain/0.2.0/arm/arm-none-eabi/include/c++/10.3.1/bits/stl_deque.h ****       /**
 846:/Library/DaisyToolchain/0.2.0/arm/arm-none-eabi/include/c++/10.3.1/bits/stl_deque.h ****        *  @brief  Creates a %deque with default constructed elements.
 847:/Library/DaisyToolchain/0.2.0/arm/arm-none-eabi/include/c++/10.3.1/bits/stl_deque.h ****        *  @param  __n  The number of elements to initially create.
 848:/Library/DaisyToolchain/0.2.0/arm/arm-none-eabi/include/c++/10.3.1/bits/stl_deque.h ****        *  @param  __a  An allocator.
 849:/Library/DaisyToolchain/0.2.0/arm/arm-none-eabi/include/c++/10.3.1/bits/stl_deque.h ****        *
 850:/Library/DaisyToolchain/0.2.0/arm/arm-none-eabi/include/c++/10.3.1/bits/stl_deque.h ****        *  This constructor fills the %deque with @a n default
 851:/Library/DaisyToolchain/0.2.0/arm/arm-none-eabi/include/c++/10.3.1/bits/stl_deque.h ****        *  constructed elements.
ARM GAS  /var/folders/s6/2bsynnl15rj0bwtb9pgx4dc00000gn/T//cc76hY55.s 			page 67


 852:/Library/DaisyToolchain/0.2.0/arm/arm-none-eabi/include/c++/10.3.1/bits/stl_deque.h ****        */
 853:/Library/DaisyToolchain/0.2.0/arm/arm-none-eabi/include/c++/10.3.1/bits/stl_deque.h ****       explicit
 854:/Library/DaisyToolchain/0.2.0/arm/arm-none-eabi/include/c++/10.3.1/bits/stl_deque.h ****       deque(size_type __n, const allocator_type& __a = allocator_type())
 855:/Library/DaisyToolchain/0.2.0/arm/arm-none-eabi/include/c++/10.3.1/bits/stl_deque.h ****       : _Base(__a, _S_check_init_len(__n, __a))
 856:/Library/DaisyToolchain/0.2.0/arm/arm-none-eabi/include/c++/10.3.1/bits/stl_deque.h ****       { _M_default_initialize(); }
 857:/Library/DaisyToolchain/0.2.0/arm/arm-none-eabi/include/c++/10.3.1/bits/stl_deque.h **** 
 858:/Library/DaisyToolchain/0.2.0/arm/arm-none-eabi/include/c++/10.3.1/bits/stl_deque.h ****       /**
 859:/Library/DaisyToolchain/0.2.0/arm/arm-none-eabi/include/c++/10.3.1/bits/stl_deque.h ****        *  @brief  Creates a %deque with copies of an exemplar element.
 860:/Library/DaisyToolchain/0.2.0/arm/arm-none-eabi/include/c++/10.3.1/bits/stl_deque.h ****        *  @param  __n  The number of elements to initially create.
 861:/Library/DaisyToolchain/0.2.0/arm/arm-none-eabi/include/c++/10.3.1/bits/stl_deque.h ****        *  @param  __value  An element to copy.
 862:/Library/DaisyToolchain/0.2.0/arm/arm-none-eabi/include/c++/10.3.1/bits/stl_deque.h ****        *  @param  __a  An allocator.
 863:/Library/DaisyToolchain/0.2.0/arm/arm-none-eabi/include/c++/10.3.1/bits/stl_deque.h ****        *
 864:/Library/DaisyToolchain/0.2.0/arm/arm-none-eabi/include/c++/10.3.1/bits/stl_deque.h ****        *  This constructor fills the %deque with @a __n copies of @a __value.
 865:/Library/DaisyToolchain/0.2.0/arm/arm-none-eabi/include/c++/10.3.1/bits/stl_deque.h ****        */
 866:/Library/DaisyToolchain/0.2.0/arm/arm-none-eabi/include/c++/10.3.1/bits/stl_deque.h ****       deque(size_type __n, const value_type& __value,
 867:/Library/DaisyToolchain/0.2.0/arm/arm-none-eabi/include/c++/10.3.1/bits/stl_deque.h **** 	    const allocator_type& __a = allocator_type())
 868:/Library/DaisyToolchain/0.2.0/arm/arm-none-eabi/include/c++/10.3.1/bits/stl_deque.h ****       : _Base(__a, _S_check_init_len(__n, __a))
 869:/Library/DaisyToolchain/0.2.0/arm/arm-none-eabi/include/c++/10.3.1/bits/stl_deque.h ****       { _M_fill_initialize(__value); }
 870:/Library/DaisyToolchain/0.2.0/arm/arm-none-eabi/include/c++/10.3.1/bits/stl_deque.h **** #else
 871:/Library/DaisyToolchain/0.2.0/arm/arm-none-eabi/include/c++/10.3.1/bits/stl_deque.h ****       /**
 872:/Library/DaisyToolchain/0.2.0/arm/arm-none-eabi/include/c++/10.3.1/bits/stl_deque.h ****        *  @brief  Creates a %deque with copies of an exemplar element.
 873:/Library/DaisyToolchain/0.2.0/arm/arm-none-eabi/include/c++/10.3.1/bits/stl_deque.h ****        *  @param  __n  The number of elements to initially create.
 874:/Library/DaisyToolchain/0.2.0/arm/arm-none-eabi/include/c++/10.3.1/bits/stl_deque.h ****        *  @param  __value  An element to copy.
 875:/Library/DaisyToolchain/0.2.0/arm/arm-none-eabi/include/c++/10.3.1/bits/stl_deque.h ****        *  @param  __a  An allocator.
 876:/Library/DaisyToolchain/0.2.0/arm/arm-none-eabi/include/c++/10.3.1/bits/stl_deque.h ****        *
 877:/Library/DaisyToolchain/0.2.0/arm/arm-none-eabi/include/c++/10.3.1/bits/stl_deque.h ****        *  This constructor fills the %deque with @a __n copies of @a __value.
 878:/Library/DaisyToolchain/0.2.0/arm/arm-none-eabi/include/c++/10.3.1/bits/stl_deque.h ****        */
 879:/Library/DaisyToolchain/0.2.0/arm/arm-none-eabi/include/c++/10.3.1/bits/stl_deque.h ****       explicit
 880:/Library/DaisyToolchain/0.2.0/arm/arm-none-eabi/include/c++/10.3.1/bits/stl_deque.h ****       deque(size_type __n, const value_type& __value = value_type(),
 881:/Library/DaisyToolchain/0.2.0/arm/arm-none-eabi/include/c++/10.3.1/bits/stl_deque.h **** 	    const allocator_type& __a = allocator_type())
 882:/Library/DaisyToolchain/0.2.0/arm/arm-none-eabi/include/c++/10.3.1/bits/stl_deque.h ****       : _Base(__a, _S_check_init_len(__n, __a))
 883:/Library/DaisyToolchain/0.2.0/arm/arm-none-eabi/include/c++/10.3.1/bits/stl_deque.h ****       { _M_fill_initialize(__value); }
 884:/Library/DaisyToolchain/0.2.0/arm/arm-none-eabi/include/c++/10.3.1/bits/stl_deque.h **** #endif
 885:/Library/DaisyToolchain/0.2.0/arm/arm-none-eabi/include/c++/10.3.1/bits/stl_deque.h **** 
 886:/Library/DaisyToolchain/0.2.0/arm/arm-none-eabi/include/c++/10.3.1/bits/stl_deque.h ****       /**
 887:/Library/DaisyToolchain/0.2.0/arm/arm-none-eabi/include/c++/10.3.1/bits/stl_deque.h ****        *  @brief  %Deque copy constructor.
 888:/Library/DaisyToolchain/0.2.0/arm/arm-none-eabi/include/c++/10.3.1/bits/stl_deque.h ****        *  @param  __x  A %deque of identical element and allocator types.
 889:/Library/DaisyToolchain/0.2.0/arm/arm-none-eabi/include/c++/10.3.1/bits/stl_deque.h ****        *
 890:/Library/DaisyToolchain/0.2.0/arm/arm-none-eabi/include/c++/10.3.1/bits/stl_deque.h ****        *  The newly-created %deque uses a copy of the allocator object used
 891:/Library/DaisyToolchain/0.2.0/arm/arm-none-eabi/include/c++/10.3.1/bits/stl_deque.h ****        *  by @a __x (unless the allocator traits dictate a different object).
 892:/Library/DaisyToolchain/0.2.0/arm/arm-none-eabi/include/c++/10.3.1/bits/stl_deque.h ****        */
 893:/Library/DaisyToolchain/0.2.0/arm/arm-none-eabi/include/c++/10.3.1/bits/stl_deque.h ****       deque(const deque& __x)
 894:/Library/DaisyToolchain/0.2.0/arm/arm-none-eabi/include/c++/10.3.1/bits/stl_deque.h ****       : _Base(_Alloc_traits::_S_select_on_copy(__x._M_get_Tp_allocator()),
 895:/Library/DaisyToolchain/0.2.0/arm/arm-none-eabi/include/c++/10.3.1/bits/stl_deque.h **** 	      __x.size())
 896:/Library/DaisyToolchain/0.2.0/arm/arm-none-eabi/include/c++/10.3.1/bits/stl_deque.h ****       { std::__uninitialized_copy_a(__x.begin(), __x.end(),
 897:/Library/DaisyToolchain/0.2.0/arm/arm-none-eabi/include/c++/10.3.1/bits/stl_deque.h **** 				    this->_M_impl._M_start,
 898:/Library/DaisyToolchain/0.2.0/arm/arm-none-eabi/include/c++/10.3.1/bits/stl_deque.h **** 				    _M_get_Tp_allocator()); }
 899:/Library/DaisyToolchain/0.2.0/arm/arm-none-eabi/include/c++/10.3.1/bits/stl_deque.h **** 
 900:/Library/DaisyToolchain/0.2.0/arm/arm-none-eabi/include/c++/10.3.1/bits/stl_deque.h **** #if __cplusplus >= 201103L
 901:/Library/DaisyToolchain/0.2.0/arm/arm-none-eabi/include/c++/10.3.1/bits/stl_deque.h ****       /**
 902:/Library/DaisyToolchain/0.2.0/arm/arm-none-eabi/include/c++/10.3.1/bits/stl_deque.h ****        *  @brief  %Deque move constructor.
 903:/Library/DaisyToolchain/0.2.0/arm/arm-none-eabi/include/c++/10.3.1/bits/stl_deque.h ****        *
 904:/Library/DaisyToolchain/0.2.0/arm/arm-none-eabi/include/c++/10.3.1/bits/stl_deque.h ****        *  The newly-created %deque contains the exact contents of the
 905:/Library/DaisyToolchain/0.2.0/arm/arm-none-eabi/include/c++/10.3.1/bits/stl_deque.h ****        *  moved instance.
 906:/Library/DaisyToolchain/0.2.0/arm/arm-none-eabi/include/c++/10.3.1/bits/stl_deque.h ****        *  The contents of the moved instance are a valid, but unspecified
 907:/Library/DaisyToolchain/0.2.0/arm/arm-none-eabi/include/c++/10.3.1/bits/stl_deque.h ****        *  %deque.
 908:/Library/DaisyToolchain/0.2.0/arm/arm-none-eabi/include/c++/10.3.1/bits/stl_deque.h ****        */
ARM GAS  /var/folders/s6/2bsynnl15rj0bwtb9pgx4dc00000gn/T//cc76hY55.s 			page 68


 909:/Library/DaisyToolchain/0.2.0/arm/arm-none-eabi/include/c++/10.3.1/bits/stl_deque.h ****       deque(deque&&) = default;
 910:/Library/DaisyToolchain/0.2.0/arm/arm-none-eabi/include/c++/10.3.1/bits/stl_deque.h **** 
 911:/Library/DaisyToolchain/0.2.0/arm/arm-none-eabi/include/c++/10.3.1/bits/stl_deque.h ****       /// Copy constructor with alternative allocator
 912:/Library/DaisyToolchain/0.2.0/arm/arm-none-eabi/include/c++/10.3.1/bits/stl_deque.h ****       deque(const deque& __x, const allocator_type& __a)
 913:/Library/DaisyToolchain/0.2.0/arm/arm-none-eabi/include/c++/10.3.1/bits/stl_deque.h ****       : _Base(__a, __x.size())
 914:/Library/DaisyToolchain/0.2.0/arm/arm-none-eabi/include/c++/10.3.1/bits/stl_deque.h ****       { std::__uninitialized_copy_a(__x.begin(), __x.end(),
 915:/Library/DaisyToolchain/0.2.0/arm/arm-none-eabi/include/c++/10.3.1/bits/stl_deque.h **** 				    this->_M_impl._M_start,
 916:/Library/DaisyToolchain/0.2.0/arm/arm-none-eabi/include/c++/10.3.1/bits/stl_deque.h **** 				    _M_get_Tp_allocator()); }
 917:/Library/DaisyToolchain/0.2.0/arm/arm-none-eabi/include/c++/10.3.1/bits/stl_deque.h **** 
 918:/Library/DaisyToolchain/0.2.0/arm/arm-none-eabi/include/c++/10.3.1/bits/stl_deque.h ****       /// Move constructor with alternative allocator
 919:/Library/DaisyToolchain/0.2.0/arm/arm-none-eabi/include/c++/10.3.1/bits/stl_deque.h ****       deque(deque&& __x, const allocator_type& __a)
 920:/Library/DaisyToolchain/0.2.0/arm/arm-none-eabi/include/c++/10.3.1/bits/stl_deque.h ****       : deque(std::move(__x), __a, typename _Alloc_traits::is_always_equal{})
 921:/Library/DaisyToolchain/0.2.0/arm/arm-none-eabi/include/c++/10.3.1/bits/stl_deque.h ****       { }
 922:/Library/DaisyToolchain/0.2.0/arm/arm-none-eabi/include/c++/10.3.1/bits/stl_deque.h **** 
 923:/Library/DaisyToolchain/0.2.0/arm/arm-none-eabi/include/c++/10.3.1/bits/stl_deque.h ****     private:
 924:/Library/DaisyToolchain/0.2.0/arm/arm-none-eabi/include/c++/10.3.1/bits/stl_deque.h ****       deque(deque&& __x, const allocator_type& __a, true_type)
 925:/Library/DaisyToolchain/0.2.0/arm/arm-none-eabi/include/c++/10.3.1/bits/stl_deque.h ****       : _Base(std::move(__x), __a)
 926:/Library/DaisyToolchain/0.2.0/arm/arm-none-eabi/include/c++/10.3.1/bits/stl_deque.h ****       { }
 927:/Library/DaisyToolchain/0.2.0/arm/arm-none-eabi/include/c++/10.3.1/bits/stl_deque.h **** 
 928:/Library/DaisyToolchain/0.2.0/arm/arm-none-eabi/include/c++/10.3.1/bits/stl_deque.h ****       deque(deque&& __x, const allocator_type& __a, false_type)
 929:/Library/DaisyToolchain/0.2.0/arm/arm-none-eabi/include/c++/10.3.1/bits/stl_deque.h ****       : _Base(std::move(__x), __a, __x.size())
 930:/Library/DaisyToolchain/0.2.0/arm/arm-none-eabi/include/c++/10.3.1/bits/stl_deque.h ****       {
 931:/Library/DaisyToolchain/0.2.0/arm/arm-none-eabi/include/c++/10.3.1/bits/stl_deque.h **** 	if (__x.get_allocator() != __a && !__x.empty())
 932:/Library/DaisyToolchain/0.2.0/arm/arm-none-eabi/include/c++/10.3.1/bits/stl_deque.h **** 	  {
 933:/Library/DaisyToolchain/0.2.0/arm/arm-none-eabi/include/c++/10.3.1/bits/stl_deque.h **** 	    std::__uninitialized_move_a(__x.begin(), __x.end(),
 934:/Library/DaisyToolchain/0.2.0/arm/arm-none-eabi/include/c++/10.3.1/bits/stl_deque.h **** 					this->_M_impl._M_start,
 935:/Library/DaisyToolchain/0.2.0/arm/arm-none-eabi/include/c++/10.3.1/bits/stl_deque.h **** 					_M_get_Tp_allocator());
 936:/Library/DaisyToolchain/0.2.0/arm/arm-none-eabi/include/c++/10.3.1/bits/stl_deque.h **** 	    __x.clear();
 937:/Library/DaisyToolchain/0.2.0/arm/arm-none-eabi/include/c++/10.3.1/bits/stl_deque.h **** 	  }
 938:/Library/DaisyToolchain/0.2.0/arm/arm-none-eabi/include/c++/10.3.1/bits/stl_deque.h ****       }
 939:/Library/DaisyToolchain/0.2.0/arm/arm-none-eabi/include/c++/10.3.1/bits/stl_deque.h **** 
 940:/Library/DaisyToolchain/0.2.0/arm/arm-none-eabi/include/c++/10.3.1/bits/stl_deque.h ****     public:
 941:/Library/DaisyToolchain/0.2.0/arm/arm-none-eabi/include/c++/10.3.1/bits/stl_deque.h ****       /**
 942:/Library/DaisyToolchain/0.2.0/arm/arm-none-eabi/include/c++/10.3.1/bits/stl_deque.h ****        *  @brief  Builds a %deque from an initializer list.
 943:/Library/DaisyToolchain/0.2.0/arm/arm-none-eabi/include/c++/10.3.1/bits/stl_deque.h ****        *  @param  __l  An initializer_list.
 944:/Library/DaisyToolchain/0.2.0/arm/arm-none-eabi/include/c++/10.3.1/bits/stl_deque.h ****        *  @param  __a  An allocator object.
 945:/Library/DaisyToolchain/0.2.0/arm/arm-none-eabi/include/c++/10.3.1/bits/stl_deque.h ****        *
 946:/Library/DaisyToolchain/0.2.0/arm/arm-none-eabi/include/c++/10.3.1/bits/stl_deque.h ****        *  Create a %deque consisting of copies of the elements in the
 947:/Library/DaisyToolchain/0.2.0/arm/arm-none-eabi/include/c++/10.3.1/bits/stl_deque.h ****        *  initializer_list @a __l.
 948:/Library/DaisyToolchain/0.2.0/arm/arm-none-eabi/include/c++/10.3.1/bits/stl_deque.h ****        *
 949:/Library/DaisyToolchain/0.2.0/arm/arm-none-eabi/include/c++/10.3.1/bits/stl_deque.h ****        *  This will call the element type's copy constructor N times
 950:/Library/DaisyToolchain/0.2.0/arm/arm-none-eabi/include/c++/10.3.1/bits/stl_deque.h ****        *  (where N is __l.size()) and do no memory reallocation.
 951:/Library/DaisyToolchain/0.2.0/arm/arm-none-eabi/include/c++/10.3.1/bits/stl_deque.h ****        */
 952:/Library/DaisyToolchain/0.2.0/arm/arm-none-eabi/include/c++/10.3.1/bits/stl_deque.h ****       deque(initializer_list<value_type> __l,
 953:/Library/DaisyToolchain/0.2.0/arm/arm-none-eabi/include/c++/10.3.1/bits/stl_deque.h **** 	    const allocator_type& __a = allocator_type())
 954:/Library/DaisyToolchain/0.2.0/arm/arm-none-eabi/include/c++/10.3.1/bits/stl_deque.h ****       : _Base(__a)
 955:/Library/DaisyToolchain/0.2.0/arm/arm-none-eabi/include/c++/10.3.1/bits/stl_deque.h ****       {
 956:/Library/DaisyToolchain/0.2.0/arm/arm-none-eabi/include/c++/10.3.1/bits/stl_deque.h **** 	_M_range_initialize(__l.begin(), __l.end(),
 957:/Library/DaisyToolchain/0.2.0/arm/arm-none-eabi/include/c++/10.3.1/bits/stl_deque.h **** 			    random_access_iterator_tag());
 958:/Library/DaisyToolchain/0.2.0/arm/arm-none-eabi/include/c++/10.3.1/bits/stl_deque.h ****       }
 959:/Library/DaisyToolchain/0.2.0/arm/arm-none-eabi/include/c++/10.3.1/bits/stl_deque.h **** #endif
 960:/Library/DaisyToolchain/0.2.0/arm/arm-none-eabi/include/c++/10.3.1/bits/stl_deque.h **** 
 961:/Library/DaisyToolchain/0.2.0/arm/arm-none-eabi/include/c++/10.3.1/bits/stl_deque.h ****       /**
 962:/Library/DaisyToolchain/0.2.0/arm/arm-none-eabi/include/c++/10.3.1/bits/stl_deque.h ****        *  @brief  Builds a %deque from a range.
 963:/Library/DaisyToolchain/0.2.0/arm/arm-none-eabi/include/c++/10.3.1/bits/stl_deque.h ****        *  @param  __first  An input iterator.
 964:/Library/DaisyToolchain/0.2.0/arm/arm-none-eabi/include/c++/10.3.1/bits/stl_deque.h ****        *  @param  __last  An input iterator.
 965:/Library/DaisyToolchain/0.2.0/arm/arm-none-eabi/include/c++/10.3.1/bits/stl_deque.h ****        *  @param  __a  An allocator object.
ARM GAS  /var/folders/s6/2bsynnl15rj0bwtb9pgx4dc00000gn/T//cc76hY55.s 			page 69


 966:/Library/DaisyToolchain/0.2.0/arm/arm-none-eabi/include/c++/10.3.1/bits/stl_deque.h ****        *
 967:/Library/DaisyToolchain/0.2.0/arm/arm-none-eabi/include/c++/10.3.1/bits/stl_deque.h ****        *  Create a %deque consisting of copies of the elements from [__first,
 968:/Library/DaisyToolchain/0.2.0/arm/arm-none-eabi/include/c++/10.3.1/bits/stl_deque.h ****        *  __last).
 969:/Library/DaisyToolchain/0.2.0/arm/arm-none-eabi/include/c++/10.3.1/bits/stl_deque.h ****        *
 970:/Library/DaisyToolchain/0.2.0/arm/arm-none-eabi/include/c++/10.3.1/bits/stl_deque.h ****        *  If the iterators are forward, bidirectional, or random-access, then
 971:/Library/DaisyToolchain/0.2.0/arm/arm-none-eabi/include/c++/10.3.1/bits/stl_deque.h ****        *  this will call the elements' copy constructor N times (where N is
 972:/Library/DaisyToolchain/0.2.0/arm/arm-none-eabi/include/c++/10.3.1/bits/stl_deque.h ****        *  distance(__first,__last)) and do no memory reallocation.  But if only
 973:/Library/DaisyToolchain/0.2.0/arm/arm-none-eabi/include/c++/10.3.1/bits/stl_deque.h ****        *  input iterators are used, then this will do at most 2N calls to the
 974:/Library/DaisyToolchain/0.2.0/arm/arm-none-eabi/include/c++/10.3.1/bits/stl_deque.h ****        *  copy constructor, and logN memory reallocations.
 975:/Library/DaisyToolchain/0.2.0/arm/arm-none-eabi/include/c++/10.3.1/bits/stl_deque.h ****        */
 976:/Library/DaisyToolchain/0.2.0/arm/arm-none-eabi/include/c++/10.3.1/bits/stl_deque.h **** #if __cplusplus >= 201103L
 977:/Library/DaisyToolchain/0.2.0/arm/arm-none-eabi/include/c++/10.3.1/bits/stl_deque.h ****       template<typename _InputIterator,
 978:/Library/DaisyToolchain/0.2.0/arm/arm-none-eabi/include/c++/10.3.1/bits/stl_deque.h **** 	       typename = std::_RequireInputIter<_InputIterator>>
 979:/Library/DaisyToolchain/0.2.0/arm/arm-none-eabi/include/c++/10.3.1/bits/stl_deque.h **** 	deque(_InputIterator __first, _InputIterator __last,
 980:/Library/DaisyToolchain/0.2.0/arm/arm-none-eabi/include/c++/10.3.1/bits/stl_deque.h **** 	      const allocator_type& __a = allocator_type())
 981:/Library/DaisyToolchain/0.2.0/arm/arm-none-eabi/include/c++/10.3.1/bits/stl_deque.h **** 	: _Base(__a)
 982:/Library/DaisyToolchain/0.2.0/arm/arm-none-eabi/include/c++/10.3.1/bits/stl_deque.h **** 	{
 983:/Library/DaisyToolchain/0.2.0/arm/arm-none-eabi/include/c++/10.3.1/bits/stl_deque.h **** 	  _M_range_initialize(__first, __last,
 984:/Library/DaisyToolchain/0.2.0/arm/arm-none-eabi/include/c++/10.3.1/bits/stl_deque.h **** 			      std::__iterator_category(__first));
 985:/Library/DaisyToolchain/0.2.0/arm/arm-none-eabi/include/c++/10.3.1/bits/stl_deque.h **** 	}
 986:/Library/DaisyToolchain/0.2.0/arm/arm-none-eabi/include/c++/10.3.1/bits/stl_deque.h **** #else
 987:/Library/DaisyToolchain/0.2.0/arm/arm-none-eabi/include/c++/10.3.1/bits/stl_deque.h ****       template<typename _InputIterator>
 988:/Library/DaisyToolchain/0.2.0/arm/arm-none-eabi/include/c++/10.3.1/bits/stl_deque.h **** 	deque(_InputIterator __first, _InputIterator __last,
 989:/Library/DaisyToolchain/0.2.0/arm/arm-none-eabi/include/c++/10.3.1/bits/stl_deque.h **** 	      const allocator_type& __a = allocator_type())
 990:/Library/DaisyToolchain/0.2.0/arm/arm-none-eabi/include/c++/10.3.1/bits/stl_deque.h **** 	: _Base(__a)
 991:/Library/DaisyToolchain/0.2.0/arm/arm-none-eabi/include/c++/10.3.1/bits/stl_deque.h **** 	{
 992:/Library/DaisyToolchain/0.2.0/arm/arm-none-eabi/include/c++/10.3.1/bits/stl_deque.h **** 	  // Check whether it's an integral type.  If so, it's not an iterator.
 993:/Library/DaisyToolchain/0.2.0/arm/arm-none-eabi/include/c++/10.3.1/bits/stl_deque.h **** 	  typedef typename std::__is_integer<_InputIterator>::__type _Integral;
 994:/Library/DaisyToolchain/0.2.0/arm/arm-none-eabi/include/c++/10.3.1/bits/stl_deque.h **** 	  _M_initialize_dispatch(__first, __last, _Integral());
 995:/Library/DaisyToolchain/0.2.0/arm/arm-none-eabi/include/c++/10.3.1/bits/stl_deque.h **** 	}
 996:/Library/DaisyToolchain/0.2.0/arm/arm-none-eabi/include/c++/10.3.1/bits/stl_deque.h **** #endif
 997:/Library/DaisyToolchain/0.2.0/arm/arm-none-eabi/include/c++/10.3.1/bits/stl_deque.h **** 
 998:/Library/DaisyToolchain/0.2.0/arm/arm-none-eabi/include/c++/10.3.1/bits/stl_deque.h ****       /**
 999:/Library/DaisyToolchain/0.2.0/arm/arm-none-eabi/include/c++/10.3.1/bits/stl_deque.h ****        *  The dtor only erases the elements, and note that if the elements
1000:/Library/DaisyToolchain/0.2.0/arm/arm-none-eabi/include/c++/10.3.1/bits/stl_deque.h ****        *  themselves are pointers, the pointed-to memory is not touched in any
1001:/Library/DaisyToolchain/0.2.0/arm/arm-none-eabi/include/c++/10.3.1/bits/stl_deque.h ****        *  way.  Managing the pointer is the user's responsibility.
1002:/Library/DaisyToolchain/0.2.0/arm/arm-none-eabi/include/c++/10.3.1/bits/stl_deque.h ****        */
1003:/Library/DaisyToolchain/0.2.0/arm/arm-none-eabi/include/c++/10.3.1/bits/stl_deque.h ****       ~deque()
1004:/Library/DaisyToolchain/0.2.0/arm/arm-none-eabi/include/c++/10.3.1/bits/stl_deque.h ****       { _M_destroy_data(begin(), end(), _M_get_Tp_allocator()); }
1005:/Library/DaisyToolchain/0.2.0/arm/arm-none-eabi/include/c++/10.3.1/bits/stl_deque.h **** 
1006:/Library/DaisyToolchain/0.2.0/arm/arm-none-eabi/include/c++/10.3.1/bits/stl_deque.h ****       /**
1007:/Library/DaisyToolchain/0.2.0/arm/arm-none-eabi/include/c++/10.3.1/bits/stl_deque.h ****        *  @brief  %Deque assignment operator.
1008:/Library/DaisyToolchain/0.2.0/arm/arm-none-eabi/include/c++/10.3.1/bits/stl_deque.h ****        *  @param  __x  A %deque of identical element and allocator types.
1009:/Library/DaisyToolchain/0.2.0/arm/arm-none-eabi/include/c++/10.3.1/bits/stl_deque.h ****        *
1010:/Library/DaisyToolchain/0.2.0/arm/arm-none-eabi/include/c++/10.3.1/bits/stl_deque.h ****        *  All the elements of @a x are copied.
1011:/Library/DaisyToolchain/0.2.0/arm/arm-none-eabi/include/c++/10.3.1/bits/stl_deque.h ****        *
1012:/Library/DaisyToolchain/0.2.0/arm/arm-none-eabi/include/c++/10.3.1/bits/stl_deque.h ****        *  The newly-created %deque uses a copy of the allocator object used
1013:/Library/DaisyToolchain/0.2.0/arm/arm-none-eabi/include/c++/10.3.1/bits/stl_deque.h ****        *  by @a __x (unless the allocator traits dictate a different object).
1014:/Library/DaisyToolchain/0.2.0/arm/arm-none-eabi/include/c++/10.3.1/bits/stl_deque.h ****        */
1015:/Library/DaisyToolchain/0.2.0/arm/arm-none-eabi/include/c++/10.3.1/bits/stl_deque.h ****       deque&
1016:/Library/DaisyToolchain/0.2.0/arm/arm-none-eabi/include/c++/10.3.1/bits/stl_deque.h ****       operator=(const deque& __x);
1017:/Library/DaisyToolchain/0.2.0/arm/arm-none-eabi/include/c++/10.3.1/bits/stl_deque.h **** 
1018:/Library/DaisyToolchain/0.2.0/arm/arm-none-eabi/include/c++/10.3.1/bits/stl_deque.h **** #if __cplusplus >= 201103L
1019:/Library/DaisyToolchain/0.2.0/arm/arm-none-eabi/include/c++/10.3.1/bits/stl_deque.h ****       /**
1020:/Library/DaisyToolchain/0.2.0/arm/arm-none-eabi/include/c++/10.3.1/bits/stl_deque.h ****        *  @brief  %Deque move assignment operator.
1021:/Library/DaisyToolchain/0.2.0/arm/arm-none-eabi/include/c++/10.3.1/bits/stl_deque.h ****        *  @param  __x  A %deque of identical element and allocator types.
1022:/Library/DaisyToolchain/0.2.0/arm/arm-none-eabi/include/c++/10.3.1/bits/stl_deque.h ****        *
ARM GAS  /var/folders/s6/2bsynnl15rj0bwtb9pgx4dc00000gn/T//cc76hY55.s 			page 70


1023:/Library/DaisyToolchain/0.2.0/arm/arm-none-eabi/include/c++/10.3.1/bits/stl_deque.h ****        *  The contents of @a __x are moved into this deque (without copying,
1024:/Library/DaisyToolchain/0.2.0/arm/arm-none-eabi/include/c++/10.3.1/bits/stl_deque.h ****        *  if the allocators permit it).
1025:/Library/DaisyToolchain/0.2.0/arm/arm-none-eabi/include/c++/10.3.1/bits/stl_deque.h ****        *  @a __x is a valid, but unspecified %deque.
1026:/Library/DaisyToolchain/0.2.0/arm/arm-none-eabi/include/c++/10.3.1/bits/stl_deque.h ****        */
1027:/Library/DaisyToolchain/0.2.0/arm/arm-none-eabi/include/c++/10.3.1/bits/stl_deque.h ****       deque&
1028:/Library/DaisyToolchain/0.2.0/arm/arm-none-eabi/include/c++/10.3.1/bits/stl_deque.h ****       operator=(deque&& __x) noexcept(_Alloc_traits::_S_always_equal())
1029:/Library/DaisyToolchain/0.2.0/arm/arm-none-eabi/include/c++/10.3.1/bits/stl_deque.h ****       {
1030:/Library/DaisyToolchain/0.2.0/arm/arm-none-eabi/include/c++/10.3.1/bits/stl_deque.h **** 	using __always_equal = typename _Alloc_traits::is_always_equal;
1031:/Library/DaisyToolchain/0.2.0/arm/arm-none-eabi/include/c++/10.3.1/bits/stl_deque.h **** 	_M_move_assign1(std::move(__x), __always_equal{});
1032:/Library/DaisyToolchain/0.2.0/arm/arm-none-eabi/include/c++/10.3.1/bits/stl_deque.h **** 	return *this;
1033:/Library/DaisyToolchain/0.2.0/arm/arm-none-eabi/include/c++/10.3.1/bits/stl_deque.h ****       }
1034:/Library/DaisyToolchain/0.2.0/arm/arm-none-eabi/include/c++/10.3.1/bits/stl_deque.h **** 
1035:/Library/DaisyToolchain/0.2.0/arm/arm-none-eabi/include/c++/10.3.1/bits/stl_deque.h ****       /**
1036:/Library/DaisyToolchain/0.2.0/arm/arm-none-eabi/include/c++/10.3.1/bits/stl_deque.h ****        *  @brief  Assigns an initializer list to a %deque.
1037:/Library/DaisyToolchain/0.2.0/arm/arm-none-eabi/include/c++/10.3.1/bits/stl_deque.h ****        *  @param  __l  An initializer_list.
1038:/Library/DaisyToolchain/0.2.0/arm/arm-none-eabi/include/c++/10.3.1/bits/stl_deque.h ****        *
1039:/Library/DaisyToolchain/0.2.0/arm/arm-none-eabi/include/c++/10.3.1/bits/stl_deque.h ****        *  This function fills a %deque with copies of the elements in the
1040:/Library/DaisyToolchain/0.2.0/arm/arm-none-eabi/include/c++/10.3.1/bits/stl_deque.h ****        *  initializer_list @a __l.
1041:/Library/DaisyToolchain/0.2.0/arm/arm-none-eabi/include/c++/10.3.1/bits/stl_deque.h ****        *
1042:/Library/DaisyToolchain/0.2.0/arm/arm-none-eabi/include/c++/10.3.1/bits/stl_deque.h ****        *  Note that the assignment completely changes the %deque and that the
1043:/Library/DaisyToolchain/0.2.0/arm/arm-none-eabi/include/c++/10.3.1/bits/stl_deque.h ****        *  resulting %deque's size is the same as the number of elements
1044:/Library/DaisyToolchain/0.2.0/arm/arm-none-eabi/include/c++/10.3.1/bits/stl_deque.h ****        *  assigned.
1045:/Library/DaisyToolchain/0.2.0/arm/arm-none-eabi/include/c++/10.3.1/bits/stl_deque.h ****        */
1046:/Library/DaisyToolchain/0.2.0/arm/arm-none-eabi/include/c++/10.3.1/bits/stl_deque.h ****       deque&
1047:/Library/DaisyToolchain/0.2.0/arm/arm-none-eabi/include/c++/10.3.1/bits/stl_deque.h ****       operator=(initializer_list<value_type> __l)
1048:/Library/DaisyToolchain/0.2.0/arm/arm-none-eabi/include/c++/10.3.1/bits/stl_deque.h ****       {
1049:/Library/DaisyToolchain/0.2.0/arm/arm-none-eabi/include/c++/10.3.1/bits/stl_deque.h **** 	_M_assign_aux(__l.begin(), __l.end(),
1050:/Library/DaisyToolchain/0.2.0/arm/arm-none-eabi/include/c++/10.3.1/bits/stl_deque.h **** 		      random_access_iterator_tag());
1051:/Library/DaisyToolchain/0.2.0/arm/arm-none-eabi/include/c++/10.3.1/bits/stl_deque.h **** 	return *this;
1052:/Library/DaisyToolchain/0.2.0/arm/arm-none-eabi/include/c++/10.3.1/bits/stl_deque.h ****       }
1053:/Library/DaisyToolchain/0.2.0/arm/arm-none-eabi/include/c++/10.3.1/bits/stl_deque.h **** #endif
1054:/Library/DaisyToolchain/0.2.0/arm/arm-none-eabi/include/c++/10.3.1/bits/stl_deque.h **** 
1055:/Library/DaisyToolchain/0.2.0/arm/arm-none-eabi/include/c++/10.3.1/bits/stl_deque.h ****       /**
1056:/Library/DaisyToolchain/0.2.0/arm/arm-none-eabi/include/c++/10.3.1/bits/stl_deque.h ****        *  @brief  Assigns a given value to a %deque.
1057:/Library/DaisyToolchain/0.2.0/arm/arm-none-eabi/include/c++/10.3.1/bits/stl_deque.h ****        *  @param  __n  Number of elements to be assigned.
1058:/Library/DaisyToolchain/0.2.0/arm/arm-none-eabi/include/c++/10.3.1/bits/stl_deque.h ****        *  @param  __val  Value to be assigned.
1059:/Library/DaisyToolchain/0.2.0/arm/arm-none-eabi/include/c++/10.3.1/bits/stl_deque.h ****        *
1060:/Library/DaisyToolchain/0.2.0/arm/arm-none-eabi/include/c++/10.3.1/bits/stl_deque.h ****        *  This function fills a %deque with @a n copies of the given
1061:/Library/DaisyToolchain/0.2.0/arm/arm-none-eabi/include/c++/10.3.1/bits/stl_deque.h ****        *  value.  Note that the assignment completely changes the
1062:/Library/DaisyToolchain/0.2.0/arm/arm-none-eabi/include/c++/10.3.1/bits/stl_deque.h ****        *  %deque and that the resulting %deque's size is the same as
1063:/Library/DaisyToolchain/0.2.0/arm/arm-none-eabi/include/c++/10.3.1/bits/stl_deque.h ****        *  the number of elements assigned.
1064:/Library/DaisyToolchain/0.2.0/arm/arm-none-eabi/include/c++/10.3.1/bits/stl_deque.h ****        */
1065:/Library/DaisyToolchain/0.2.0/arm/arm-none-eabi/include/c++/10.3.1/bits/stl_deque.h ****       void
1066:/Library/DaisyToolchain/0.2.0/arm/arm-none-eabi/include/c++/10.3.1/bits/stl_deque.h ****       assign(size_type __n, const value_type& __val)
1067:/Library/DaisyToolchain/0.2.0/arm/arm-none-eabi/include/c++/10.3.1/bits/stl_deque.h ****       { _M_fill_assign(__n, __val); }
1068:/Library/DaisyToolchain/0.2.0/arm/arm-none-eabi/include/c++/10.3.1/bits/stl_deque.h **** 
1069:/Library/DaisyToolchain/0.2.0/arm/arm-none-eabi/include/c++/10.3.1/bits/stl_deque.h ****       /**
1070:/Library/DaisyToolchain/0.2.0/arm/arm-none-eabi/include/c++/10.3.1/bits/stl_deque.h ****        *  @brief  Assigns a range to a %deque.
1071:/Library/DaisyToolchain/0.2.0/arm/arm-none-eabi/include/c++/10.3.1/bits/stl_deque.h ****        *  @param  __first  An input iterator.
1072:/Library/DaisyToolchain/0.2.0/arm/arm-none-eabi/include/c++/10.3.1/bits/stl_deque.h ****        *  @param  __last   An input iterator.
1073:/Library/DaisyToolchain/0.2.0/arm/arm-none-eabi/include/c++/10.3.1/bits/stl_deque.h ****        *
1074:/Library/DaisyToolchain/0.2.0/arm/arm-none-eabi/include/c++/10.3.1/bits/stl_deque.h ****        *  This function fills a %deque with copies of the elements in the
1075:/Library/DaisyToolchain/0.2.0/arm/arm-none-eabi/include/c++/10.3.1/bits/stl_deque.h ****        *  range [__first,__last).
1076:/Library/DaisyToolchain/0.2.0/arm/arm-none-eabi/include/c++/10.3.1/bits/stl_deque.h ****        *
1077:/Library/DaisyToolchain/0.2.0/arm/arm-none-eabi/include/c++/10.3.1/bits/stl_deque.h ****        *  Note that the assignment completely changes the %deque and that the
1078:/Library/DaisyToolchain/0.2.0/arm/arm-none-eabi/include/c++/10.3.1/bits/stl_deque.h ****        *  resulting %deque's size is the same as the number of elements
1079:/Library/DaisyToolchain/0.2.0/arm/arm-none-eabi/include/c++/10.3.1/bits/stl_deque.h ****        *  assigned.
ARM GAS  /var/folders/s6/2bsynnl15rj0bwtb9pgx4dc00000gn/T//cc76hY55.s 			page 71


1080:/Library/DaisyToolchain/0.2.0/arm/arm-none-eabi/include/c++/10.3.1/bits/stl_deque.h ****        */
1081:/Library/DaisyToolchain/0.2.0/arm/arm-none-eabi/include/c++/10.3.1/bits/stl_deque.h **** #if __cplusplus >= 201103L
1082:/Library/DaisyToolchain/0.2.0/arm/arm-none-eabi/include/c++/10.3.1/bits/stl_deque.h ****       template<typename _InputIterator,
1083:/Library/DaisyToolchain/0.2.0/arm/arm-none-eabi/include/c++/10.3.1/bits/stl_deque.h **** 	       typename = std::_RequireInputIter<_InputIterator>>
1084:/Library/DaisyToolchain/0.2.0/arm/arm-none-eabi/include/c++/10.3.1/bits/stl_deque.h **** 	void
1085:/Library/DaisyToolchain/0.2.0/arm/arm-none-eabi/include/c++/10.3.1/bits/stl_deque.h **** 	assign(_InputIterator __first, _InputIterator __last)
1086:/Library/DaisyToolchain/0.2.0/arm/arm-none-eabi/include/c++/10.3.1/bits/stl_deque.h **** 	{ _M_assign_aux(__first, __last, std::__iterator_category(__first)); }
1087:/Library/DaisyToolchain/0.2.0/arm/arm-none-eabi/include/c++/10.3.1/bits/stl_deque.h **** #else
1088:/Library/DaisyToolchain/0.2.0/arm/arm-none-eabi/include/c++/10.3.1/bits/stl_deque.h ****       template<typename _InputIterator>
1089:/Library/DaisyToolchain/0.2.0/arm/arm-none-eabi/include/c++/10.3.1/bits/stl_deque.h **** 	void
1090:/Library/DaisyToolchain/0.2.0/arm/arm-none-eabi/include/c++/10.3.1/bits/stl_deque.h **** 	assign(_InputIterator __first, _InputIterator __last)
1091:/Library/DaisyToolchain/0.2.0/arm/arm-none-eabi/include/c++/10.3.1/bits/stl_deque.h **** 	{
1092:/Library/DaisyToolchain/0.2.0/arm/arm-none-eabi/include/c++/10.3.1/bits/stl_deque.h **** 	  typedef typename std::__is_integer<_InputIterator>::__type _Integral;
1093:/Library/DaisyToolchain/0.2.0/arm/arm-none-eabi/include/c++/10.3.1/bits/stl_deque.h **** 	  _M_assign_dispatch(__first, __last, _Integral());
1094:/Library/DaisyToolchain/0.2.0/arm/arm-none-eabi/include/c++/10.3.1/bits/stl_deque.h **** 	}
1095:/Library/DaisyToolchain/0.2.0/arm/arm-none-eabi/include/c++/10.3.1/bits/stl_deque.h **** #endif
1096:/Library/DaisyToolchain/0.2.0/arm/arm-none-eabi/include/c++/10.3.1/bits/stl_deque.h **** 
1097:/Library/DaisyToolchain/0.2.0/arm/arm-none-eabi/include/c++/10.3.1/bits/stl_deque.h **** #if __cplusplus >= 201103L
1098:/Library/DaisyToolchain/0.2.0/arm/arm-none-eabi/include/c++/10.3.1/bits/stl_deque.h ****       /**
1099:/Library/DaisyToolchain/0.2.0/arm/arm-none-eabi/include/c++/10.3.1/bits/stl_deque.h ****        *  @brief  Assigns an initializer list to a %deque.
1100:/Library/DaisyToolchain/0.2.0/arm/arm-none-eabi/include/c++/10.3.1/bits/stl_deque.h ****        *  @param  __l  An initializer_list.
1101:/Library/DaisyToolchain/0.2.0/arm/arm-none-eabi/include/c++/10.3.1/bits/stl_deque.h ****        *
1102:/Library/DaisyToolchain/0.2.0/arm/arm-none-eabi/include/c++/10.3.1/bits/stl_deque.h ****        *  This function fills a %deque with copies of the elements in the
1103:/Library/DaisyToolchain/0.2.0/arm/arm-none-eabi/include/c++/10.3.1/bits/stl_deque.h ****        *  initializer_list @a __l.
1104:/Library/DaisyToolchain/0.2.0/arm/arm-none-eabi/include/c++/10.3.1/bits/stl_deque.h ****        *
1105:/Library/DaisyToolchain/0.2.0/arm/arm-none-eabi/include/c++/10.3.1/bits/stl_deque.h ****        *  Note that the assignment completely changes the %deque and that the
1106:/Library/DaisyToolchain/0.2.0/arm/arm-none-eabi/include/c++/10.3.1/bits/stl_deque.h ****        *  resulting %deque's size is the same as the number of elements
1107:/Library/DaisyToolchain/0.2.0/arm/arm-none-eabi/include/c++/10.3.1/bits/stl_deque.h ****        *  assigned.
1108:/Library/DaisyToolchain/0.2.0/arm/arm-none-eabi/include/c++/10.3.1/bits/stl_deque.h ****        */
1109:/Library/DaisyToolchain/0.2.0/arm/arm-none-eabi/include/c++/10.3.1/bits/stl_deque.h ****       void
1110:/Library/DaisyToolchain/0.2.0/arm/arm-none-eabi/include/c++/10.3.1/bits/stl_deque.h ****       assign(initializer_list<value_type> __l)
1111:/Library/DaisyToolchain/0.2.0/arm/arm-none-eabi/include/c++/10.3.1/bits/stl_deque.h ****       { _M_assign_aux(__l.begin(), __l.end(), random_access_iterator_tag()); }
1112:/Library/DaisyToolchain/0.2.0/arm/arm-none-eabi/include/c++/10.3.1/bits/stl_deque.h **** #endif
1113:/Library/DaisyToolchain/0.2.0/arm/arm-none-eabi/include/c++/10.3.1/bits/stl_deque.h **** 
1114:/Library/DaisyToolchain/0.2.0/arm/arm-none-eabi/include/c++/10.3.1/bits/stl_deque.h ****       /// Get a copy of the memory allocation object.
1115:/Library/DaisyToolchain/0.2.0/arm/arm-none-eabi/include/c++/10.3.1/bits/stl_deque.h ****       allocator_type
1116:/Library/DaisyToolchain/0.2.0/arm/arm-none-eabi/include/c++/10.3.1/bits/stl_deque.h ****       get_allocator() const _GLIBCXX_NOEXCEPT
1117:/Library/DaisyToolchain/0.2.0/arm/arm-none-eabi/include/c++/10.3.1/bits/stl_deque.h ****       { return _Base::get_allocator(); }
1118:/Library/DaisyToolchain/0.2.0/arm/arm-none-eabi/include/c++/10.3.1/bits/stl_deque.h **** 
1119:/Library/DaisyToolchain/0.2.0/arm/arm-none-eabi/include/c++/10.3.1/bits/stl_deque.h ****       // iterators
1120:/Library/DaisyToolchain/0.2.0/arm/arm-none-eabi/include/c++/10.3.1/bits/stl_deque.h ****       /**
1121:/Library/DaisyToolchain/0.2.0/arm/arm-none-eabi/include/c++/10.3.1/bits/stl_deque.h ****        *  Returns a read/write iterator that points to the first element in the
1122:/Library/DaisyToolchain/0.2.0/arm/arm-none-eabi/include/c++/10.3.1/bits/stl_deque.h ****        *  %deque.  Iteration is done in ordinary element order.
1123:/Library/DaisyToolchain/0.2.0/arm/arm-none-eabi/include/c++/10.3.1/bits/stl_deque.h ****        */
1124:/Library/DaisyToolchain/0.2.0/arm/arm-none-eabi/include/c++/10.3.1/bits/stl_deque.h ****       iterator
1125:/Library/DaisyToolchain/0.2.0/arm/arm-none-eabi/include/c++/10.3.1/bits/stl_deque.h ****       begin() _GLIBCXX_NOEXCEPT
1126:/Library/DaisyToolchain/0.2.0/arm/arm-none-eabi/include/c++/10.3.1/bits/stl_deque.h ****       { return this->_M_impl._M_start; }
1127:/Library/DaisyToolchain/0.2.0/arm/arm-none-eabi/include/c++/10.3.1/bits/stl_deque.h **** 
1128:/Library/DaisyToolchain/0.2.0/arm/arm-none-eabi/include/c++/10.3.1/bits/stl_deque.h ****       /**
1129:/Library/DaisyToolchain/0.2.0/arm/arm-none-eabi/include/c++/10.3.1/bits/stl_deque.h ****        *  Returns a read-only (constant) iterator that points to the first
1130:/Library/DaisyToolchain/0.2.0/arm/arm-none-eabi/include/c++/10.3.1/bits/stl_deque.h ****        *  element in the %deque.  Iteration is done in ordinary element order.
1131:/Library/DaisyToolchain/0.2.0/arm/arm-none-eabi/include/c++/10.3.1/bits/stl_deque.h ****        */
1132:/Library/DaisyToolchain/0.2.0/arm/arm-none-eabi/include/c++/10.3.1/bits/stl_deque.h ****       const_iterator
1133:/Library/DaisyToolchain/0.2.0/arm/arm-none-eabi/include/c++/10.3.1/bits/stl_deque.h ****       begin() const _GLIBCXX_NOEXCEPT
1134:/Library/DaisyToolchain/0.2.0/arm/arm-none-eabi/include/c++/10.3.1/bits/stl_deque.h ****       { return this->_M_impl._M_start; }
1135:/Library/DaisyToolchain/0.2.0/arm/arm-none-eabi/include/c++/10.3.1/bits/stl_deque.h **** 
1136:/Library/DaisyToolchain/0.2.0/arm/arm-none-eabi/include/c++/10.3.1/bits/stl_deque.h ****       /**
ARM GAS  /var/folders/s6/2bsynnl15rj0bwtb9pgx4dc00000gn/T//cc76hY55.s 			page 72


1137:/Library/DaisyToolchain/0.2.0/arm/arm-none-eabi/include/c++/10.3.1/bits/stl_deque.h ****        *  Returns a read/write iterator that points one past the last
1138:/Library/DaisyToolchain/0.2.0/arm/arm-none-eabi/include/c++/10.3.1/bits/stl_deque.h ****        *  element in the %deque.  Iteration is done in ordinary
1139:/Library/DaisyToolchain/0.2.0/arm/arm-none-eabi/include/c++/10.3.1/bits/stl_deque.h ****        *  element order.
1140:/Library/DaisyToolchain/0.2.0/arm/arm-none-eabi/include/c++/10.3.1/bits/stl_deque.h ****        */
1141:/Library/DaisyToolchain/0.2.0/arm/arm-none-eabi/include/c++/10.3.1/bits/stl_deque.h ****       iterator
1142:/Library/DaisyToolchain/0.2.0/arm/arm-none-eabi/include/c++/10.3.1/bits/stl_deque.h ****       end() _GLIBCXX_NOEXCEPT
1143:/Library/DaisyToolchain/0.2.0/arm/arm-none-eabi/include/c++/10.3.1/bits/stl_deque.h ****       { return this->_M_impl._M_finish; }
1144:/Library/DaisyToolchain/0.2.0/arm/arm-none-eabi/include/c++/10.3.1/bits/stl_deque.h **** 
1145:/Library/DaisyToolchain/0.2.0/arm/arm-none-eabi/include/c++/10.3.1/bits/stl_deque.h ****       /**
1146:/Library/DaisyToolchain/0.2.0/arm/arm-none-eabi/include/c++/10.3.1/bits/stl_deque.h ****        *  Returns a read-only (constant) iterator that points one past
1147:/Library/DaisyToolchain/0.2.0/arm/arm-none-eabi/include/c++/10.3.1/bits/stl_deque.h ****        *  the last element in the %deque.  Iteration is done in
1148:/Library/DaisyToolchain/0.2.0/arm/arm-none-eabi/include/c++/10.3.1/bits/stl_deque.h ****        *  ordinary element order.
1149:/Library/DaisyToolchain/0.2.0/arm/arm-none-eabi/include/c++/10.3.1/bits/stl_deque.h ****        */
1150:/Library/DaisyToolchain/0.2.0/arm/arm-none-eabi/include/c++/10.3.1/bits/stl_deque.h ****       const_iterator
1151:/Library/DaisyToolchain/0.2.0/arm/arm-none-eabi/include/c++/10.3.1/bits/stl_deque.h ****       end() const _GLIBCXX_NOEXCEPT
1152:/Library/DaisyToolchain/0.2.0/arm/arm-none-eabi/include/c++/10.3.1/bits/stl_deque.h ****       { return this->_M_impl._M_finish; }
1153:/Library/DaisyToolchain/0.2.0/arm/arm-none-eabi/include/c++/10.3.1/bits/stl_deque.h **** 
1154:/Library/DaisyToolchain/0.2.0/arm/arm-none-eabi/include/c++/10.3.1/bits/stl_deque.h ****       /**
1155:/Library/DaisyToolchain/0.2.0/arm/arm-none-eabi/include/c++/10.3.1/bits/stl_deque.h ****        *  Returns a read/write reverse iterator that points to the
1156:/Library/DaisyToolchain/0.2.0/arm/arm-none-eabi/include/c++/10.3.1/bits/stl_deque.h ****        *  last element in the %deque.  Iteration is done in reverse
1157:/Library/DaisyToolchain/0.2.0/arm/arm-none-eabi/include/c++/10.3.1/bits/stl_deque.h ****        *  element order.
1158:/Library/DaisyToolchain/0.2.0/arm/arm-none-eabi/include/c++/10.3.1/bits/stl_deque.h ****        */
1159:/Library/DaisyToolchain/0.2.0/arm/arm-none-eabi/include/c++/10.3.1/bits/stl_deque.h ****       reverse_iterator
1160:/Library/DaisyToolchain/0.2.0/arm/arm-none-eabi/include/c++/10.3.1/bits/stl_deque.h ****       rbegin() _GLIBCXX_NOEXCEPT
1161:/Library/DaisyToolchain/0.2.0/arm/arm-none-eabi/include/c++/10.3.1/bits/stl_deque.h ****       { return reverse_iterator(this->_M_impl._M_finish); }
1162:/Library/DaisyToolchain/0.2.0/arm/arm-none-eabi/include/c++/10.3.1/bits/stl_deque.h **** 
1163:/Library/DaisyToolchain/0.2.0/arm/arm-none-eabi/include/c++/10.3.1/bits/stl_deque.h ****       /**
1164:/Library/DaisyToolchain/0.2.0/arm/arm-none-eabi/include/c++/10.3.1/bits/stl_deque.h ****        *  Returns a read-only (constant) reverse iterator that points
1165:/Library/DaisyToolchain/0.2.0/arm/arm-none-eabi/include/c++/10.3.1/bits/stl_deque.h ****        *  to the last element in the %deque.  Iteration is done in
1166:/Library/DaisyToolchain/0.2.0/arm/arm-none-eabi/include/c++/10.3.1/bits/stl_deque.h ****        *  reverse element order.
1167:/Library/DaisyToolchain/0.2.0/arm/arm-none-eabi/include/c++/10.3.1/bits/stl_deque.h ****        */
1168:/Library/DaisyToolchain/0.2.0/arm/arm-none-eabi/include/c++/10.3.1/bits/stl_deque.h ****       const_reverse_iterator
1169:/Library/DaisyToolchain/0.2.0/arm/arm-none-eabi/include/c++/10.3.1/bits/stl_deque.h ****       rbegin() const _GLIBCXX_NOEXCEPT
1170:/Library/DaisyToolchain/0.2.0/arm/arm-none-eabi/include/c++/10.3.1/bits/stl_deque.h ****       { return const_reverse_iterator(this->_M_impl._M_finish); }
1171:/Library/DaisyToolchain/0.2.0/arm/arm-none-eabi/include/c++/10.3.1/bits/stl_deque.h **** 
1172:/Library/DaisyToolchain/0.2.0/arm/arm-none-eabi/include/c++/10.3.1/bits/stl_deque.h ****       /**
1173:/Library/DaisyToolchain/0.2.0/arm/arm-none-eabi/include/c++/10.3.1/bits/stl_deque.h ****        *  Returns a read/write reverse iterator that points to one
1174:/Library/DaisyToolchain/0.2.0/arm/arm-none-eabi/include/c++/10.3.1/bits/stl_deque.h ****        *  before the first element in the %deque.  Iteration is done
1175:/Library/DaisyToolchain/0.2.0/arm/arm-none-eabi/include/c++/10.3.1/bits/stl_deque.h ****        *  in reverse element order.
1176:/Library/DaisyToolchain/0.2.0/arm/arm-none-eabi/include/c++/10.3.1/bits/stl_deque.h ****        */
1177:/Library/DaisyToolchain/0.2.0/arm/arm-none-eabi/include/c++/10.3.1/bits/stl_deque.h ****       reverse_iterator
1178:/Library/DaisyToolchain/0.2.0/arm/arm-none-eabi/include/c++/10.3.1/bits/stl_deque.h ****       rend() _GLIBCXX_NOEXCEPT
1179:/Library/DaisyToolchain/0.2.0/arm/arm-none-eabi/include/c++/10.3.1/bits/stl_deque.h ****       { return reverse_iterator(this->_M_impl._M_start); }
1180:/Library/DaisyToolchain/0.2.0/arm/arm-none-eabi/include/c++/10.3.1/bits/stl_deque.h **** 
1181:/Library/DaisyToolchain/0.2.0/arm/arm-none-eabi/include/c++/10.3.1/bits/stl_deque.h ****       /**
1182:/Library/DaisyToolchain/0.2.0/arm/arm-none-eabi/include/c++/10.3.1/bits/stl_deque.h ****        *  Returns a read-only (constant) reverse iterator that points
1183:/Library/DaisyToolchain/0.2.0/arm/arm-none-eabi/include/c++/10.3.1/bits/stl_deque.h ****        *  to one before the first element in the %deque.  Iteration is
1184:/Library/DaisyToolchain/0.2.0/arm/arm-none-eabi/include/c++/10.3.1/bits/stl_deque.h ****        *  done in reverse element order.
1185:/Library/DaisyToolchain/0.2.0/arm/arm-none-eabi/include/c++/10.3.1/bits/stl_deque.h ****        */
1186:/Library/DaisyToolchain/0.2.0/arm/arm-none-eabi/include/c++/10.3.1/bits/stl_deque.h ****       const_reverse_iterator
1187:/Library/DaisyToolchain/0.2.0/arm/arm-none-eabi/include/c++/10.3.1/bits/stl_deque.h ****       rend() const _GLIBCXX_NOEXCEPT
1188:/Library/DaisyToolchain/0.2.0/arm/arm-none-eabi/include/c++/10.3.1/bits/stl_deque.h ****       { return const_reverse_iterator(this->_M_impl._M_start); }
1189:/Library/DaisyToolchain/0.2.0/arm/arm-none-eabi/include/c++/10.3.1/bits/stl_deque.h **** 
1190:/Library/DaisyToolchain/0.2.0/arm/arm-none-eabi/include/c++/10.3.1/bits/stl_deque.h **** #if __cplusplus >= 201103L
1191:/Library/DaisyToolchain/0.2.0/arm/arm-none-eabi/include/c++/10.3.1/bits/stl_deque.h ****       /**
1192:/Library/DaisyToolchain/0.2.0/arm/arm-none-eabi/include/c++/10.3.1/bits/stl_deque.h ****        *  Returns a read-only (constant) iterator that points to the first
1193:/Library/DaisyToolchain/0.2.0/arm/arm-none-eabi/include/c++/10.3.1/bits/stl_deque.h ****        *  element in the %deque.  Iteration is done in ordinary element order.
ARM GAS  /var/folders/s6/2bsynnl15rj0bwtb9pgx4dc00000gn/T//cc76hY55.s 			page 73


1194:/Library/DaisyToolchain/0.2.0/arm/arm-none-eabi/include/c++/10.3.1/bits/stl_deque.h ****        */
1195:/Library/DaisyToolchain/0.2.0/arm/arm-none-eabi/include/c++/10.3.1/bits/stl_deque.h ****       const_iterator
1196:/Library/DaisyToolchain/0.2.0/arm/arm-none-eabi/include/c++/10.3.1/bits/stl_deque.h ****       cbegin() const noexcept
1197:/Library/DaisyToolchain/0.2.0/arm/arm-none-eabi/include/c++/10.3.1/bits/stl_deque.h ****       { return this->_M_impl._M_start; }
1198:/Library/DaisyToolchain/0.2.0/arm/arm-none-eabi/include/c++/10.3.1/bits/stl_deque.h **** 
1199:/Library/DaisyToolchain/0.2.0/arm/arm-none-eabi/include/c++/10.3.1/bits/stl_deque.h ****       /**
1200:/Library/DaisyToolchain/0.2.0/arm/arm-none-eabi/include/c++/10.3.1/bits/stl_deque.h ****        *  Returns a read-only (constant) iterator that points one past
1201:/Library/DaisyToolchain/0.2.0/arm/arm-none-eabi/include/c++/10.3.1/bits/stl_deque.h ****        *  the last element in the %deque.  Iteration is done in
1202:/Library/DaisyToolchain/0.2.0/arm/arm-none-eabi/include/c++/10.3.1/bits/stl_deque.h ****        *  ordinary element order.
1203:/Library/DaisyToolchain/0.2.0/arm/arm-none-eabi/include/c++/10.3.1/bits/stl_deque.h ****        */
1204:/Library/DaisyToolchain/0.2.0/arm/arm-none-eabi/include/c++/10.3.1/bits/stl_deque.h ****       const_iterator
1205:/Library/DaisyToolchain/0.2.0/arm/arm-none-eabi/include/c++/10.3.1/bits/stl_deque.h ****       cend() const noexcept
1206:/Library/DaisyToolchain/0.2.0/arm/arm-none-eabi/include/c++/10.3.1/bits/stl_deque.h ****       { return this->_M_impl._M_finish; }
1207:/Library/DaisyToolchain/0.2.0/arm/arm-none-eabi/include/c++/10.3.1/bits/stl_deque.h **** 
1208:/Library/DaisyToolchain/0.2.0/arm/arm-none-eabi/include/c++/10.3.1/bits/stl_deque.h ****       /**
1209:/Library/DaisyToolchain/0.2.0/arm/arm-none-eabi/include/c++/10.3.1/bits/stl_deque.h ****        *  Returns a read-only (constant) reverse iterator that points
1210:/Library/DaisyToolchain/0.2.0/arm/arm-none-eabi/include/c++/10.3.1/bits/stl_deque.h ****        *  to the last element in the %deque.  Iteration is done in
1211:/Library/DaisyToolchain/0.2.0/arm/arm-none-eabi/include/c++/10.3.1/bits/stl_deque.h ****        *  reverse element order.
1212:/Library/DaisyToolchain/0.2.0/arm/arm-none-eabi/include/c++/10.3.1/bits/stl_deque.h ****        */
1213:/Library/DaisyToolchain/0.2.0/arm/arm-none-eabi/include/c++/10.3.1/bits/stl_deque.h ****       const_reverse_iterator
1214:/Library/DaisyToolchain/0.2.0/arm/arm-none-eabi/include/c++/10.3.1/bits/stl_deque.h ****       crbegin() const noexcept
1215:/Library/DaisyToolchain/0.2.0/arm/arm-none-eabi/include/c++/10.3.1/bits/stl_deque.h ****       { return const_reverse_iterator(this->_M_impl._M_finish); }
1216:/Library/DaisyToolchain/0.2.0/arm/arm-none-eabi/include/c++/10.3.1/bits/stl_deque.h **** 
1217:/Library/DaisyToolchain/0.2.0/arm/arm-none-eabi/include/c++/10.3.1/bits/stl_deque.h ****       /**
1218:/Library/DaisyToolchain/0.2.0/arm/arm-none-eabi/include/c++/10.3.1/bits/stl_deque.h ****        *  Returns a read-only (constant) reverse iterator that points
1219:/Library/DaisyToolchain/0.2.0/arm/arm-none-eabi/include/c++/10.3.1/bits/stl_deque.h ****        *  to one before the first element in the %deque.  Iteration is
1220:/Library/DaisyToolchain/0.2.0/arm/arm-none-eabi/include/c++/10.3.1/bits/stl_deque.h ****        *  done in reverse element order.
1221:/Library/DaisyToolchain/0.2.0/arm/arm-none-eabi/include/c++/10.3.1/bits/stl_deque.h ****        */
1222:/Library/DaisyToolchain/0.2.0/arm/arm-none-eabi/include/c++/10.3.1/bits/stl_deque.h ****       const_reverse_iterator
1223:/Library/DaisyToolchain/0.2.0/arm/arm-none-eabi/include/c++/10.3.1/bits/stl_deque.h ****       crend() const noexcept
1224:/Library/DaisyToolchain/0.2.0/arm/arm-none-eabi/include/c++/10.3.1/bits/stl_deque.h ****       { return const_reverse_iterator(this->_M_impl._M_start); }
1225:/Library/DaisyToolchain/0.2.0/arm/arm-none-eabi/include/c++/10.3.1/bits/stl_deque.h **** #endif
1226:/Library/DaisyToolchain/0.2.0/arm/arm-none-eabi/include/c++/10.3.1/bits/stl_deque.h **** 
1227:/Library/DaisyToolchain/0.2.0/arm/arm-none-eabi/include/c++/10.3.1/bits/stl_deque.h ****       // [23.2.1.2] capacity
1228:/Library/DaisyToolchain/0.2.0/arm/arm-none-eabi/include/c++/10.3.1/bits/stl_deque.h ****       /**  Returns the number of elements in the %deque.  */
1229:/Library/DaisyToolchain/0.2.0/arm/arm-none-eabi/include/c++/10.3.1/bits/stl_deque.h ****       size_type
1230:/Library/DaisyToolchain/0.2.0/arm/arm-none-eabi/include/c++/10.3.1/bits/stl_deque.h ****       size() const _GLIBCXX_NOEXCEPT
1231:/Library/DaisyToolchain/0.2.0/arm/arm-none-eabi/include/c++/10.3.1/bits/stl_deque.h ****       { return this->_M_impl._M_finish - this->_M_impl._M_start; }
1232:/Library/DaisyToolchain/0.2.0/arm/arm-none-eabi/include/c++/10.3.1/bits/stl_deque.h **** 
1233:/Library/DaisyToolchain/0.2.0/arm/arm-none-eabi/include/c++/10.3.1/bits/stl_deque.h ****       /**  Returns the size() of the largest possible %deque.  */
1234:/Library/DaisyToolchain/0.2.0/arm/arm-none-eabi/include/c++/10.3.1/bits/stl_deque.h ****       size_type
1235:/Library/DaisyToolchain/0.2.0/arm/arm-none-eabi/include/c++/10.3.1/bits/stl_deque.h ****       max_size() const _GLIBCXX_NOEXCEPT
1236:/Library/DaisyToolchain/0.2.0/arm/arm-none-eabi/include/c++/10.3.1/bits/stl_deque.h ****       { return _S_max_size(_M_get_Tp_allocator()); }
1237:/Library/DaisyToolchain/0.2.0/arm/arm-none-eabi/include/c++/10.3.1/bits/stl_deque.h **** 
1238:/Library/DaisyToolchain/0.2.0/arm/arm-none-eabi/include/c++/10.3.1/bits/stl_deque.h **** #if __cplusplus >= 201103L
1239:/Library/DaisyToolchain/0.2.0/arm/arm-none-eabi/include/c++/10.3.1/bits/stl_deque.h ****       /**
1240:/Library/DaisyToolchain/0.2.0/arm/arm-none-eabi/include/c++/10.3.1/bits/stl_deque.h ****        *  @brief  Resizes the %deque to the specified number of elements.
1241:/Library/DaisyToolchain/0.2.0/arm/arm-none-eabi/include/c++/10.3.1/bits/stl_deque.h ****        *  @param  __new_size  Number of elements the %deque should contain.
1242:/Library/DaisyToolchain/0.2.0/arm/arm-none-eabi/include/c++/10.3.1/bits/stl_deque.h ****        *
1243:/Library/DaisyToolchain/0.2.0/arm/arm-none-eabi/include/c++/10.3.1/bits/stl_deque.h ****        *  This function will %resize the %deque to the specified
1244:/Library/DaisyToolchain/0.2.0/arm/arm-none-eabi/include/c++/10.3.1/bits/stl_deque.h ****        *  number of elements.  If the number is smaller than the
1245:/Library/DaisyToolchain/0.2.0/arm/arm-none-eabi/include/c++/10.3.1/bits/stl_deque.h ****        *  %deque's current size the %deque is truncated, otherwise
1246:/Library/DaisyToolchain/0.2.0/arm/arm-none-eabi/include/c++/10.3.1/bits/stl_deque.h ****        *  default constructed elements are appended.
1247:/Library/DaisyToolchain/0.2.0/arm/arm-none-eabi/include/c++/10.3.1/bits/stl_deque.h ****        */
1248:/Library/DaisyToolchain/0.2.0/arm/arm-none-eabi/include/c++/10.3.1/bits/stl_deque.h ****       void
1249:/Library/DaisyToolchain/0.2.0/arm/arm-none-eabi/include/c++/10.3.1/bits/stl_deque.h ****       resize(size_type __new_size)
1250:/Library/DaisyToolchain/0.2.0/arm/arm-none-eabi/include/c++/10.3.1/bits/stl_deque.h ****       {
ARM GAS  /var/folders/s6/2bsynnl15rj0bwtb9pgx4dc00000gn/T//cc76hY55.s 			page 74


1251:/Library/DaisyToolchain/0.2.0/arm/arm-none-eabi/include/c++/10.3.1/bits/stl_deque.h **** 	const size_type __len = size();
1252:/Library/DaisyToolchain/0.2.0/arm/arm-none-eabi/include/c++/10.3.1/bits/stl_deque.h **** 	if (__new_size > __len)
1253:/Library/DaisyToolchain/0.2.0/arm/arm-none-eabi/include/c++/10.3.1/bits/stl_deque.h **** 	  _M_default_append(__new_size - __len);
1254:/Library/DaisyToolchain/0.2.0/arm/arm-none-eabi/include/c++/10.3.1/bits/stl_deque.h **** 	else if (__new_size < __len)
1255:/Library/DaisyToolchain/0.2.0/arm/arm-none-eabi/include/c++/10.3.1/bits/stl_deque.h **** 	  _M_erase_at_end(this->_M_impl._M_start
1256:/Library/DaisyToolchain/0.2.0/arm/arm-none-eabi/include/c++/10.3.1/bits/stl_deque.h **** 			  + difference_type(__new_size));
1257:/Library/DaisyToolchain/0.2.0/arm/arm-none-eabi/include/c++/10.3.1/bits/stl_deque.h ****       }
1258:/Library/DaisyToolchain/0.2.0/arm/arm-none-eabi/include/c++/10.3.1/bits/stl_deque.h **** 
1259:/Library/DaisyToolchain/0.2.0/arm/arm-none-eabi/include/c++/10.3.1/bits/stl_deque.h ****       /**
1260:/Library/DaisyToolchain/0.2.0/arm/arm-none-eabi/include/c++/10.3.1/bits/stl_deque.h ****        *  @brief  Resizes the %deque to the specified number of elements.
1261:/Library/DaisyToolchain/0.2.0/arm/arm-none-eabi/include/c++/10.3.1/bits/stl_deque.h ****        *  @param  __new_size  Number of elements the %deque should contain.
1262:/Library/DaisyToolchain/0.2.0/arm/arm-none-eabi/include/c++/10.3.1/bits/stl_deque.h ****        *  @param  __x  Data with which new elements should be populated.
1263:/Library/DaisyToolchain/0.2.0/arm/arm-none-eabi/include/c++/10.3.1/bits/stl_deque.h ****        *
1264:/Library/DaisyToolchain/0.2.0/arm/arm-none-eabi/include/c++/10.3.1/bits/stl_deque.h ****        *  This function will %resize the %deque to the specified
1265:/Library/DaisyToolchain/0.2.0/arm/arm-none-eabi/include/c++/10.3.1/bits/stl_deque.h ****        *  number of elements.  If the number is smaller than the
1266:/Library/DaisyToolchain/0.2.0/arm/arm-none-eabi/include/c++/10.3.1/bits/stl_deque.h ****        *  %deque's current size the %deque is truncated, otherwise the
1267:/Library/DaisyToolchain/0.2.0/arm/arm-none-eabi/include/c++/10.3.1/bits/stl_deque.h ****        *  %deque is extended and new elements are populated with given
1268:/Library/DaisyToolchain/0.2.0/arm/arm-none-eabi/include/c++/10.3.1/bits/stl_deque.h ****        *  data.
1269:/Library/DaisyToolchain/0.2.0/arm/arm-none-eabi/include/c++/10.3.1/bits/stl_deque.h ****        */
1270:/Library/DaisyToolchain/0.2.0/arm/arm-none-eabi/include/c++/10.3.1/bits/stl_deque.h ****       void
1271:/Library/DaisyToolchain/0.2.0/arm/arm-none-eabi/include/c++/10.3.1/bits/stl_deque.h ****       resize(size_type __new_size, const value_type& __x)
1272:/Library/DaisyToolchain/0.2.0/arm/arm-none-eabi/include/c++/10.3.1/bits/stl_deque.h **** #else
1273:/Library/DaisyToolchain/0.2.0/arm/arm-none-eabi/include/c++/10.3.1/bits/stl_deque.h ****       /**
1274:/Library/DaisyToolchain/0.2.0/arm/arm-none-eabi/include/c++/10.3.1/bits/stl_deque.h ****        *  @brief  Resizes the %deque to the specified number of elements.
1275:/Library/DaisyToolchain/0.2.0/arm/arm-none-eabi/include/c++/10.3.1/bits/stl_deque.h ****        *  @param  __new_size  Number of elements the %deque should contain.
1276:/Library/DaisyToolchain/0.2.0/arm/arm-none-eabi/include/c++/10.3.1/bits/stl_deque.h ****        *  @param  __x  Data with which new elements should be populated.
1277:/Library/DaisyToolchain/0.2.0/arm/arm-none-eabi/include/c++/10.3.1/bits/stl_deque.h ****        *
1278:/Library/DaisyToolchain/0.2.0/arm/arm-none-eabi/include/c++/10.3.1/bits/stl_deque.h ****        *  This function will %resize the %deque to the specified
1279:/Library/DaisyToolchain/0.2.0/arm/arm-none-eabi/include/c++/10.3.1/bits/stl_deque.h ****        *  number of elements.  If the number is smaller than the
1280:/Library/DaisyToolchain/0.2.0/arm/arm-none-eabi/include/c++/10.3.1/bits/stl_deque.h ****        *  %deque's current size the %deque is truncated, otherwise the
1281:/Library/DaisyToolchain/0.2.0/arm/arm-none-eabi/include/c++/10.3.1/bits/stl_deque.h ****        *  %deque is extended and new elements are populated with given
1282:/Library/DaisyToolchain/0.2.0/arm/arm-none-eabi/include/c++/10.3.1/bits/stl_deque.h ****        *  data.
1283:/Library/DaisyToolchain/0.2.0/arm/arm-none-eabi/include/c++/10.3.1/bits/stl_deque.h ****        */
1284:/Library/DaisyToolchain/0.2.0/arm/arm-none-eabi/include/c++/10.3.1/bits/stl_deque.h ****       void
1285:/Library/DaisyToolchain/0.2.0/arm/arm-none-eabi/include/c++/10.3.1/bits/stl_deque.h ****       resize(size_type __new_size, value_type __x = value_type())
1286:/Library/DaisyToolchain/0.2.0/arm/arm-none-eabi/include/c++/10.3.1/bits/stl_deque.h **** #endif
1287:/Library/DaisyToolchain/0.2.0/arm/arm-none-eabi/include/c++/10.3.1/bits/stl_deque.h ****       {
1288:/Library/DaisyToolchain/0.2.0/arm/arm-none-eabi/include/c++/10.3.1/bits/stl_deque.h **** 	const size_type __len = size();
1289:/Library/DaisyToolchain/0.2.0/arm/arm-none-eabi/include/c++/10.3.1/bits/stl_deque.h **** 	if (__new_size > __len)
1290:/Library/DaisyToolchain/0.2.0/arm/arm-none-eabi/include/c++/10.3.1/bits/stl_deque.h **** 	  _M_fill_insert(this->_M_impl._M_finish, __new_size - __len, __x);
1291:/Library/DaisyToolchain/0.2.0/arm/arm-none-eabi/include/c++/10.3.1/bits/stl_deque.h **** 	else if (__new_size < __len)
1292:/Library/DaisyToolchain/0.2.0/arm/arm-none-eabi/include/c++/10.3.1/bits/stl_deque.h **** 	  _M_erase_at_end(this->_M_impl._M_start
1293:/Library/DaisyToolchain/0.2.0/arm/arm-none-eabi/include/c++/10.3.1/bits/stl_deque.h **** 			  + difference_type(__new_size));
1294:/Library/DaisyToolchain/0.2.0/arm/arm-none-eabi/include/c++/10.3.1/bits/stl_deque.h ****       }
1295:/Library/DaisyToolchain/0.2.0/arm/arm-none-eabi/include/c++/10.3.1/bits/stl_deque.h **** 
1296:/Library/DaisyToolchain/0.2.0/arm/arm-none-eabi/include/c++/10.3.1/bits/stl_deque.h **** #if __cplusplus >= 201103L
1297:/Library/DaisyToolchain/0.2.0/arm/arm-none-eabi/include/c++/10.3.1/bits/stl_deque.h ****       /**  A non-binding request to reduce memory use.  */
1298:/Library/DaisyToolchain/0.2.0/arm/arm-none-eabi/include/c++/10.3.1/bits/stl_deque.h ****       void
1299:/Library/DaisyToolchain/0.2.0/arm/arm-none-eabi/include/c++/10.3.1/bits/stl_deque.h ****       shrink_to_fit() noexcept
1300:/Library/DaisyToolchain/0.2.0/arm/arm-none-eabi/include/c++/10.3.1/bits/stl_deque.h ****       { _M_shrink_to_fit(); }
1301:/Library/DaisyToolchain/0.2.0/arm/arm-none-eabi/include/c++/10.3.1/bits/stl_deque.h **** #endif
1302:/Library/DaisyToolchain/0.2.0/arm/arm-none-eabi/include/c++/10.3.1/bits/stl_deque.h **** 
1303:/Library/DaisyToolchain/0.2.0/arm/arm-none-eabi/include/c++/10.3.1/bits/stl_deque.h ****       /**
1304:/Library/DaisyToolchain/0.2.0/arm/arm-none-eabi/include/c++/10.3.1/bits/stl_deque.h ****        *  Returns true if the %deque is empty.  (Thus begin() would
1305:/Library/DaisyToolchain/0.2.0/arm/arm-none-eabi/include/c++/10.3.1/bits/stl_deque.h ****        *  equal end().)
1306:/Library/DaisyToolchain/0.2.0/arm/arm-none-eabi/include/c++/10.3.1/bits/stl_deque.h ****        */
1307:/Library/DaisyToolchain/0.2.0/arm/arm-none-eabi/include/c++/10.3.1/bits/stl_deque.h ****       _GLIBCXX_NODISCARD bool
ARM GAS  /var/folders/s6/2bsynnl15rj0bwtb9pgx4dc00000gn/T//cc76hY55.s 			page 75


1308:/Library/DaisyToolchain/0.2.0/arm/arm-none-eabi/include/c++/10.3.1/bits/stl_deque.h ****       empty() const _GLIBCXX_NOEXCEPT
1309:/Library/DaisyToolchain/0.2.0/arm/arm-none-eabi/include/c++/10.3.1/bits/stl_deque.h ****       { return this->_M_impl._M_finish == this->_M_impl._M_start; }
1310:/Library/DaisyToolchain/0.2.0/arm/arm-none-eabi/include/c++/10.3.1/bits/stl_deque.h **** 
1311:/Library/DaisyToolchain/0.2.0/arm/arm-none-eabi/include/c++/10.3.1/bits/stl_deque.h ****       // element access
1312:/Library/DaisyToolchain/0.2.0/arm/arm-none-eabi/include/c++/10.3.1/bits/stl_deque.h ****       /**
1313:/Library/DaisyToolchain/0.2.0/arm/arm-none-eabi/include/c++/10.3.1/bits/stl_deque.h ****        *  @brief Subscript access to the data contained in the %deque.
1314:/Library/DaisyToolchain/0.2.0/arm/arm-none-eabi/include/c++/10.3.1/bits/stl_deque.h ****        *  @param __n The index of the element for which data should be
1315:/Library/DaisyToolchain/0.2.0/arm/arm-none-eabi/include/c++/10.3.1/bits/stl_deque.h ****        *  accessed.
1316:/Library/DaisyToolchain/0.2.0/arm/arm-none-eabi/include/c++/10.3.1/bits/stl_deque.h ****        *  @return  Read/write reference to data.
1317:/Library/DaisyToolchain/0.2.0/arm/arm-none-eabi/include/c++/10.3.1/bits/stl_deque.h ****        *
1318:/Library/DaisyToolchain/0.2.0/arm/arm-none-eabi/include/c++/10.3.1/bits/stl_deque.h ****        *  This operator allows for easy, array-style, data access.
1319:/Library/DaisyToolchain/0.2.0/arm/arm-none-eabi/include/c++/10.3.1/bits/stl_deque.h ****        *  Note that data access with this operator is unchecked and
1320:/Library/DaisyToolchain/0.2.0/arm/arm-none-eabi/include/c++/10.3.1/bits/stl_deque.h ****        *  out_of_range lookups are not defined. (For checked lookups
1321:/Library/DaisyToolchain/0.2.0/arm/arm-none-eabi/include/c++/10.3.1/bits/stl_deque.h ****        *  see at().)
1322:/Library/DaisyToolchain/0.2.0/arm/arm-none-eabi/include/c++/10.3.1/bits/stl_deque.h ****        */
1323:/Library/DaisyToolchain/0.2.0/arm/arm-none-eabi/include/c++/10.3.1/bits/stl_deque.h ****       reference
1324:/Library/DaisyToolchain/0.2.0/arm/arm-none-eabi/include/c++/10.3.1/bits/stl_deque.h ****       operator[](size_type __n) _GLIBCXX_NOEXCEPT
1325:/Library/DaisyToolchain/0.2.0/arm/arm-none-eabi/include/c++/10.3.1/bits/stl_deque.h ****       {
1326:/Library/DaisyToolchain/0.2.0/arm/arm-none-eabi/include/c++/10.3.1/bits/stl_deque.h **** 	__glibcxx_requires_subscript(__n);
1327:/Library/DaisyToolchain/0.2.0/arm/arm-none-eabi/include/c++/10.3.1/bits/stl_deque.h **** 	return this->_M_impl._M_start[difference_type(__n)];
1328:/Library/DaisyToolchain/0.2.0/arm/arm-none-eabi/include/c++/10.3.1/bits/stl_deque.h ****       }
1329:/Library/DaisyToolchain/0.2.0/arm/arm-none-eabi/include/c++/10.3.1/bits/stl_deque.h **** 
1330:/Library/DaisyToolchain/0.2.0/arm/arm-none-eabi/include/c++/10.3.1/bits/stl_deque.h ****       /**
1331:/Library/DaisyToolchain/0.2.0/arm/arm-none-eabi/include/c++/10.3.1/bits/stl_deque.h ****        *  @brief Subscript access to the data contained in the %deque.
1332:/Library/DaisyToolchain/0.2.0/arm/arm-none-eabi/include/c++/10.3.1/bits/stl_deque.h ****        *  @param __n The index of the element for which data should be
1333:/Library/DaisyToolchain/0.2.0/arm/arm-none-eabi/include/c++/10.3.1/bits/stl_deque.h ****        *  accessed.
1334:/Library/DaisyToolchain/0.2.0/arm/arm-none-eabi/include/c++/10.3.1/bits/stl_deque.h ****        *  @return  Read-only (constant) reference to data.
1335:/Library/DaisyToolchain/0.2.0/arm/arm-none-eabi/include/c++/10.3.1/bits/stl_deque.h ****        *
1336:/Library/DaisyToolchain/0.2.0/arm/arm-none-eabi/include/c++/10.3.1/bits/stl_deque.h ****        *  This operator allows for easy, array-style, data access.
1337:/Library/DaisyToolchain/0.2.0/arm/arm-none-eabi/include/c++/10.3.1/bits/stl_deque.h ****        *  Note that data access with this operator is unchecked and
1338:/Library/DaisyToolchain/0.2.0/arm/arm-none-eabi/include/c++/10.3.1/bits/stl_deque.h ****        *  out_of_range lookups are not defined. (For checked lookups
1339:/Library/DaisyToolchain/0.2.0/arm/arm-none-eabi/include/c++/10.3.1/bits/stl_deque.h ****        *  see at().)
1340:/Library/DaisyToolchain/0.2.0/arm/arm-none-eabi/include/c++/10.3.1/bits/stl_deque.h ****        */
1341:/Library/DaisyToolchain/0.2.0/arm/arm-none-eabi/include/c++/10.3.1/bits/stl_deque.h ****       const_reference
1342:/Library/DaisyToolchain/0.2.0/arm/arm-none-eabi/include/c++/10.3.1/bits/stl_deque.h ****       operator[](size_type __n) const _GLIBCXX_NOEXCEPT
1343:/Library/DaisyToolchain/0.2.0/arm/arm-none-eabi/include/c++/10.3.1/bits/stl_deque.h ****       {
1344:/Library/DaisyToolchain/0.2.0/arm/arm-none-eabi/include/c++/10.3.1/bits/stl_deque.h **** 	__glibcxx_requires_subscript(__n);
1345:/Library/DaisyToolchain/0.2.0/arm/arm-none-eabi/include/c++/10.3.1/bits/stl_deque.h **** 	return this->_M_impl._M_start[difference_type(__n)];
1346:/Library/DaisyToolchain/0.2.0/arm/arm-none-eabi/include/c++/10.3.1/bits/stl_deque.h ****       }
1347:/Library/DaisyToolchain/0.2.0/arm/arm-none-eabi/include/c++/10.3.1/bits/stl_deque.h **** 
1348:/Library/DaisyToolchain/0.2.0/arm/arm-none-eabi/include/c++/10.3.1/bits/stl_deque.h ****     protected:
1349:/Library/DaisyToolchain/0.2.0/arm/arm-none-eabi/include/c++/10.3.1/bits/stl_deque.h ****       /// Safety check used only from at().
1350:/Library/DaisyToolchain/0.2.0/arm/arm-none-eabi/include/c++/10.3.1/bits/stl_deque.h ****       void
1351:/Library/DaisyToolchain/0.2.0/arm/arm-none-eabi/include/c++/10.3.1/bits/stl_deque.h ****       _M_range_check(size_type __n) const
1352:/Library/DaisyToolchain/0.2.0/arm/arm-none-eabi/include/c++/10.3.1/bits/stl_deque.h ****       {
1353:/Library/DaisyToolchain/0.2.0/arm/arm-none-eabi/include/c++/10.3.1/bits/stl_deque.h **** 	if (__n >= this->size())
1354:/Library/DaisyToolchain/0.2.0/arm/arm-none-eabi/include/c++/10.3.1/bits/stl_deque.h **** 	  __throw_out_of_range_fmt(__N("deque::_M_range_check: __n "
1355:/Library/DaisyToolchain/0.2.0/arm/arm-none-eabi/include/c++/10.3.1/bits/stl_deque.h **** 				       "(which is %zu)>= this->size() "
1356:/Library/DaisyToolchain/0.2.0/arm/arm-none-eabi/include/c++/10.3.1/bits/stl_deque.h **** 				       "(which is %zu)"),
1357:/Library/DaisyToolchain/0.2.0/arm/arm-none-eabi/include/c++/10.3.1/bits/stl_deque.h **** 				   __n, this->size());
1358:/Library/DaisyToolchain/0.2.0/arm/arm-none-eabi/include/c++/10.3.1/bits/stl_deque.h ****       }
1359:/Library/DaisyToolchain/0.2.0/arm/arm-none-eabi/include/c++/10.3.1/bits/stl_deque.h **** 
1360:/Library/DaisyToolchain/0.2.0/arm/arm-none-eabi/include/c++/10.3.1/bits/stl_deque.h ****     public:
1361:/Library/DaisyToolchain/0.2.0/arm/arm-none-eabi/include/c++/10.3.1/bits/stl_deque.h ****       /**
1362:/Library/DaisyToolchain/0.2.0/arm/arm-none-eabi/include/c++/10.3.1/bits/stl_deque.h ****        *  @brief  Provides access to the data contained in the %deque.
1363:/Library/DaisyToolchain/0.2.0/arm/arm-none-eabi/include/c++/10.3.1/bits/stl_deque.h ****        *  @param __n The index of the element for which data should be
1364:/Library/DaisyToolchain/0.2.0/arm/arm-none-eabi/include/c++/10.3.1/bits/stl_deque.h ****        *  accessed.
ARM GAS  /var/folders/s6/2bsynnl15rj0bwtb9pgx4dc00000gn/T//cc76hY55.s 			page 76


1365:/Library/DaisyToolchain/0.2.0/arm/arm-none-eabi/include/c++/10.3.1/bits/stl_deque.h ****        *  @return  Read/write reference to data.
1366:/Library/DaisyToolchain/0.2.0/arm/arm-none-eabi/include/c++/10.3.1/bits/stl_deque.h ****        *  @throw  std::out_of_range  If @a __n is an invalid index.
1367:/Library/DaisyToolchain/0.2.0/arm/arm-none-eabi/include/c++/10.3.1/bits/stl_deque.h ****        *
1368:/Library/DaisyToolchain/0.2.0/arm/arm-none-eabi/include/c++/10.3.1/bits/stl_deque.h ****        *  This function provides for safer data access.  The parameter
1369:/Library/DaisyToolchain/0.2.0/arm/arm-none-eabi/include/c++/10.3.1/bits/stl_deque.h ****        *  is first checked that it is in the range of the deque.  The
1370:/Library/DaisyToolchain/0.2.0/arm/arm-none-eabi/include/c++/10.3.1/bits/stl_deque.h ****        *  function throws out_of_range if the check fails.
1371:/Library/DaisyToolchain/0.2.0/arm/arm-none-eabi/include/c++/10.3.1/bits/stl_deque.h ****        */
1372:/Library/DaisyToolchain/0.2.0/arm/arm-none-eabi/include/c++/10.3.1/bits/stl_deque.h ****       reference
1373:/Library/DaisyToolchain/0.2.0/arm/arm-none-eabi/include/c++/10.3.1/bits/stl_deque.h ****       at(size_type __n)
1374:/Library/DaisyToolchain/0.2.0/arm/arm-none-eabi/include/c++/10.3.1/bits/stl_deque.h ****       {
1375:/Library/DaisyToolchain/0.2.0/arm/arm-none-eabi/include/c++/10.3.1/bits/stl_deque.h **** 	_M_range_check(__n);
1376:/Library/DaisyToolchain/0.2.0/arm/arm-none-eabi/include/c++/10.3.1/bits/stl_deque.h **** 	return (*this)[__n];
1377:/Library/DaisyToolchain/0.2.0/arm/arm-none-eabi/include/c++/10.3.1/bits/stl_deque.h ****       }
1378:/Library/DaisyToolchain/0.2.0/arm/arm-none-eabi/include/c++/10.3.1/bits/stl_deque.h **** 
1379:/Library/DaisyToolchain/0.2.0/arm/arm-none-eabi/include/c++/10.3.1/bits/stl_deque.h ****       /**
1380:/Library/DaisyToolchain/0.2.0/arm/arm-none-eabi/include/c++/10.3.1/bits/stl_deque.h ****        *  @brief  Provides access to the data contained in the %deque.
1381:/Library/DaisyToolchain/0.2.0/arm/arm-none-eabi/include/c++/10.3.1/bits/stl_deque.h ****        *  @param __n The index of the element for which data should be
1382:/Library/DaisyToolchain/0.2.0/arm/arm-none-eabi/include/c++/10.3.1/bits/stl_deque.h ****        *  accessed.
1383:/Library/DaisyToolchain/0.2.0/arm/arm-none-eabi/include/c++/10.3.1/bits/stl_deque.h ****        *  @return  Read-only (constant) reference to data.
1384:/Library/DaisyToolchain/0.2.0/arm/arm-none-eabi/include/c++/10.3.1/bits/stl_deque.h ****        *  @throw  std::out_of_range  If @a __n is an invalid index.
1385:/Library/DaisyToolchain/0.2.0/arm/arm-none-eabi/include/c++/10.3.1/bits/stl_deque.h ****        *
1386:/Library/DaisyToolchain/0.2.0/arm/arm-none-eabi/include/c++/10.3.1/bits/stl_deque.h ****        *  This function provides for safer data access.  The parameter is first
1387:/Library/DaisyToolchain/0.2.0/arm/arm-none-eabi/include/c++/10.3.1/bits/stl_deque.h ****        *  checked that it is in the range of the deque.  The function throws
1388:/Library/DaisyToolchain/0.2.0/arm/arm-none-eabi/include/c++/10.3.1/bits/stl_deque.h ****        *  out_of_range if the check fails.
1389:/Library/DaisyToolchain/0.2.0/arm/arm-none-eabi/include/c++/10.3.1/bits/stl_deque.h ****        */
1390:/Library/DaisyToolchain/0.2.0/arm/arm-none-eabi/include/c++/10.3.1/bits/stl_deque.h ****       const_reference
1391:/Library/DaisyToolchain/0.2.0/arm/arm-none-eabi/include/c++/10.3.1/bits/stl_deque.h ****       at(size_type __n) const
1392:/Library/DaisyToolchain/0.2.0/arm/arm-none-eabi/include/c++/10.3.1/bits/stl_deque.h ****       {
1393:/Library/DaisyToolchain/0.2.0/arm/arm-none-eabi/include/c++/10.3.1/bits/stl_deque.h **** 	_M_range_check(__n);
1394:/Library/DaisyToolchain/0.2.0/arm/arm-none-eabi/include/c++/10.3.1/bits/stl_deque.h **** 	return (*this)[__n];
1395:/Library/DaisyToolchain/0.2.0/arm/arm-none-eabi/include/c++/10.3.1/bits/stl_deque.h ****       }
1396:/Library/DaisyToolchain/0.2.0/arm/arm-none-eabi/include/c++/10.3.1/bits/stl_deque.h **** 
1397:/Library/DaisyToolchain/0.2.0/arm/arm-none-eabi/include/c++/10.3.1/bits/stl_deque.h ****       /**
1398:/Library/DaisyToolchain/0.2.0/arm/arm-none-eabi/include/c++/10.3.1/bits/stl_deque.h ****        *  Returns a read/write reference to the data at the first
1399:/Library/DaisyToolchain/0.2.0/arm/arm-none-eabi/include/c++/10.3.1/bits/stl_deque.h ****        *  element of the %deque.
1400:/Library/DaisyToolchain/0.2.0/arm/arm-none-eabi/include/c++/10.3.1/bits/stl_deque.h ****        */
1401:/Library/DaisyToolchain/0.2.0/arm/arm-none-eabi/include/c++/10.3.1/bits/stl_deque.h ****       reference
1402:/Library/DaisyToolchain/0.2.0/arm/arm-none-eabi/include/c++/10.3.1/bits/stl_deque.h ****       front() _GLIBCXX_NOEXCEPT
1403:/Library/DaisyToolchain/0.2.0/arm/arm-none-eabi/include/c++/10.3.1/bits/stl_deque.h ****       {
1404:/Library/DaisyToolchain/0.2.0/arm/arm-none-eabi/include/c++/10.3.1/bits/stl_deque.h **** 	__glibcxx_requires_nonempty();
1405:/Library/DaisyToolchain/0.2.0/arm/arm-none-eabi/include/c++/10.3.1/bits/stl_deque.h **** 	return *begin();
1406:/Library/DaisyToolchain/0.2.0/arm/arm-none-eabi/include/c++/10.3.1/bits/stl_deque.h ****       }
1407:/Library/DaisyToolchain/0.2.0/arm/arm-none-eabi/include/c++/10.3.1/bits/stl_deque.h **** 
1408:/Library/DaisyToolchain/0.2.0/arm/arm-none-eabi/include/c++/10.3.1/bits/stl_deque.h ****       /**
1409:/Library/DaisyToolchain/0.2.0/arm/arm-none-eabi/include/c++/10.3.1/bits/stl_deque.h ****        *  Returns a read-only (constant) reference to the data at the first
1410:/Library/DaisyToolchain/0.2.0/arm/arm-none-eabi/include/c++/10.3.1/bits/stl_deque.h ****        *  element of the %deque.
1411:/Library/DaisyToolchain/0.2.0/arm/arm-none-eabi/include/c++/10.3.1/bits/stl_deque.h ****        */
1412:/Library/DaisyToolchain/0.2.0/arm/arm-none-eabi/include/c++/10.3.1/bits/stl_deque.h ****       const_reference
1413:/Library/DaisyToolchain/0.2.0/arm/arm-none-eabi/include/c++/10.3.1/bits/stl_deque.h ****       front() const _GLIBCXX_NOEXCEPT
1414:/Library/DaisyToolchain/0.2.0/arm/arm-none-eabi/include/c++/10.3.1/bits/stl_deque.h ****       {
1415:/Library/DaisyToolchain/0.2.0/arm/arm-none-eabi/include/c++/10.3.1/bits/stl_deque.h **** 	__glibcxx_requires_nonempty();
1416:/Library/DaisyToolchain/0.2.0/arm/arm-none-eabi/include/c++/10.3.1/bits/stl_deque.h **** 	return *begin();
1417:/Library/DaisyToolchain/0.2.0/arm/arm-none-eabi/include/c++/10.3.1/bits/stl_deque.h ****       }
1418:/Library/DaisyToolchain/0.2.0/arm/arm-none-eabi/include/c++/10.3.1/bits/stl_deque.h **** 
1419:/Library/DaisyToolchain/0.2.0/arm/arm-none-eabi/include/c++/10.3.1/bits/stl_deque.h ****       /**
1420:/Library/DaisyToolchain/0.2.0/arm/arm-none-eabi/include/c++/10.3.1/bits/stl_deque.h ****        *  Returns a read/write reference to the data at the last element of the
1421:/Library/DaisyToolchain/0.2.0/arm/arm-none-eabi/include/c++/10.3.1/bits/stl_deque.h ****        *  %deque.
ARM GAS  /var/folders/s6/2bsynnl15rj0bwtb9pgx4dc00000gn/T//cc76hY55.s 			page 77


1422:/Library/DaisyToolchain/0.2.0/arm/arm-none-eabi/include/c++/10.3.1/bits/stl_deque.h ****        */
1423:/Library/DaisyToolchain/0.2.0/arm/arm-none-eabi/include/c++/10.3.1/bits/stl_deque.h ****       reference
1424:/Library/DaisyToolchain/0.2.0/arm/arm-none-eabi/include/c++/10.3.1/bits/stl_deque.h ****       back() _GLIBCXX_NOEXCEPT
1425:/Library/DaisyToolchain/0.2.0/arm/arm-none-eabi/include/c++/10.3.1/bits/stl_deque.h ****       {
1426:/Library/DaisyToolchain/0.2.0/arm/arm-none-eabi/include/c++/10.3.1/bits/stl_deque.h **** 	__glibcxx_requires_nonempty();
1427:/Library/DaisyToolchain/0.2.0/arm/arm-none-eabi/include/c++/10.3.1/bits/stl_deque.h **** 	iterator __tmp = end();
1428:/Library/DaisyToolchain/0.2.0/arm/arm-none-eabi/include/c++/10.3.1/bits/stl_deque.h **** 	--__tmp;
1429:/Library/DaisyToolchain/0.2.0/arm/arm-none-eabi/include/c++/10.3.1/bits/stl_deque.h **** 	return *__tmp;
1430:/Library/DaisyToolchain/0.2.0/arm/arm-none-eabi/include/c++/10.3.1/bits/stl_deque.h ****       }
1431:/Library/DaisyToolchain/0.2.0/arm/arm-none-eabi/include/c++/10.3.1/bits/stl_deque.h **** 
1432:/Library/DaisyToolchain/0.2.0/arm/arm-none-eabi/include/c++/10.3.1/bits/stl_deque.h ****       /**
1433:/Library/DaisyToolchain/0.2.0/arm/arm-none-eabi/include/c++/10.3.1/bits/stl_deque.h ****        *  Returns a read-only (constant) reference to the data at the last
1434:/Library/DaisyToolchain/0.2.0/arm/arm-none-eabi/include/c++/10.3.1/bits/stl_deque.h ****        *  element of the %deque.
1435:/Library/DaisyToolchain/0.2.0/arm/arm-none-eabi/include/c++/10.3.1/bits/stl_deque.h ****        */
1436:/Library/DaisyToolchain/0.2.0/arm/arm-none-eabi/include/c++/10.3.1/bits/stl_deque.h ****       const_reference
1437:/Library/DaisyToolchain/0.2.0/arm/arm-none-eabi/include/c++/10.3.1/bits/stl_deque.h ****       back() const _GLIBCXX_NOEXCEPT
1438:/Library/DaisyToolchain/0.2.0/arm/arm-none-eabi/include/c++/10.3.1/bits/stl_deque.h ****       {
1439:/Library/DaisyToolchain/0.2.0/arm/arm-none-eabi/include/c++/10.3.1/bits/stl_deque.h **** 	__glibcxx_requires_nonempty();
1440:/Library/DaisyToolchain/0.2.0/arm/arm-none-eabi/include/c++/10.3.1/bits/stl_deque.h **** 	const_iterator __tmp = end();
1441:/Library/DaisyToolchain/0.2.0/arm/arm-none-eabi/include/c++/10.3.1/bits/stl_deque.h **** 	--__tmp;
1442:/Library/DaisyToolchain/0.2.0/arm/arm-none-eabi/include/c++/10.3.1/bits/stl_deque.h **** 	return *__tmp;
1443:/Library/DaisyToolchain/0.2.0/arm/arm-none-eabi/include/c++/10.3.1/bits/stl_deque.h ****       }
1444:/Library/DaisyToolchain/0.2.0/arm/arm-none-eabi/include/c++/10.3.1/bits/stl_deque.h **** 
1445:/Library/DaisyToolchain/0.2.0/arm/arm-none-eabi/include/c++/10.3.1/bits/stl_deque.h ****       // [23.2.1.2] modifiers
1446:/Library/DaisyToolchain/0.2.0/arm/arm-none-eabi/include/c++/10.3.1/bits/stl_deque.h ****       /**
1447:/Library/DaisyToolchain/0.2.0/arm/arm-none-eabi/include/c++/10.3.1/bits/stl_deque.h ****        *  @brief  Add data to the front of the %deque.
1448:/Library/DaisyToolchain/0.2.0/arm/arm-none-eabi/include/c++/10.3.1/bits/stl_deque.h ****        *  @param  __x  Data to be added.
1449:/Library/DaisyToolchain/0.2.0/arm/arm-none-eabi/include/c++/10.3.1/bits/stl_deque.h ****        *
1450:/Library/DaisyToolchain/0.2.0/arm/arm-none-eabi/include/c++/10.3.1/bits/stl_deque.h ****        *  This is a typical stack operation.  The function creates an
1451:/Library/DaisyToolchain/0.2.0/arm/arm-none-eabi/include/c++/10.3.1/bits/stl_deque.h ****        *  element at the front of the %deque and assigns the given
1452:/Library/DaisyToolchain/0.2.0/arm/arm-none-eabi/include/c++/10.3.1/bits/stl_deque.h ****        *  data to it.  Due to the nature of a %deque this operation
1453:/Library/DaisyToolchain/0.2.0/arm/arm-none-eabi/include/c++/10.3.1/bits/stl_deque.h ****        *  can be done in constant time.
1454:/Library/DaisyToolchain/0.2.0/arm/arm-none-eabi/include/c++/10.3.1/bits/stl_deque.h ****        */
1455:/Library/DaisyToolchain/0.2.0/arm/arm-none-eabi/include/c++/10.3.1/bits/stl_deque.h ****       void
1456:/Library/DaisyToolchain/0.2.0/arm/arm-none-eabi/include/c++/10.3.1/bits/stl_deque.h ****       push_front(const value_type& __x)
1457:/Library/DaisyToolchain/0.2.0/arm/arm-none-eabi/include/c++/10.3.1/bits/stl_deque.h ****       {
1458:/Library/DaisyToolchain/0.2.0/arm/arm-none-eabi/include/c++/10.3.1/bits/stl_deque.h **** 	if (this->_M_impl._M_start._M_cur != this->_M_impl._M_start._M_first)
1459:/Library/DaisyToolchain/0.2.0/arm/arm-none-eabi/include/c++/10.3.1/bits/stl_deque.h **** 	  {
1460:/Library/DaisyToolchain/0.2.0/arm/arm-none-eabi/include/c++/10.3.1/bits/stl_deque.h **** 	    _Alloc_traits::construct(this->_M_impl,
1461:/Library/DaisyToolchain/0.2.0/arm/arm-none-eabi/include/c++/10.3.1/bits/stl_deque.h **** 				     this->_M_impl._M_start._M_cur - 1,
1462:/Library/DaisyToolchain/0.2.0/arm/arm-none-eabi/include/c++/10.3.1/bits/stl_deque.h **** 				     __x);
1463:/Library/DaisyToolchain/0.2.0/arm/arm-none-eabi/include/c++/10.3.1/bits/stl_deque.h **** 	    --this->_M_impl._M_start._M_cur;
1464:/Library/DaisyToolchain/0.2.0/arm/arm-none-eabi/include/c++/10.3.1/bits/stl_deque.h **** 	  }
1465:/Library/DaisyToolchain/0.2.0/arm/arm-none-eabi/include/c++/10.3.1/bits/stl_deque.h **** 	else
1466:/Library/DaisyToolchain/0.2.0/arm/arm-none-eabi/include/c++/10.3.1/bits/stl_deque.h **** 	  _M_push_front_aux(__x);
1467:/Library/DaisyToolchain/0.2.0/arm/arm-none-eabi/include/c++/10.3.1/bits/stl_deque.h ****       }
1468:/Library/DaisyToolchain/0.2.0/arm/arm-none-eabi/include/c++/10.3.1/bits/stl_deque.h **** 
1469:/Library/DaisyToolchain/0.2.0/arm/arm-none-eabi/include/c++/10.3.1/bits/stl_deque.h **** #if __cplusplus >= 201103L
1470:/Library/DaisyToolchain/0.2.0/arm/arm-none-eabi/include/c++/10.3.1/bits/stl_deque.h ****       void
1471:/Library/DaisyToolchain/0.2.0/arm/arm-none-eabi/include/c++/10.3.1/bits/stl_deque.h ****       push_front(value_type&& __x)
1472:/Library/DaisyToolchain/0.2.0/arm/arm-none-eabi/include/c++/10.3.1/bits/stl_deque.h ****       { emplace_front(std::move(__x)); }
1473:/Library/DaisyToolchain/0.2.0/arm/arm-none-eabi/include/c++/10.3.1/bits/stl_deque.h **** 
1474:/Library/DaisyToolchain/0.2.0/arm/arm-none-eabi/include/c++/10.3.1/bits/stl_deque.h ****       template<typename... _Args>
1475:/Library/DaisyToolchain/0.2.0/arm/arm-none-eabi/include/c++/10.3.1/bits/stl_deque.h **** #if __cplusplus > 201402L
1476:/Library/DaisyToolchain/0.2.0/arm/arm-none-eabi/include/c++/10.3.1/bits/stl_deque.h **** 	reference
1477:/Library/DaisyToolchain/0.2.0/arm/arm-none-eabi/include/c++/10.3.1/bits/stl_deque.h **** #else
1478:/Library/DaisyToolchain/0.2.0/arm/arm-none-eabi/include/c++/10.3.1/bits/stl_deque.h **** 	void
ARM GAS  /var/folders/s6/2bsynnl15rj0bwtb9pgx4dc00000gn/T//cc76hY55.s 			page 78


1479:/Library/DaisyToolchain/0.2.0/arm/arm-none-eabi/include/c++/10.3.1/bits/stl_deque.h **** #endif
1480:/Library/DaisyToolchain/0.2.0/arm/arm-none-eabi/include/c++/10.3.1/bits/stl_deque.h **** 	emplace_front(_Args&&... __args);
1481:/Library/DaisyToolchain/0.2.0/arm/arm-none-eabi/include/c++/10.3.1/bits/stl_deque.h **** #endif
1482:/Library/DaisyToolchain/0.2.0/arm/arm-none-eabi/include/c++/10.3.1/bits/stl_deque.h **** 
1483:/Library/DaisyToolchain/0.2.0/arm/arm-none-eabi/include/c++/10.3.1/bits/stl_deque.h ****       /**
1484:/Library/DaisyToolchain/0.2.0/arm/arm-none-eabi/include/c++/10.3.1/bits/stl_deque.h ****        *  @brief  Add data to the end of the %deque.
1485:/Library/DaisyToolchain/0.2.0/arm/arm-none-eabi/include/c++/10.3.1/bits/stl_deque.h ****        *  @param  __x  Data to be added.
1486:/Library/DaisyToolchain/0.2.0/arm/arm-none-eabi/include/c++/10.3.1/bits/stl_deque.h ****        *
1487:/Library/DaisyToolchain/0.2.0/arm/arm-none-eabi/include/c++/10.3.1/bits/stl_deque.h ****        *  This is a typical stack operation.  The function creates an
1488:/Library/DaisyToolchain/0.2.0/arm/arm-none-eabi/include/c++/10.3.1/bits/stl_deque.h ****        *  element at the end of the %deque and assigns the given data
1489:/Library/DaisyToolchain/0.2.0/arm/arm-none-eabi/include/c++/10.3.1/bits/stl_deque.h ****        *  to it.  Due to the nature of a %deque this operation can be
1490:/Library/DaisyToolchain/0.2.0/arm/arm-none-eabi/include/c++/10.3.1/bits/stl_deque.h ****        *  done in constant time.
1491:/Library/DaisyToolchain/0.2.0/arm/arm-none-eabi/include/c++/10.3.1/bits/stl_deque.h ****        */
1492:/Library/DaisyToolchain/0.2.0/arm/arm-none-eabi/include/c++/10.3.1/bits/stl_deque.h ****       void
1493:/Library/DaisyToolchain/0.2.0/arm/arm-none-eabi/include/c++/10.3.1/bits/stl_deque.h ****       push_back(const value_type& __x)
 1406              		.loc 14 1493 7 view .LVU356
 1407              	.LBB694:
1494:/Library/DaisyToolchain/0.2.0/arm/arm-none-eabi/include/c++/10.3.1/bits/stl_deque.h ****       {
1495:/Library/DaisyToolchain/0.2.0/arm/arm-none-eabi/include/c++/10.3.1/bits/stl_deque.h **** 	if (this->_M_impl._M_finish._M_cur
1496:/Library/DaisyToolchain/0.2.0/arm/arm-none-eabi/include/c++/10.3.1/bits/stl_deque.h **** 	    != this->_M_impl._M_finish._M_last - 1)
 1408              		.loc 14 1496 41 is_stmt 0 view .LVU357
 1409 00fe D8F82020 		ldr	r2, [r8, #32]
1495:/Library/DaisyToolchain/0.2.0/arm/arm-none-eabi/include/c++/10.3.1/bits/stl_deque.h **** 	    != this->_M_impl._M_finish._M_last - 1)
 1410              		.loc 14 1495 30 view .LVU358
 1411 0102 D8F81830 		ldr	r3, [r8, #24]
 1412              		.loc 14 1496 41 view .LVU359
 1413 0106 013A     		subs	r2, r2, #1
1495:/Library/DaisyToolchain/0.2.0/arm/arm-none-eabi/include/c++/10.3.1/bits/stl_deque.h **** 	    != this->_M_impl._M_finish._M_last - 1)
 1414              		.loc 14 1495 2 view .LVU360
 1415 0108 9342     		cmp	r3, r2
 1416 010a 2AD0     		beq	.L96
 1417              	.LVL108:
 1418              	.LBB695:
 1419              	.LBI695:
 1420              		.file 15 "/Library/DaisyToolchain/0.2.0/arm/arm-none-eabi/include/c++/10.3.1/bits/alloc_traits.h"
   1:/Library/DaisyToolchain/0.2.0/arm/arm-none-eabi/include/c++/10.3.1/bits/alloc_traits.h **** // Allocator traits -*- C++ -*-
   2:/Library/DaisyToolchain/0.2.0/arm/arm-none-eabi/include/c++/10.3.1/bits/alloc_traits.h **** 
   3:/Library/DaisyToolchain/0.2.0/arm/arm-none-eabi/include/c++/10.3.1/bits/alloc_traits.h **** // Copyright (C) 2011-2020 Free Software Foundation, Inc.
   4:/Library/DaisyToolchain/0.2.0/arm/arm-none-eabi/include/c++/10.3.1/bits/alloc_traits.h **** //
   5:/Library/DaisyToolchain/0.2.0/arm/arm-none-eabi/include/c++/10.3.1/bits/alloc_traits.h **** // This file is part of the GNU ISO C++ Library.  This library is free
   6:/Library/DaisyToolchain/0.2.0/arm/arm-none-eabi/include/c++/10.3.1/bits/alloc_traits.h **** // software; you can redistribute it and/or modify it under the
   7:/Library/DaisyToolchain/0.2.0/arm/arm-none-eabi/include/c++/10.3.1/bits/alloc_traits.h **** // terms of the GNU General Public License as published by the
   8:/Library/DaisyToolchain/0.2.0/arm/arm-none-eabi/include/c++/10.3.1/bits/alloc_traits.h **** // Free Software Foundation; either version 3, or (at your option)
   9:/Library/DaisyToolchain/0.2.0/arm/arm-none-eabi/include/c++/10.3.1/bits/alloc_traits.h **** // any later version.
  10:/Library/DaisyToolchain/0.2.0/arm/arm-none-eabi/include/c++/10.3.1/bits/alloc_traits.h **** 
  11:/Library/DaisyToolchain/0.2.0/arm/arm-none-eabi/include/c++/10.3.1/bits/alloc_traits.h **** // This library is distributed in the hope that it will be useful,
  12:/Library/DaisyToolchain/0.2.0/arm/arm-none-eabi/include/c++/10.3.1/bits/alloc_traits.h **** // but WITHOUT ANY WARRANTY; without even the implied warranty of
  13:/Library/DaisyToolchain/0.2.0/arm/arm-none-eabi/include/c++/10.3.1/bits/alloc_traits.h **** // MERCHANTABILITY or FITNESS FOR A PARTICULAR PURPOSE.  See the
  14:/Library/DaisyToolchain/0.2.0/arm/arm-none-eabi/include/c++/10.3.1/bits/alloc_traits.h **** // GNU General Public License for more details.
  15:/Library/DaisyToolchain/0.2.0/arm/arm-none-eabi/include/c++/10.3.1/bits/alloc_traits.h **** 
  16:/Library/DaisyToolchain/0.2.0/arm/arm-none-eabi/include/c++/10.3.1/bits/alloc_traits.h **** // Under Section 7 of GPL version 3, you are granted additional
  17:/Library/DaisyToolchain/0.2.0/arm/arm-none-eabi/include/c++/10.3.1/bits/alloc_traits.h **** // permissions described in the GCC Runtime Library Exception, version
  18:/Library/DaisyToolchain/0.2.0/arm/arm-none-eabi/include/c++/10.3.1/bits/alloc_traits.h **** // 3.1, as published by the Free Software Foundation.
  19:/Library/DaisyToolchain/0.2.0/arm/arm-none-eabi/include/c++/10.3.1/bits/alloc_traits.h **** 
  20:/Library/DaisyToolchain/0.2.0/arm/arm-none-eabi/include/c++/10.3.1/bits/alloc_traits.h **** // You should have received a copy of the GNU General Public License and
  21:/Library/DaisyToolchain/0.2.0/arm/arm-none-eabi/include/c++/10.3.1/bits/alloc_traits.h **** // a copy of the GCC Runtime Library Exception along with this program;
  22:/Library/DaisyToolchain/0.2.0/arm/arm-none-eabi/include/c++/10.3.1/bits/alloc_traits.h **** // see the files COPYING3 and COPYING.RUNTIME respectively.  If not, see
ARM GAS  /var/folders/s6/2bsynnl15rj0bwtb9pgx4dc00000gn/T//cc76hY55.s 			page 79


  23:/Library/DaisyToolchain/0.2.0/arm/arm-none-eabi/include/c++/10.3.1/bits/alloc_traits.h **** // <http://www.gnu.org/licenses/>.
  24:/Library/DaisyToolchain/0.2.0/arm/arm-none-eabi/include/c++/10.3.1/bits/alloc_traits.h **** 
  25:/Library/DaisyToolchain/0.2.0/arm/arm-none-eabi/include/c++/10.3.1/bits/alloc_traits.h **** /** @file bits/alloc_traits.h
  26:/Library/DaisyToolchain/0.2.0/arm/arm-none-eabi/include/c++/10.3.1/bits/alloc_traits.h ****  *  This is an internal header file, included by other library headers.
  27:/Library/DaisyToolchain/0.2.0/arm/arm-none-eabi/include/c++/10.3.1/bits/alloc_traits.h ****  *  Do not attempt to use it directly. @headername{memory}
  28:/Library/DaisyToolchain/0.2.0/arm/arm-none-eabi/include/c++/10.3.1/bits/alloc_traits.h ****  */
  29:/Library/DaisyToolchain/0.2.0/arm/arm-none-eabi/include/c++/10.3.1/bits/alloc_traits.h **** 
  30:/Library/DaisyToolchain/0.2.0/arm/arm-none-eabi/include/c++/10.3.1/bits/alloc_traits.h **** #ifndef _ALLOC_TRAITS_H
  31:/Library/DaisyToolchain/0.2.0/arm/arm-none-eabi/include/c++/10.3.1/bits/alloc_traits.h **** #define _ALLOC_TRAITS_H 1
  32:/Library/DaisyToolchain/0.2.0/arm/arm-none-eabi/include/c++/10.3.1/bits/alloc_traits.h **** 
  33:/Library/DaisyToolchain/0.2.0/arm/arm-none-eabi/include/c++/10.3.1/bits/alloc_traits.h **** #include <bits/stl_construct.h>
  34:/Library/DaisyToolchain/0.2.0/arm/arm-none-eabi/include/c++/10.3.1/bits/alloc_traits.h **** #include <bits/memoryfwd.h>
  35:/Library/DaisyToolchain/0.2.0/arm/arm-none-eabi/include/c++/10.3.1/bits/alloc_traits.h **** #if __cplusplus >= 201103L
  36:/Library/DaisyToolchain/0.2.0/arm/arm-none-eabi/include/c++/10.3.1/bits/alloc_traits.h **** # include <bits/allocator.h>
  37:/Library/DaisyToolchain/0.2.0/arm/arm-none-eabi/include/c++/10.3.1/bits/alloc_traits.h **** # include <bits/ptr_traits.h>
  38:/Library/DaisyToolchain/0.2.0/arm/arm-none-eabi/include/c++/10.3.1/bits/alloc_traits.h **** # include <ext/numeric_traits.h>
  39:/Library/DaisyToolchain/0.2.0/arm/arm-none-eabi/include/c++/10.3.1/bits/alloc_traits.h **** #endif
  40:/Library/DaisyToolchain/0.2.0/arm/arm-none-eabi/include/c++/10.3.1/bits/alloc_traits.h **** 
  41:/Library/DaisyToolchain/0.2.0/arm/arm-none-eabi/include/c++/10.3.1/bits/alloc_traits.h **** namespace std _GLIBCXX_VISIBILITY(default)
  42:/Library/DaisyToolchain/0.2.0/arm/arm-none-eabi/include/c++/10.3.1/bits/alloc_traits.h **** {
  43:/Library/DaisyToolchain/0.2.0/arm/arm-none-eabi/include/c++/10.3.1/bits/alloc_traits.h **** _GLIBCXX_BEGIN_NAMESPACE_VERSION
  44:/Library/DaisyToolchain/0.2.0/arm/arm-none-eabi/include/c++/10.3.1/bits/alloc_traits.h **** 
  45:/Library/DaisyToolchain/0.2.0/arm/arm-none-eabi/include/c++/10.3.1/bits/alloc_traits.h **** #if __cplusplus >= 201103L
  46:/Library/DaisyToolchain/0.2.0/arm/arm-none-eabi/include/c++/10.3.1/bits/alloc_traits.h **** #define __cpp_lib_allocator_traits_is_always_equal 201411
  47:/Library/DaisyToolchain/0.2.0/arm/arm-none-eabi/include/c++/10.3.1/bits/alloc_traits.h **** 
  48:/Library/DaisyToolchain/0.2.0/arm/arm-none-eabi/include/c++/10.3.1/bits/alloc_traits.h ****   struct __allocator_traits_base
  49:/Library/DaisyToolchain/0.2.0/arm/arm-none-eabi/include/c++/10.3.1/bits/alloc_traits.h ****   {
  50:/Library/DaisyToolchain/0.2.0/arm/arm-none-eabi/include/c++/10.3.1/bits/alloc_traits.h ****     template<typename _Tp, typename _Up, typename = void>
  51:/Library/DaisyToolchain/0.2.0/arm/arm-none-eabi/include/c++/10.3.1/bits/alloc_traits.h ****       struct __rebind : __replace_first_arg<_Tp, _Up> { };
  52:/Library/DaisyToolchain/0.2.0/arm/arm-none-eabi/include/c++/10.3.1/bits/alloc_traits.h **** 
  53:/Library/DaisyToolchain/0.2.0/arm/arm-none-eabi/include/c++/10.3.1/bits/alloc_traits.h ****     template<typename _Tp, typename _Up>
  54:/Library/DaisyToolchain/0.2.0/arm/arm-none-eabi/include/c++/10.3.1/bits/alloc_traits.h ****       struct __rebind<_Tp, _Up,
  55:/Library/DaisyToolchain/0.2.0/arm/arm-none-eabi/include/c++/10.3.1/bits/alloc_traits.h **** 		      __void_t<typename _Tp::template rebind<_Up>::other>>
  56:/Library/DaisyToolchain/0.2.0/arm/arm-none-eabi/include/c++/10.3.1/bits/alloc_traits.h ****       { using type = typename _Tp::template rebind<_Up>::other; };
  57:/Library/DaisyToolchain/0.2.0/arm/arm-none-eabi/include/c++/10.3.1/bits/alloc_traits.h **** 
  58:/Library/DaisyToolchain/0.2.0/arm/arm-none-eabi/include/c++/10.3.1/bits/alloc_traits.h ****   protected:
  59:/Library/DaisyToolchain/0.2.0/arm/arm-none-eabi/include/c++/10.3.1/bits/alloc_traits.h ****     template<typename _Tp>
  60:/Library/DaisyToolchain/0.2.0/arm/arm-none-eabi/include/c++/10.3.1/bits/alloc_traits.h ****       using __pointer = typename _Tp::pointer;
  61:/Library/DaisyToolchain/0.2.0/arm/arm-none-eabi/include/c++/10.3.1/bits/alloc_traits.h ****     template<typename _Tp>
  62:/Library/DaisyToolchain/0.2.0/arm/arm-none-eabi/include/c++/10.3.1/bits/alloc_traits.h ****       using __c_pointer = typename _Tp::const_pointer;
  63:/Library/DaisyToolchain/0.2.0/arm/arm-none-eabi/include/c++/10.3.1/bits/alloc_traits.h ****     template<typename _Tp>
  64:/Library/DaisyToolchain/0.2.0/arm/arm-none-eabi/include/c++/10.3.1/bits/alloc_traits.h ****       using __v_pointer = typename _Tp::void_pointer;
  65:/Library/DaisyToolchain/0.2.0/arm/arm-none-eabi/include/c++/10.3.1/bits/alloc_traits.h ****     template<typename _Tp>
  66:/Library/DaisyToolchain/0.2.0/arm/arm-none-eabi/include/c++/10.3.1/bits/alloc_traits.h ****       using __cv_pointer = typename _Tp::const_void_pointer;
  67:/Library/DaisyToolchain/0.2.0/arm/arm-none-eabi/include/c++/10.3.1/bits/alloc_traits.h ****     template<typename _Tp>
  68:/Library/DaisyToolchain/0.2.0/arm/arm-none-eabi/include/c++/10.3.1/bits/alloc_traits.h ****       using __pocca = typename _Tp::propagate_on_container_copy_assignment;
  69:/Library/DaisyToolchain/0.2.0/arm/arm-none-eabi/include/c++/10.3.1/bits/alloc_traits.h ****     template<typename _Tp>
  70:/Library/DaisyToolchain/0.2.0/arm/arm-none-eabi/include/c++/10.3.1/bits/alloc_traits.h ****       using __pocma = typename _Tp::propagate_on_container_move_assignment;
  71:/Library/DaisyToolchain/0.2.0/arm/arm-none-eabi/include/c++/10.3.1/bits/alloc_traits.h ****     template<typename _Tp>
  72:/Library/DaisyToolchain/0.2.0/arm/arm-none-eabi/include/c++/10.3.1/bits/alloc_traits.h ****       using __pocs = typename _Tp::propagate_on_container_swap;
  73:/Library/DaisyToolchain/0.2.0/arm/arm-none-eabi/include/c++/10.3.1/bits/alloc_traits.h ****     template<typename _Tp>
  74:/Library/DaisyToolchain/0.2.0/arm/arm-none-eabi/include/c++/10.3.1/bits/alloc_traits.h ****       using __equal = typename _Tp::is_always_equal;
  75:/Library/DaisyToolchain/0.2.0/arm/arm-none-eabi/include/c++/10.3.1/bits/alloc_traits.h ****   };
  76:/Library/DaisyToolchain/0.2.0/arm/arm-none-eabi/include/c++/10.3.1/bits/alloc_traits.h **** 
  77:/Library/DaisyToolchain/0.2.0/arm/arm-none-eabi/include/c++/10.3.1/bits/alloc_traits.h ****   template<typename _Alloc, typename _Up>
  78:/Library/DaisyToolchain/0.2.0/arm/arm-none-eabi/include/c++/10.3.1/bits/alloc_traits.h ****     using __alloc_rebind
  79:/Library/DaisyToolchain/0.2.0/arm/arm-none-eabi/include/c++/10.3.1/bits/alloc_traits.h ****       = typename __allocator_traits_base::template __rebind<_Alloc, _Up>::type;
ARM GAS  /var/folders/s6/2bsynnl15rj0bwtb9pgx4dc00000gn/T//cc76hY55.s 			page 80


  80:/Library/DaisyToolchain/0.2.0/arm/arm-none-eabi/include/c++/10.3.1/bits/alloc_traits.h **** 
  81:/Library/DaisyToolchain/0.2.0/arm/arm-none-eabi/include/c++/10.3.1/bits/alloc_traits.h ****   /**
  82:/Library/DaisyToolchain/0.2.0/arm/arm-none-eabi/include/c++/10.3.1/bits/alloc_traits.h ****    * @brief  Uniform interface to all allocator types.
  83:/Library/DaisyToolchain/0.2.0/arm/arm-none-eabi/include/c++/10.3.1/bits/alloc_traits.h ****    * @ingroup allocators
  84:/Library/DaisyToolchain/0.2.0/arm/arm-none-eabi/include/c++/10.3.1/bits/alloc_traits.h ****   */
  85:/Library/DaisyToolchain/0.2.0/arm/arm-none-eabi/include/c++/10.3.1/bits/alloc_traits.h ****   template<typename _Alloc>
  86:/Library/DaisyToolchain/0.2.0/arm/arm-none-eabi/include/c++/10.3.1/bits/alloc_traits.h ****     struct allocator_traits : __allocator_traits_base
  87:/Library/DaisyToolchain/0.2.0/arm/arm-none-eabi/include/c++/10.3.1/bits/alloc_traits.h ****     {
  88:/Library/DaisyToolchain/0.2.0/arm/arm-none-eabi/include/c++/10.3.1/bits/alloc_traits.h ****       /// The allocator type
  89:/Library/DaisyToolchain/0.2.0/arm/arm-none-eabi/include/c++/10.3.1/bits/alloc_traits.h ****       typedef _Alloc allocator_type;
  90:/Library/DaisyToolchain/0.2.0/arm/arm-none-eabi/include/c++/10.3.1/bits/alloc_traits.h ****       /// The allocated type
  91:/Library/DaisyToolchain/0.2.0/arm/arm-none-eabi/include/c++/10.3.1/bits/alloc_traits.h ****       typedef typename _Alloc::value_type value_type;
  92:/Library/DaisyToolchain/0.2.0/arm/arm-none-eabi/include/c++/10.3.1/bits/alloc_traits.h **** 
  93:/Library/DaisyToolchain/0.2.0/arm/arm-none-eabi/include/c++/10.3.1/bits/alloc_traits.h ****       /**
  94:/Library/DaisyToolchain/0.2.0/arm/arm-none-eabi/include/c++/10.3.1/bits/alloc_traits.h ****        * @brief   The allocator's pointer type.
  95:/Library/DaisyToolchain/0.2.0/arm/arm-none-eabi/include/c++/10.3.1/bits/alloc_traits.h ****        *
  96:/Library/DaisyToolchain/0.2.0/arm/arm-none-eabi/include/c++/10.3.1/bits/alloc_traits.h ****        * @c Alloc::pointer if that type exists, otherwise @c value_type*
  97:/Library/DaisyToolchain/0.2.0/arm/arm-none-eabi/include/c++/10.3.1/bits/alloc_traits.h ****       */
  98:/Library/DaisyToolchain/0.2.0/arm/arm-none-eabi/include/c++/10.3.1/bits/alloc_traits.h ****       using pointer = __detected_or_t<value_type*, __pointer, _Alloc>;
  99:/Library/DaisyToolchain/0.2.0/arm/arm-none-eabi/include/c++/10.3.1/bits/alloc_traits.h **** 
 100:/Library/DaisyToolchain/0.2.0/arm/arm-none-eabi/include/c++/10.3.1/bits/alloc_traits.h ****     private:
 101:/Library/DaisyToolchain/0.2.0/arm/arm-none-eabi/include/c++/10.3.1/bits/alloc_traits.h ****       // Select _Func<_Alloc> or pointer_traits<pointer>::rebind<_Tp>
 102:/Library/DaisyToolchain/0.2.0/arm/arm-none-eabi/include/c++/10.3.1/bits/alloc_traits.h ****       template<template<typename> class _Func, typename _Tp, typename = void>
 103:/Library/DaisyToolchain/0.2.0/arm/arm-none-eabi/include/c++/10.3.1/bits/alloc_traits.h **** 	struct _Ptr
 104:/Library/DaisyToolchain/0.2.0/arm/arm-none-eabi/include/c++/10.3.1/bits/alloc_traits.h **** 	{
 105:/Library/DaisyToolchain/0.2.0/arm/arm-none-eabi/include/c++/10.3.1/bits/alloc_traits.h **** 	  using type = typename pointer_traits<pointer>::template rebind<_Tp>;
 106:/Library/DaisyToolchain/0.2.0/arm/arm-none-eabi/include/c++/10.3.1/bits/alloc_traits.h **** 	};
 107:/Library/DaisyToolchain/0.2.0/arm/arm-none-eabi/include/c++/10.3.1/bits/alloc_traits.h **** 
 108:/Library/DaisyToolchain/0.2.0/arm/arm-none-eabi/include/c++/10.3.1/bits/alloc_traits.h ****       template<template<typename> class _Func, typename _Tp>
 109:/Library/DaisyToolchain/0.2.0/arm/arm-none-eabi/include/c++/10.3.1/bits/alloc_traits.h **** 	struct _Ptr<_Func, _Tp, __void_t<_Func<_Alloc>>>
 110:/Library/DaisyToolchain/0.2.0/arm/arm-none-eabi/include/c++/10.3.1/bits/alloc_traits.h **** 	{
 111:/Library/DaisyToolchain/0.2.0/arm/arm-none-eabi/include/c++/10.3.1/bits/alloc_traits.h **** 	  using type = _Func<_Alloc>;
 112:/Library/DaisyToolchain/0.2.0/arm/arm-none-eabi/include/c++/10.3.1/bits/alloc_traits.h **** 	};
 113:/Library/DaisyToolchain/0.2.0/arm/arm-none-eabi/include/c++/10.3.1/bits/alloc_traits.h **** 
 114:/Library/DaisyToolchain/0.2.0/arm/arm-none-eabi/include/c++/10.3.1/bits/alloc_traits.h ****       // Select _A2::difference_type or pointer_traits<_Ptr>::difference_type
 115:/Library/DaisyToolchain/0.2.0/arm/arm-none-eabi/include/c++/10.3.1/bits/alloc_traits.h ****       template<typename _A2, typename _PtrT, typename = void>
 116:/Library/DaisyToolchain/0.2.0/arm/arm-none-eabi/include/c++/10.3.1/bits/alloc_traits.h **** 	struct _Diff
 117:/Library/DaisyToolchain/0.2.0/arm/arm-none-eabi/include/c++/10.3.1/bits/alloc_traits.h **** 	{ using type = typename pointer_traits<_PtrT>::difference_type; };
 118:/Library/DaisyToolchain/0.2.0/arm/arm-none-eabi/include/c++/10.3.1/bits/alloc_traits.h **** 
 119:/Library/DaisyToolchain/0.2.0/arm/arm-none-eabi/include/c++/10.3.1/bits/alloc_traits.h ****       template<typename _A2, typename _PtrT>
 120:/Library/DaisyToolchain/0.2.0/arm/arm-none-eabi/include/c++/10.3.1/bits/alloc_traits.h **** 	struct _Diff<_A2, _PtrT, __void_t<typename _A2::difference_type>>
 121:/Library/DaisyToolchain/0.2.0/arm/arm-none-eabi/include/c++/10.3.1/bits/alloc_traits.h **** 	{ using type = typename _A2::difference_type; };
 122:/Library/DaisyToolchain/0.2.0/arm/arm-none-eabi/include/c++/10.3.1/bits/alloc_traits.h **** 
 123:/Library/DaisyToolchain/0.2.0/arm/arm-none-eabi/include/c++/10.3.1/bits/alloc_traits.h ****       // Select _A2::size_type or make_unsigned<_DiffT>::type
 124:/Library/DaisyToolchain/0.2.0/arm/arm-none-eabi/include/c++/10.3.1/bits/alloc_traits.h ****       template<typename _A2, typename _DiffT, typename = void>
 125:/Library/DaisyToolchain/0.2.0/arm/arm-none-eabi/include/c++/10.3.1/bits/alloc_traits.h **** 	struct _Size : make_unsigned<_DiffT> { };
 126:/Library/DaisyToolchain/0.2.0/arm/arm-none-eabi/include/c++/10.3.1/bits/alloc_traits.h **** 
 127:/Library/DaisyToolchain/0.2.0/arm/arm-none-eabi/include/c++/10.3.1/bits/alloc_traits.h ****       template<typename _A2, typename _DiffT>
 128:/Library/DaisyToolchain/0.2.0/arm/arm-none-eabi/include/c++/10.3.1/bits/alloc_traits.h **** 	struct _Size<_A2, _DiffT, __void_t<typename _A2::size_type>>
 129:/Library/DaisyToolchain/0.2.0/arm/arm-none-eabi/include/c++/10.3.1/bits/alloc_traits.h **** 	{ using type = typename _A2::size_type; };
 130:/Library/DaisyToolchain/0.2.0/arm/arm-none-eabi/include/c++/10.3.1/bits/alloc_traits.h **** 
 131:/Library/DaisyToolchain/0.2.0/arm/arm-none-eabi/include/c++/10.3.1/bits/alloc_traits.h ****     public:
 132:/Library/DaisyToolchain/0.2.0/arm/arm-none-eabi/include/c++/10.3.1/bits/alloc_traits.h ****       /**
 133:/Library/DaisyToolchain/0.2.0/arm/arm-none-eabi/include/c++/10.3.1/bits/alloc_traits.h ****        * @brief   The allocator's const pointer type.
 134:/Library/DaisyToolchain/0.2.0/arm/arm-none-eabi/include/c++/10.3.1/bits/alloc_traits.h ****        *
 135:/Library/DaisyToolchain/0.2.0/arm/arm-none-eabi/include/c++/10.3.1/bits/alloc_traits.h ****        * @c Alloc::const_pointer if that type exists, otherwise
 136:/Library/DaisyToolchain/0.2.0/arm/arm-none-eabi/include/c++/10.3.1/bits/alloc_traits.h ****        * <tt> pointer_traits<pointer>::rebind<const value_type> </tt>
ARM GAS  /var/folders/s6/2bsynnl15rj0bwtb9pgx4dc00000gn/T//cc76hY55.s 			page 81


 137:/Library/DaisyToolchain/0.2.0/arm/arm-none-eabi/include/c++/10.3.1/bits/alloc_traits.h ****       */
 138:/Library/DaisyToolchain/0.2.0/arm/arm-none-eabi/include/c++/10.3.1/bits/alloc_traits.h ****       using const_pointer = typename _Ptr<__c_pointer, const value_type>::type;
 139:/Library/DaisyToolchain/0.2.0/arm/arm-none-eabi/include/c++/10.3.1/bits/alloc_traits.h **** 
 140:/Library/DaisyToolchain/0.2.0/arm/arm-none-eabi/include/c++/10.3.1/bits/alloc_traits.h ****       /**
 141:/Library/DaisyToolchain/0.2.0/arm/arm-none-eabi/include/c++/10.3.1/bits/alloc_traits.h ****        * @brief   The allocator's void pointer type.
 142:/Library/DaisyToolchain/0.2.0/arm/arm-none-eabi/include/c++/10.3.1/bits/alloc_traits.h ****        *
 143:/Library/DaisyToolchain/0.2.0/arm/arm-none-eabi/include/c++/10.3.1/bits/alloc_traits.h ****        * @c Alloc::void_pointer if that type exists, otherwise
 144:/Library/DaisyToolchain/0.2.0/arm/arm-none-eabi/include/c++/10.3.1/bits/alloc_traits.h ****        * <tt> pointer_traits<pointer>::rebind<void> </tt>
 145:/Library/DaisyToolchain/0.2.0/arm/arm-none-eabi/include/c++/10.3.1/bits/alloc_traits.h ****       */
 146:/Library/DaisyToolchain/0.2.0/arm/arm-none-eabi/include/c++/10.3.1/bits/alloc_traits.h ****       using void_pointer = typename _Ptr<__v_pointer, void>::type;
 147:/Library/DaisyToolchain/0.2.0/arm/arm-none-eabi/include/c++/10.3.1/bits/alloc_traits.h **** 
 148:/Library/DaisyToolchain/0.2.0/arm/arm-none-eabi/include/c++/10.3.1/bits/alloc_traits.h ****       /**
 149:/Library/DaisyToolchain/0.2.0/arm/arm-none-eabi/include/c++/10.3.1/bits/alloc_traits.h ****        * @brief   The allocator's const void pointer type.
 150:/Library/DaisyToolchain/0.2.0/arm/arm-none-eabi/include/c++/10.3.1/bits/alloc_traits.h ****        *
 151:/Library/DaisyToolchain/0.2.0/arm/arm-none-eabi/include/c++/10.3.1/bits/alloc_traits.h ****        * @c Alloc::const_void_pointer if that type exists, otherwise
 152:/Library/DaisyToolchain/0.2.0/arm/arm-none-eabi/include/c++/10.3.1/bits/alloc_traits.h ****        * <tt> pointer_traits<pointer>::rebind<const void> </tt>
 153:/Library/DaisyToolchain/0.2.0/arm/arm-none-eabi/include/c++/10.3.1/bits/alloc_traits.h ****       */
 154:/Library/DaisyToolchain/0.2.0/arm/arm-none-eabi/include/c++/10.3.1/bits/alloc_traits.h ****       using const_void_pointer = typename _Ptr<__cv_pointer, const void>::type;
 155:/Library/DaisyToolchain/0.2.0/arm/arm-none-eabi/include/c++/10.3.1/bits/alloc_traits.h **** 
 156:/Library/DaisyToolchain/0.2.0/arm/arm-none-eabi/include/c++/10.3.1/bits/alloc_traits.h ****       /**
 157:/Library/DaisyToolchain/0.2.0/arm/arm-none-eabi/include/c++/10.3.1/bits/alloc_traits.h ****        * @brief   The allocator's difference type
 158:/Library/DaisyToolchain/0.2.0/arm/arm-none-eabi/include/c++/10.3.1/bits/alloc_traits.h ****        *
 159:/Library/DaisyToolchain/0.2.0/arm/arm-none-eabi/include/c++/10.3.1/bits/alloc_traits.h ****        * @c Alloc::difference_type if that type exists, otherwise
 160:/Library/DaisyToolchain/0.2.0/arm/arm-none-eabi/include/c++/10.3.1/bits/alloc_traits.h ****        * <tt> pointer_traits<pointer>::difference_type </tt>
 161:/Library/DaisyToolchain/0.2.0/arm/arm-none-eabi/include/c++/10.3.1/bits/alloc_traits.h ****       */
 162:/Library/DaisyToolchain/0.2.0/arm/arm-none-eabi/include/c++/10.3.1/bits/alloc_traits.h ****       using difference_type = typename _Diff<_Alloc, pointer>::type;
 163:/Library/DaisyToolchain/0.2.0/arm/arm-none-eabi/include/c++/10.3.1/bits/alloc_traits.h **** 
 164:/Library/DaisyToolchain/0.2.0/arm/arm-none-eabi/include/c++/10.3.1/bits/alloc_traits.h ****       /**
 165:/Library/DaisyToolchain/0.2.0/arm/arm-none-eabi/include/c++/10.3.1/bits/alloc_traits.h ****        * @brief   The allocator's size type
 166:/Library/DaisyToolchain/0.2.0/arm/arm-none-eabi/include/c++/10.3.1/bits/alloc_traits.h ****        *
 167:/Library/DaisyToolchain/0.2.0/arm/arm-none-eabi/include/c++/10.3.1/bits/alloc_traits.h ****        * @c Alloc::size_type if that type exists, otherwise
 168:/Library/DaisyToolchain/0.2.0/arm/arm-none-eabi/include/c++/10.3.1/bits/alloc_traits.h ****        * <tt> make_unsigned<difference_type>::type </tt>
 169:/Library/DaisyToolchain/0.2.0/arm/arm-none-eabi/include/c++/10.3.1/bits/alloc_traits.h ****       */
 170:/Library/DaisyToolchain/0.2.0/arm/arm-none-eabi/include/c++/10.3.1/bits/alloc_traits.h ****       using size_type = typename _Size<_Alloc, difference_type>::type;
 171:/Library/DaisyToolchain/0.2.0/arm/arm-none-eabi/include/c++/10.3.1/bits/alloc_traits.h **** 
 172:/Library/DaisyToolchain/0.2.0/arm/arm-none-eabi/include/c++/10.3.1/bits/alloc_traits.h ****       /**
 173:/Library/DaisyToolchain/0.2.0/arm/arm-none-eabi/include/c++/10.3.1/bits/alloc_traits.h ****        * @brief   How the allocator is propagated on copy assignment
 174:/Library/DaisyToolchain/0.2.0/arm/arm-none-eabi/include/c++/10.3.1/bits/alloc_traits.h ****        *
 175:/Library/DaisyToolchain/0.2.0/arm/arm-none-eabi/include/c++/10.3.1/bits/alloc_traits.h ****        * @c Alloc::propagate_on_container_copy_assignment if that type exists,
 176:/Library/DaisyToolchain/0.2.0/arm/arm-none-eabi/include/c++/10.3.1/bits/alloc_traits.h ****        * otherwise @c false_type
 177:/Library/DaisyToolchain/0.2.0/arm/arm-none-eabi/include/c++/10.3.1/bits/alloc_traits.h ****       */
 178:/Library/DaisyToolchain/0.2.0/arm/arm-none-eabi/include/c++/10.3.1/bits/alloc_traits.h ****       using propagate_on_container_copy_assignment
 179:/Library/DaisyToolchain/0.2.0/arm/arm-none-eabi/include/c++/10.3.1/bits/alloc_traits.h **** 	= __detected_or_t<false_type, __pocca, _Alloc>;
 180:/Library/DaisyToolchain/0.2.0/arm/arm-none-eabi/include/c++/10.3.1/bits/alloc_traits.h **** 
 181:/Library/DaisyToolchain/0.2.0/arm/arm-none-eabi/include/c++/10.3.1/bits/alloc_traits.h ****       /**
 182:/Library/DaisyToolchain/0.2.0/arm/arm-none-eabi/include/c++/10.3.1/bits/alloc_traits.h ****        * @brief   How the allocator is propagated on move assignment
 183:/Library/DaisyToolchain/0.2.0/arm/arm-none-eabi/include/c++/10.3.1/bits/alloc_traits.h ****        *
 184:/Library/DaisyToolchain/0.2.0/arm/arm-none-eabi/include/c++/10.3.1/bits/alloc_traits.h ****        * @c Alloc::propagate_on_container_move_assignment if that type exists,
 185:/Library/DaisyToolchain/0.2.0/arm/arm-none-eabi/include/c++/10.3.1/bits/alloc_traits.h ****        * otherwise @c false_type
 186:/Library/DaisyToolchain/0.2.0/arm/arm-none-eabi/include/c++/10.3.1/bits/alloc_traits.h ****       */
 187:/Library/DaisyToolchain/0.2.0/arm/arm-none-eabi/include/c++/10.3.1/bits/alloc_traits.h ****       using propagate_on_container_move_assignment
 188:/Library/DaisyToolchain/0.2.0/arm/arm-none-eabi/include/c++/10.3.1/bits/alloc_traits.h **** 	= __detected_or_t<false_type, __pocma, _Alloc>;
 189:/Library/DaisyToolchain/0.2.0/arm/arm-none-eabi/include/c++/10.3.1/bits/alloc_traits.h **** 
 190:/Library/DaisyToolchain/0.2.0/arm/arm-none-eabi/include/c++/10.3.1/bits/alloc_traits.h ****       /**
 191:/Library/DaisyToolchain/0.2.0/arm/arm-none-eabi/include/c++/10.3.1/bits/alloc_traits.h ****        * @brief   How the allocator is propagated on swap
 192:/Library/DaisyToolchain/0.2.0/arm/arm-none-eabi/include/c++/10.3.1/bits/alloc_traits.h ****        *
 193:/Library/DaisyToolchain/0.2.0/arm/arm-none-eabi/include/c++/10.3.1/bits/alloc_traits.h ****        * @c Alloc::propagate_on_container_swap if that type exists,
ARM GAS  /var/folders/s6/2bsynnl15rj0bwtb9pgx4dc00000gn/T//cc76hY55.s 			page 82


 194:/Library/DaisyToolchain/0.2.0/arm/arm-none-eabi/include/c++/10.3.1/bits/alloc_traits.h ****        * otherwise @c false_type
 195:/Library/DaisyToolchain/0.2.0/arm/arm-none-eabi/include/c++/10.3.1/bits/alloc_traits.h ****       */
 196:/Library/DaisyToolchain/0.2.0/arm/arm-none-eabi/include/c++/10.3.1/bits/alloc_traits.h ****       using propagate_on_container_swap
 197:/Library/DaisyToolchain/0.2.0/arm/arm-none-eabi/include/c++/10.3.1/bits/alloc_traits.h **** 	= __detected_or_t<false_type, __pocs, _Alloc>;
 198:/Library/DaisyToolchain/0.2.0/arm/arm-none-eabi/include/c++/10.3.1/bits/alloc_traits.h **** 
 199:/Library/DaisyToolchain/0.2.0/arm/arm-none-eabi/include/c++/10.3.1/bits/alloc_traits.h ****       /**
 200:/Library/DaisyToolchain/0.2.0/arm/arm-none-eabi/include/c++/10.3.1/bits/alloc_traits.h ****        * @brief   Whether all instances of the allocator type compare equal.
 201:/Library/DaisyToolchain/0.2.0/arm/arm-none-eabi/include/c++/10.3.1/bits/alloc_traits.h ****        *
 202:/Library/DaisyToolchain/0.2.0/arm/arm-none-eabi/include/c++/10.3.1/bits/alloc_traits.h ****        * @c Alloc::is_always_equal if that type exists,
 203:/Library/DaisyToolchain/0.2.0/arm/arm-none-eabi/include/c++/10.3.1/bits/alloc_traits.h ****        * otherwise @c is_empty<Alloc>::type
 204:/Library/DaisyToolchain/0.2.0/arm/arm-none-eabi/include/c++/10.3.1/bits/alloc_traits.h ****       */
 205:/Library/DaisyToolchain/0.2.0/arm/arm-none-eabi/include/c++/10.3.1/bits/alloc_traits.h ****       using is_always_equal
 206:/Library/DaisyToolchain/0.2.0/arm/arm-none-eabi/include/c++/10.3.1/bits/alloc_traits.h **** 	= __detected_or_t<typename is_empty<_Alloc>::type, __equal, _Alloc>;
 207:/Library/DaisyToolchain/0.2.0/arm/arm-none-eabi/include/c++/10.3.1/bits/alloc_traits.h **** 
 208:/Library/DaisyToolchain/0.2.0/arm/arm-none-eabi/include/c++/10.3.1/bits/alloc_traits.h ****       template<typename _Tp>
 209:/Library/DaisyToolchain/0.2.0/arm/arm-none-eabi/include/c++/10.3.1/bits/alloc_traits.h **** 	using rebind_alloc = __alloc_rebind<_Alloc, _Tp>;
 210:/Library/DaisyToolchain/0.2.0/arm/arm-none-eabi/include/c++/10.3.1/bits/alloc_traits.h ****       template<typename _Tp>
 211:/Library/DaisyToolchain/0.2.0/arm/arm-none-eabi/include/c++/10.3.1/bits/alloc_traits.h **** 	using rebind_traits = allocator_traits<rebind_alloc<_Tp>>;
 212:/Library/DaisyToolchain/0.2.0/arm/arm-none-eabi/include/c++/10.3.1/bits/alloc_traits.h **** 
 213:/Library/DaisyToolchain/0.2.0/arm/arm-none-eabi/include/c++/10.3.1/bits/alloc_traits.h ****     private:
 214:/Library/DaisyToolchain/0.2.0/arm/arm-none-eabi/include/c++/10.3.1/bits/alloc_traits.h ****       template<typename _Alloc2>
 215:/Library/DaisyToolchain/0.2.0/arm/arm-none-eabi/include/c++/10.3.1/bits/alloc_traits.h **** 	static constexpr auto
 216:/Library/DaisyToolchain/0.2.0/arm/arm-none-eabi/include/c++/10.3.1/bits/alloc_traits.h **** 	_S_allocate(_Alloc2& __a, size_type __n, const_void_pointer __hint, int)
 217:/Library/DaisyToolchain/0.2.0/arm/arm-none-eabi/include/c++/10.3.1/bits/alloc_traits.h **** 	-> decltype(__a.allocate(__n, __hint))
 218:/Library/DaisyToolchain/0.2.0/arm/arm-none-eabi/include/c++/10.3.1/bits/alloc_traits.h **** 	{ return __a.allocate(__n, __hint); }
 219:/Library/DaisyToolchain/0.2.0/arm/arm-none-eabi/include/c++/10.3.1/bits/alloc_traits.h **** 
 220:/Library/DaisyToolchain/0.2.0/arm/arm-none-eabi/include/c++/10.3.1/bits/alloc_traits.h ****       template<typename _Alloc2>
 221:/Library/DaisyToolchain/0.2.0/arm/arm-none-eabi/include/c++/10.3.1/bits/alloc_traits.h **** 	static constexpr pointer
 222:/Library/DaisyToolchain/0.2.0/arm/arm-none-eabi/include/c++/10.3.1/bits/alloc_traits.h **** 	_S_allocate(_Alloc2& __a, size_type __n, const_void_pointer, ...)
 223:/Library/DaisyToolchain/0.2.0/arm/arm-none-eabi/include/c++/10.3.1/bits/alloc_traits.h **** 	{ return __a.allocate(__n); }
 224:/Library/DaisyToolchain/0.2.0/arm/arm-none-eabi/include/c++/10.3.1/bits/alloc_traits.h **** 
 225:/Library/DaisyToolchain/0.2.0/arm/arm-none-eabi/include/c++/10.3.1/bits/alloc_traits.h ****       template<typename _Tp, typename... _Args>
 226:/Library/DaisyToolchain/0.2.0/arm/arm-none-eabi/include/c++/10.3.1/bits/alloc_traits.h **** 	struct __construct_helper
 227:/Library/DaisyToolchain/0.2.0/arm/arm-none-eabi/include/c++/10.3.1/bits/alloc_traits.h **** 	{
 228:/Library/DaisyToolchain/0.2.0/arm/arm-none-eabi/include/c++/10.3.1/bits/alloc_traits.h **** 	  template<typename _Alloc2,
 229:/Library/DaisyToolchain/0.2.0/arm/arm-none-eabi/include/c++/10.3.1/bits/alloc_traits.h **** 	    typename = decltype(std::declval<_Alloc2*>()->construct(
 230:/Library/DaisyToolchain/0.2.0/arm/arm-none-eabi/include/c++/10.3.1/bits/alloc_traits.h **** 		  std::declval<_Tp*>(), std::declval<_Args>()...))>
 231:/Library/DaisyToolchain/0.2.0/arm/arm-none-eabi/include/c++/10.3.1/bits/alloc_traits.h **** 	    static true_type __test(int);
 232:/Library/DaisyToolchain/0.2.0/arm/arm-none-eabi/include/c++/10.3.1/bits/alloc_traits.h **** 
 233:/Library/DaisyToolchain/0.2.0/arm/arm-none-eabi/include/c++/10.3.1/bits/alloc_traits.h **** 	  template<typename>
 234:/Library/DaisyToolchain/0.2.0/arm/arm-none-eabi/include/c++/10.3.1/bits/alloc_traits.h **** 	    static false_type __test(...);
 235:/Library/DaisyToolchain/0.2.0/arm/arm-none-eabi/include/c++/10.3.1/bits/alloc_traits.h **** 
 236:/Library/DaisyToolchain/0.2.0/arm/arm-none-eabi/include/c++/10.3.1/bits/alloc_traits.h **** 	  using type = decltype(__test<_Alloc>(0));
 237:/Library/DaisyToolchain/0.2.0/arm/arm-none-eabi/include/c++/10.3.1/bits/alloc_traits.h **** 	};
 238:/Library/DaisyToolchain/0.2.0/arm/arm-none-eabi/include/c++/10.3.1/bits/alloc_traits.h **** 
 239:/Library/DaisyToolchain/0.2.0/arm/arm-none-eabi/include/c++/10.3.1/bits/alloc_traits.h ****       template<typename _Tp, typename... _Args>
 240:/Library/DaisyToolchain/0.2.0/arm/arm-none-eabi/include/c++/10.3.1/bits/alloc_traits.h **** 	using __has_construct
 241:/Library/DaisyToolchain/0.2.0/arm/arm-none-eabi/include/c++/10.3.1/bits/alloc_traits.h **** 	  = typename __construct_helper<_Tp, _Args...>::type;
 242:/Library/DaisyToolchain/0.2.0/arm/arm-none-eabi/include/c++/10.3.1/bits/alloc_traits.h **** 
 243:/Library/DaisyToolchain/0.2.0/arm/arm-none-eabi/include/c++/10.3.1/bits/alloc_traits.h ****       template<typename _Tp, typename... _Args>
 244:/Library/DaisyToolchain/0.2.0/arm/arm-none-eabi/include/c++/10.3.1/bits/alloc_traits.h **** 	static _GLIBCXX14_CONSTEXPR _Require<__has_construct<_Tp, _Args...>>
 245:/Library/DaisyToolchain/0.2.0/arm/arm-none-eabi/include/c++/10.3.1/bits/alloc_traits.h **** 	_S_construct(_Alloc& __a, _Tp* __p, _Args&&... __args)
 246:/Library/DaisyToolchain/0.2.0/arm/arm-none-eabi/include/c++/10.3.1/bits/alloc_traits.h **** 	noexcept(noexcept(__a.construct(__p, std::forward<_Args>(__args)...)))
 247:/Library/DaisyToolchain/0.2.0/arm/arm-none-eabi/include/c++/10.3.1/bits/alloc_traits.h **** 	{ __a.construct(__p, std::forward<_Args>(__args)...); }
 248:/Library/DaisyToolchain/0.2.0/arm/arm-none-eabi/include/c++/10.3.1/bits/alloc_traits.h **** 
 249:/Library/DaisyToolchain/0.2.0/arm/arm-none-eabi/include/c++/10.3.1/bits/alloc_traits.h ****       template<typename _Tp, typename... _Args>
 250:/Library/DaisyToolchain/0.2.0/arm/arm-none-eabi/include/c++/10.3.1/bits/alloc_traits.h **** 	static _GLIBCXX14_CONSTEXPR
ARM GAS  /var/folders/s6/2bsynnl15rj0bwtb9pgx4dc00000gn/T//cc76hY55.s 			page 83


 251:/Library/DaisyToolchain/0.2.0/arm/arm-none-eabi/include/c++/10.3.1/bits/alloc_traits.h **** 	_Require<__and_<__not_<__has_construct<_Tp, _Args...>>,
 252:/Library/DaisyToolchain/0.2.0/arm/arm-none-eabi/include/c++/10.3.1/bits/alloc_traits.h **** 			       is_constructible<_Tp, _Args...>>>
 253:/Library/DaisyToolchain/0.2.0/arm/arm-none-eabi/include/c++/10.3.1/bits/alloc_traits.h **** 	_S_construct(_Alloc&, _Tp* __p, _Args&&... __args)
 254:/Library/DaisyToolchain/0.2.0/arm/arm-none-eabi/include/c++/10.3.1/bits/alloc_traits.h **** 	noexcept(std::is_nothrow_constructible<_Tp, _Args...>::value)
 255:/Library/DaisyToolchain/0.2.0/arm/arm-none-eabi/include/c++/10.3.1/bits/alloc_traits.h **** 	{
 256:/Library/DaisyToolchain/0.2.0/arm/arm-none-eabi/include/c++/10.3.1/bits/alloc_traits.h **** #if __cplusplus <= 201703L
 257:/Library/DaisyToolchain/0.2.0/arm/arm-none-eabi/include/c++/10.3.1/bits/alloc_traits.h **** 	  ::new((void*)__p) _Tp(std::forward<_Args>(__args)...);
 258:/Library/DaisyToolchain/0.2.0/arm/arm-none-eabi/include/c++/10.3.1/bits/alloc_traits.h **** #else
 259:/Library/DaisyToolchain/0.2.0/arm/arm-none-eabi/include/c++/10.3.1/bits/alloc_traits.h **** 	  std::construct_at(__p, std::forward<_Args>(__args)...);
 260:/Library/DaisyToolchain/0.2.0/arm/arm-none-eabi/include/c++/10.3.1/bits/alloc_traits.h **** #endif
 261:/Library/DaisyToolchain/0.2.0/arm/arm-none-eabi/include/c++/10.3.1/bits/alloc_traits.h **** 	}
 262:/Library/DaisyToolchain/0.2.0/arm/arm-none-eabi/include/c++/10.3.1/bits/alloc_traits.h **** 
 263:/Library/DaisyToolchain/0.2.0/arm/arm-none-eabi/include/c++/10.3.1/bits/alloc_traits.h ****       template<typename _Alloc2, typename _Tp>
 264:/Library/DaisyToolchain/0.2.0/arm/arm-none-eabi/include/c++/10.3.1/bits/alloc_traits.h **** 	static _GLIBCXX14_CONSTEXPR auto
 265:/Library/DaisyToolchain/0.2.0/arm/arm-none-eabi/include/c++/10.3.1/bits/alloc_traits.h **** 	_S_destroy(_Alloc2& __a, _Tp* __p, int)
 266:/Library/DaisyToolchain/0.2.0/arm/arm-none-eabi/include/c++/10.3.1/bits/alloc_traits.h **** 	noexcept(noexcept(__a.destroy(__p)))
 267:/Library/DaisyToolchain/0.2.0/arm/arm-none-eabi/include/c++/10.3.1/bits/alloc_traits.h **** 	-> decltype(__a.destroy(__p))
 268:/Library/DaisyToolchain/0.2.0/arm/arm-none-eabi/include/c++/10.3.1/bits/alloc_traits.h **** 	{ __a.destroy(__p); }
 269:/Library/DaisyToolchain/0.2.0/arm/arm-none-eabi/include/c++/10.3.1/bits/alloc_traits.h **** 
 270:/Library/DaisyToolchain/0.2.0/arm/arm-none-eabi/include/c++/10.3.1/bits/alloc_traits.h ****       template<typename _Alloc2, typename _Tp>
 271:/Library/DaisyToolchain/0.2.0/arm/arm-none-eabi/include/c++/10.3.1/bits/alloc_traits.h **** 	static _GLIBCXX14_CONSTEXPR void
 272:/Library/DaisyToolchain/0.2.0/arm/arm-none-eabi/include/c++/10.3.1/bits/alloc_traits.h **** 	_S_destroy(_Alloc2&, _Tp* __p, ...)
 273:/Library/DaisyToolchain/0.2.0/arm/arm-none-eabi/include/c++/10.3.1/bits/alloc_traits.h **** 	noexcept(std::is_nothrow_destructible<_Tp>::value)
 274:/Library/DaisyToolchain/0.2.0/arm/arm-none-eabi/include/c++/10.3.1/bits/alloc_traits.h **** 	{ std::_Destroy(__p); }
 275:/Library/DaisyToolchain/0.2.0/arm/arm-none-eabi/include/c++/10.3.1/bits/alloc_traits.h **** 
 276:/Library/DaisyToolchain/0.2.0/arm/arm-none-eabi/include/c++/10.3.1/bits/alloc_traits.h ****       template<typename _Alloc2>
 277:/Library/DaisyToolchain/0.2.0/arm/arm-none-eabi/include/c++/10.3.1/bits/alloc_traits.h **** 	static constexpr auto
 278:/Library/DaisyToolchain/0.2.0/arm/arm-none-eabi/include/c++/10.3.1/bits/alloc_traits.h **** 	_S_max_size(_Alloc2& __a, int)
 279:/Library/DaisyToolchain/0.2.0/arm/arm-none-eabi/include/c++/10.3.1/bits/alloc_traits.h **** 	-> decltype(__a.max_size())
 280:/Library/DaisyToolchain/0.2.0/arm/arm-none-eabi/include/c++/10.3.1/bits/alloc_traits.h **** 	{ return __a.max_size(); }
 281:/Library/DaisyToolchain/0.2.0/arm/arm-none-eabi/include/c++/10.3.1/bits/alloc_traits.h **** 
 282:/Library/DaisyToolchain/0.2.0/arm/arm-none-eabi/include/c++/10.3.1/bits/alloc_traits.h ****       template<typename _Alloc2>
 283:/Library/DaisyToolchain/0.2.0/arm/arm-none-eabi/include/c++/10.3.1/bits/alloc_traits.h **** 	static constexpr size_type
 284:/Library/DaisyToolchain/0.2.0/arm/arm-none-eabi/include/c++/10.3.1/bits/alloc_traits.h **** 	_S_max_size(_Alloc2&, ...)
 285:/Library/DaisyToolchain/0.2.0/arm/arm-none-eabi/include/c++/10.3.1/bits/alloc_traits.h **** 	{
 286:/Library/DaisyToolchain/0.2.0/arm/arm-none-eabi/include/c++/10.3.1/bits/alloc_traits.h **** 	  // _GLIBCXX_RESOLVE_LIB_DEFECTS
 287:/Library/DaisyToolchain/0.2.0/arm/arm-none-eabi/include/c++/10.3.1/bits/alloc_traits.h **** 	  // 2466. allocator_traits::max_size() default behavior is incorrect
 288:/Library/DaisyToolchain/0.2.0/arm/arm-none-eabi/include/c++/10.3.1/bits/alloc_traits.h **** 	  return __gnu_cxx::__numeric_traits<size_type>::__max
 289:/Library/DaisyToolchain/0.2.0/arm/arm-none-eabi/include/c++/10.3.1/bits/alloc_traits.h **** 	    / sizeof(value_type);
 290:/Library/DaisyToolchain/0.2.0/arm/arm-none-eabi/include/c++/10.3.1/bits/alloc_traits.h **** 	}
 291:/Library/DaisyToolchain/0.2.0/arm/arm-none-eabi/include/c++/10.3.1/bits/alloc_traits.h **** 
 292:/Library/DaisyToolchain/0.2.0/arm/arm-none-eabi/include/c++/10.3.1/bits/alloc_traits.h ****       template<typename _Alloc2>
 293:/Library/DaisyToolchain/0.2.0/arm/arm-none-eabi/include/c++/10.3.1/bits/alloc_traits.h **** 	static constexpr auto
 294:/Library/DaisyToolchain/0.2.0/arm/arm-none-eabi/include/c++/10.3.1/bits/alloc_traits.h **** 	_S_select(_Alloc2& __a, int)
 295:/Library/DaisyToolchain/0.2.0/arm/arm-none-eabi/include/c++/10.3.1/bits/alloc_traits.h **** 	-> decltype(__a.select_on_container_copy_construction())
 296:/Library/DaisyToolchain/0.2.0/arm/arm-none-eabi/include/c++/10.3.1/bits/alloc_traits.h **** 	{ return __a.select_on_container_copy_construction(); }
 297:/Library/DaisyToolchain/0.2.0/arm/arm-none-eabi/include/c++/10.3.1/bits/alloc_traits.h **** 
 298:/Library/DaisyToolchain/0.2.0/arm/arm-none-eabi/include/c++/10.3.1/bits/alloc_traits.h ****       template<typename _Alloc2>
 299:/Library/DaisyToolchain/0.2.0/arm/arm-none-eabi/include/c++/10.3.1/bits/alloc_traits.h **** 	static constexpr _Alloc2
 300:/Library/DaisyToolchain/0.2.0/arm/arm-none-eabi/include/c++/10.3.1/bits/alloc_traits.h **** 	_S_select(_Alloc2& __a, ...)
 301:/Library/DaisyToolchain/0.2.0/arm/arm-none-eabi/include/c++/10.3.1/bits/alloc_traits.h **** 	{ return __a; }
 302:/Library/DaisyToolchain/0.2.0/arm/arm-none-eabi/include/c++/10.3.1/bits/alloc_traits.h **** 
 303:/Library/DaisyToolchain/0.2.0/arm/arm-none-eabi/include/c++/10.3.1/bits/alloc_traits.h ****     public:
 304:/Library/DaisyToolchain/0.2.0/arm/arm-none-eabi/include/c++/10.3.1/bits/alloc_traits.h **** 
 305:/Library/DaisyToolchain/0.2.0/arm/arm-none-eabi/include/c++/10.3.1/bits/alloc_traits.h ****       /**
 306:/Library/DaisyToolchain/0.2.0/arm/arm-none-eabi/include/c++/10.3.1/bits/alloc_traits.h ****        *  @brief  Allocate memory.
 307:/Library/DaisyToolchain/0.2.0/arm/arm-none-eabi/include/c++/10.3.1/bits/alloc_traits.h ****        *  @param  __a  An allocator.
ARM GAS  /var/folders/s6/2bsynnl15rj0bwtb9pgx4dc00000gn/T//cc76hY55.s 			page 84


 308:/Library/DaisyToolchain/0.2.0/arm/arm-none-eabi/include/c++/10.3.1/bits/alloc_traits.h ****        *  @param  __n  The number of objects to allocate space for.
 309:/Library/DaisyToolchain/0.2.0/arm/arm-none-eabi/include/c++/10.3.1/bits/alloc_traits.h ****        *
 310:/Library/DaisyToolchain/0.2.0/arm/arm-none-eabi/include/c++/10.3.1/bits/alloc_traits.h ****        *  Calls @c a.allocate(n)
 311:/Library/DaisyToolchain/0.2.0/arm/arm-none-eabi/include/c++/10.3.1/bits/alloc_traits.h ****       */
 312:/Library/DaisyToolchain/0.2.0/arm/arm-none-eabi/include/c++/10.3.1/bits/alloc_traits.h ****       _GLIBCXX_NODISCARD static _GLIBCXX20_CONSTEXPR pointer
 313:/Library/DaisyToolchain/0.2.0/arm/arm-none-eabi/include/c++/10.3.1/bits/alloc_traits.h ****       allocate(_Alloc& __a, size_type __n)
 314:/Library/DaisyToolchain/0.2.0/arm/arm-none-eabi/include/c++/10.3.1/bits/alloc_traits.h ****       { return __a.allocate(__n); }
 315:/Library/DaisyToolchain/0.2.0/arm/arm-none-eabi/include/c++/10.3.1/bits/alloc_traits.h **** 
 316:/Library/DaisyToolchain/0.2.0/arm/arm-none-eabi/include/c++/10.3.1/bits/alloc_traits.h ****       /**
 317:/Library/DaisyToolchain/0.2.0/arm/arm-none-eabi/include/c++/10.3.1/bits/alloc_traits.h ****        *  @brief  Allocate memory.
 318:/Library/DaisyToolchain/0.2.0/arm/arm-none-eabi/include/c++/10.3.1/bits/alloc_traits.h ****        *  @param  __a  An allocator.
 319:/Library/DaisyToolchain/0.2.0/arm/arm-none-eabi/include/c++/10.3.1/bits/alloc_traits.h ****        *  @param  __n  The number of objects to allocate space for.
 320:/Library/DaisyToolchain/0.2.0/arm/arm-none-eabi/include/c++/10.3.1/bits/alloc_traits.h ****        *  @param  __hint Aid to locality.
 321:/Library/DaisyToolchain/0.2.0/arm/arm-none-eabi/include/c++/10.3.1/bits/alloc_traits.h ****        *  @return Memory of suitable size and alignment for @a n objects
 322:/Library/DaisyToolchain/0.2.0/arm/arm-none-eabi/include/c++/10.3.1/bits/alloc_traits.h ****        *          of type @c value_type
 323:/Library/DaisyToolchain/0.2.0/arm/arm-none-eabi/include/c++/10.3.1/bits/alloc_traits.h ****        *
 324:/Library/DaisyToolchain/0.2.0/arm/arm-none-eabi/include/c++/10.3.1/bits/alloc_traits.h ****        *  Returns <tt> a.allocate(n, hint) </tt> if that expression is
 325:/Library/DaisyToolchain/0.2.0/arm/arm-none-eabi/include/c++/10.3.1/bits/alloc_traits.h ****        *  well-formed, otherwise returns @c a.allocate(n)
 326:/Library/DaisyToolchain/0.2.0/arm/arm-none-eabi/include/c++/10.3.1/bits/alloc_traits.h ****       */
 327:/Library/DaisyToolchain/0.2.0/arm/arm-none-eabi/include/c++/10.3.1/bits/alloc_traits.h ****       _GLIBCXX_NODISCARD static _GLIBCXX20_CONSTEXPR pointer
 328:/Library/DaisyToolchain/0.2.0/arm/arm-none-eabi/include/c++/10.3.1/bits/alloc_traits.h ****       allocate(_Alloc& __a, size_type __n, const_void_pointer __hint)
 329:/Library/DaisyToolchain/0.2.0/arm/arm-none-eabi/include/c++/10.3.1/bits/alloc_traits.h ****       { return _S_allocate(__a, __n, __hint, 0); }
 330:/Library/DaisyToolchain/0.2.0/arm/arm-none-eabi/include/c++/10.3.1/bits/alloc_traits.h **** 
 331:/Library/DaisyToolchain/0.2.0/arm/arm-none-eabi/include/c++/10.3.1/bits/alloc_traits.h ****       /**
 332:/Library/DaisyToolchain/0.2.0/arm/arm-none-eabi/include/c++/10.3.1/bits/alloc_traits.h ****        *  @brief  Deallocate memory.
 333:/Library/DaisyToolchain/0.2.0/arm/arm-none-eabi/include/c++/10.3.1/bits/alloc_traits.h ****        *  @param  __a  An allocator.
 334:/Library/DaisyToolchain/0.2.0/arm/arm-none-eabi/include/c++/10.3.1/bits/alloc_traits.h ****        *  @param  __p  Pointer to the memory to deallocate.
 335:/Library/DaisyToolchain/0.2.0/arm/arm-none-eabi/include/c++/10.3.1/bits/alloc_traits.h ****        *  @param  __n  The number of objects space was allocated for.
 336:/Library/DaisyToolchain/0.2.0/arm/arm-none-eabi/include/c++/10.3.1/bits/alloc_traits.h ****        *
 337:/Library/DaisyToolchain/0.2.0/arm/arm-none-eabi/include/c++/10.3.1/bits/alloc_traits.h ****        *  Calls <tt> a.deallocate(p, n) </tt>
 338:/Library/DaisyToolchain/0.2.0/arm/arm-none-eabi/include/c++/10.3.1/bits/alloc_traits.h ****       */
 339:/Library/DaisyToolchain/0.2.0/arm/arm-none-eabi/include/c++/10.3.1/bits/alloc_traits.h ****       static _GLIBCXX20_CONSTEXPR void
 340:/Library/DaisyToolchain/0.2.0/arm/arm-none-eabi/include/c++/10.3.1/bits/alloc_traits.h ****       deallocate(_Alloc& __a, pointer __p, size_type __n)
 341:/Library/DaisyToolchain/0.2.0/arm/arm-none-eabi/include/c++/10.3.1/bits/alloc_traits.h ****       { __a.deallocate(__p, __n); }
 342:/Library/DaisyToolchain/0.2.0/arm/arm-none-eabi/include/c++/10.3.1/bits/alloc_traits.h **** 
 343:/Library/DaisyToolchain/0.2.0/arm/arm-none-eabi/include/c++/10.3.1/bits/alloc_traits.h ****       /**
 344:/Library/DaisyToolchain/0.2.0/arm/arm-none-eabi/include/c++/10.3.1/bits/alloc_traits.h ****        *  @brief  Construct an object of type `_Tp`
 345:/Library/DaisyToolchain/0.2.0/arm/arm-none-eabi/include/c++/10.3.1/bits/alloc_traits.h ****        *  @param  __a  An allocator.
 346:/Library/DaisyToolchain/0.2.0/arm/arm-none-eabi/include/c++/10.3.1/bits/alloc_traits.h ****        *  @param  __p  Pointer to memory of suitable size and alignment for Tp
 347:/Library/DaisyToolchain/0.2.0/arm/arm-none-eabi/include/c++/10.3.1/bits/alloc_traits.h ****        *  @param  __args Constructor arguments.
 348:/Library/DaisyToolchain/0.2.0/arm/arm-none-eabi/include/c++/10.3.1/bits/alloc_traits.h ****        *
 349:/Library/DaisyToolchain/0.2.0/arm/arm-none-eabi/include/c++/10.3.1/bits/alloc_traits.h ****        *  Calls <tt> __a.construct(__p, std::forward<Args>(__args)...) </tt>
 350:/Library/DaisyToolchain/0.2.0/arm/arm-none-eabi/include/c++/10.3.1/bits/alloc_traits.h ****        *  if that expression is well-formed, otherwise uses placement-new
 351:/Library/DaisyToolchain/0.2.0/arm/arm-none-eabi/include/c++/10.3.1/bits/alloc_traits.h ****        *  to construct an object of type @a _Tp at location @a __p from the
 352:/Library/DaisyToolchain/0.2.0/arm/arm-none-eabi/include/c++/10.3.1/bits/alloc_traits.h ****        *  arguments @a __args...
 353:/Library/DaisyToolchain/0.2.0/arm/arm-none-eabi/include/c++/10.3.1/bits/alloc_traits.h ****       */
 354:/Library/DaisyToolchain/0.2.0/arm/arm-none-eabi/include/c++/10.3.1/bits/alloc_traits.h ****       template<typename _Tp, typename... _Args>
 355:/Library/DaisyToolchain/0.2.0/arm/arm-none-eabi/include/c++/10.3.1/bits/alloc_traits.h **** 	static _GLIBCXX20_CONSTEXPR auto
 356:/Library/DaisyToolchain/0.2.0/arm/arm-none-eabi/include/c++/10.3.1/bits/alloc_traits.h **** 	construct(_Alloc& __a, _Tp* __p, _Args&&... __args)
 357:/Library/DaisyToolchain/0.2.0/arm/arm-none-eabi/include/c++/10.3.1/bits/alloc_traits.h **** 	noexcept(noexcept(_S_construct(__a, __p,
 358:/Library/DaisyToolchain/0.2.0/arm/arm-none-eabi/include/c++/10.3.1/bits/alloc_traits.h **** 				       std::forward<_Args>(__args)...)))
 359:/Library/DaisyToolchain/0.2.0/arm/arm-none-eabi/include/c++/10.3.1/bits/alloc_traits.h **** 	-> decltype(_S_construct(__a, __p, std::forward<_Args>(__args)...))
 360:/Library/DaisyToolchain/0.2.0/arm/arm-none-eabi/include/c++/10.3.1/bits/alloc_traits.h **** 	{ _S_construct(__a, __p, std::forward<_Args>(__args)...); }
 361:/Library/DaisyToolchain/0.2.0/arm/arm-none-eabi/include/c++/10.3.1/bits/alloc_traits.h **** 
 362:/Library/DaisyToolchain/0.2.0/arm/arm-none-eabi/include/c++/10.3.1/bits/alloc_traits.h ****       /**
 363:/Library/DaisyToolchain/0.2.0/arm/arm-none-eabi/include/c++/10.3.1/bits/alloc_traits.h ****        *  @brief  Destroy an object of type @a _Tp
 364:/Library/DaisyToolchain/0.2.0/arm/arm-none-eabi/include/c++/10.3.1/bits/alloc_traits.h ****        *  @param  __a  An allocator.
ARM GAS  /var/folders/s6/2bsynnl15rj0bwtb9pgx4dc00000gn/T//cc76hY55.s 			page 85


 365:/Library/DaisyToolchain/0.2.0/arm/arm-none-eabi/include/c++/10.3.1/bits/alloc_traits.h ****        *  @param  __p  Pointer to the object to destroy
 366:/Library/DaisyToolchain/0.2.0/arm/arm-none-eabi/include/c++/10.3.1/bits/alloc_traits.h ****        *
 367:/Library/DaisyToolchain/0.2.0/arm/arm-none-eabi/include/c++/10.3.1/bits/alloc_traits.h ****        *  Calls @c __a.destroy(__p) if that expression is well-formed,
 368:/Library/DaisyToolchain/0.2.0/arm/arm-none-eabi/include/c++/10.3.1/bits/alloc_traits.h ****        *  otherwise calls @c __p->~_Tp()
 369:/Library/DaisyToolchain/0.2.0/arm/arm-none-eabi/include/c++/10.3.1/bits/alloc_traits.h ****       */
 370:/Library/DaisyToolchain/0.2.0/arm/arm-none-eabi/include/c++/10.3.1/bits/alloc_traits.h ****       template<typename _Tp>
 371:/Library/DaisyToolchain/0.2.0/arm/arm-none-eabi/include/c++/10.3.1/bits/alloc_traits.h **** 	static _GLIBCXX20_CONSTEXPR void
 372:/Library/DaisyToolchain/0.2.0/arm/arm-none-eabi/include/c++/10.3.1/bits/alloc_traits.h **** 	destroy(_Alloc& __a, _Tp* __p)
 373:/Library/DaisyToolchain/0.2.0/arm/arm-none-eabi/include/c++/10.3.1/bits/alloc_traits.h **** 	noexcept(noexcept(_S_destroy(__a, __p, 0)))
 374:/Library/DaisyToolchain/0.2.0/arm/arm-none-eabi/include/c++/10.3.1/bits/alloc_traits.h **** 	{ _S_destroy(__a, __p, 0); }
 375:/Library/DaisyToolchain/0.2.0/arm/arm-none-eabi/include/c++/10.3.1/bits/alloc_traits.h **** 
 376:/Library/DaisyToolchain/0.2.0/arm/arm-none-eabi/include/c++/10.3.1/bits/alloc_traits.h ****       /**
 377:/Library/DaisyToolchain/0.2.0/arm/arm-none-eabi/include/c++/10.3.1/bits/alloc_traits.h ****        *  @brief  The maximum supported allocation size
 378:/Library/DaisyToolchain/0.2.0/arm/arm-none-eabi/include/c++/10.3.1/bits/alloc_traits.h ****        *  @param  __a  An allocator.
 379:/Library/DaisyToolchain/0.2.0/arm/arm-none-eabi/include/c++/10.3.1/bits/alloc_traits.h ****        *  @return @c __a.max_size() or @c numeric_limits<size_type>::max()
 380:/Library/DaisyToolchain/0.2.0/arm/arm-none-eabi/include/c++/10.3.1/bits/alloc_traits.h ****        *
 381:/Library/DaisyToolchain/0.2.0/arm/arm-none-eabi/include/c++/10.3.1/bits/alloc_traits.h ****        *  Returns @c __a.max_size() if that expression is well-formed,
 382:/Library/DaisyToolchain/0.2.0/arm/arm-none-eabi/include/c++/10.3.1/bits/alloc_traits.h ****        *  otherwise returns @c numeric_limits<size_type>::max()
 383:/Library/DaisyToolchain/0.2.0/arm/arm-none-eabi/include/c++/10.3.1/bits/alloc_traits.h ****       */
 384:/Library/DaisyToolchain/0.2.0/arm/arm-none-eabi/include/c++/10.3.1/bits/alloc_traits.h ****       static _GLIBCXX20_CONSTEXPR size_type
 385:/Library/DaisyToolchain/0.2.0/arm/arm-none-eabi/include/c++/10.3.1/bits/alloc_traits.h ****       max_size(const _Alloc& __a) noexcept
 386:/Library/DaisyToolchain/0.2.0/arm/arm-none-eabi/include/c++/10.3.1/bits/alloc_traits.h ****       { return _S_max_size(__a, 0); }
 387:/Library/DaisyToolchain/0.2.0/arm/arm-none-eabi/include/c++/10.3.1/bits/alloc_traits.h **** 
 388:/Library/DaisyToolchain/0.2.0/arm/arm-none-eabi/include/c++/10.3.1/bits/alloc_traits.h ****       /**
 389:/Library/DaisyToolchain/0.2.0/arm/arm-none-eabi/include/c++/10.3.1/bits/alloc_traits.h ****        *  @brief  Obtain an allocator to use when copying a container.
 390:/Library/DaisyToolchain/0.2.0/arm/arm-none-eabi/include/c++/10.3.1/bits/alloc_traits.h ****        *  @param  __rhs  An allocator.
 391:/Library/DaisyToolchain/0.2.0/arm/arm-none-eabi/include/c++/10.3.1/bits/alloc_traits.h ****        *  @return @c __rhs.select_on_container_copy_construction() or @a __rhs
 392:/Library/DaisyToolchain/0.2.0/arm/arm-none-eabi/include/c++/10.3.1/bits/alloc_traits.h ****        *
 393:/Library/DaisyToolchain/0.2.0/arm/arm-none-eabi/include/c++/10.3.1/bits/alloc_traits.h ****        *  Returns @c __rhs.select_on_container_copy_construction() if that
 394:/Library/DaisyToolchain/0.2.0/arm/arm-none-eabi/include/c++/10.3.1/bits/alloc_traits.h ****        *  expression is well-formed, otherwise returns @a __rhs
 395:/Library/DaisyToolchain/0.2.0/arm/arm-none-eabi/include/c++/10.3.1/bits/alloc_traits.h ****       */
 396:/Library/DaisyToolchain/0.2.0/arm/arm-none-eabi/include/c++/10.3.1/bits/alloc_traits.h ****       static _GLIBCXX20_CONSTEXPR _Alloc
 397:/Library/DaisyToolchain/0.2.0/arm/arm-none-eabi/include/c++/10.3.1/bits/alloc_traits.h ****       select_on_container_copy_construction(const _Alloc& __rhs)
 398:/Library/DaisyToolchain/0.2.0/arm/arm-none-eabi/include/c++/10.3.1/bits/alloc_traits.h ****       { return _S_select(__rhs, 0); }
 399:/Library/DaisyToolchain/0.2.0/arm/arm-none-eabi/include/c++/10.3.1/bits/alloc_traits.h ****     };
 400:/Library/DaisyToolchain/0.2.0/arm/arm-none-eabi/include/c++/10.3.1/bits/alloc_traits.h **** 
 401:/Library/DaisyToolchain/0.2.0/arm/arm-none-eabi/include/c++/10.3.1/bits/alloc_traits.h **** #if __cplusplus > 201703L
 402:/Library/DaisyToolchain/0.2.0/arm/arm-none-eabi/include/c++/10.3.1/bits/alloc_traits.h **** # define __cpp_lib_constexpr_dynamic_alloc 201907L
 403:/Library/DaisyToolchain/0.2.0/arm/arm-none-eabi/include/c++/10.3.1/bits/alloc_traits.h **** #endif
 404:/Library/DaisyToolchain/0.2.0/arm/arm-none-eabi/include/c++/10.3.1/bits/alloc_traits.h **** 
 405:/Library/DaisyToolchain/0.2.0/arm/arm-none-eabi/include/c++/10.3.1/bits/alloc_traits.h ****   /// Partial specialization for std::allocator.
 406:/Library/DaisyToolchain/0.2.0/arm/arm-none-eabi/include/c++/10.3.1/bits/alloc_traits.h ****   template<typename _Tp>
 407:/Library/DaisyToolchain/0.2.0/arm/arm-none-eabi/include/c++/10.3.1/bits/alloc_traits.h ****     struct allocator_traits<allocator<_Tp>>
 408:/Library/DaisyToolchain/0.2.0/arm/arm-none-eabi/include/c++/10.3.1/bits/alloc_traits.h ****     {
 409:/Library/DaisyToolchain/0.2.0/arm/arm-none-eabi/include/c++/10.3.1/bits/alloc_traits.h ****       /// The allocator type
 410:/Library/DaisyToolchain/0.2.0/arm/arm-none-eabi/include/c++/10.3.1/bits/alloc_traits.h ****       using allocator_type = allocator<_Tp>;
 411:/Library/DaisyToolchain/0.2.0/arm/arm-none-eabi/include/c++/10.3.1/bits/alloc_traits.h **** 
 412:/Library/DaisyToolchain/0.2.0/arm/arm-none-eabi/include/c++/10.3.1/bits/alloc_traits.h ****       /// The allocated type
 413:/Library/DaisyToolchain/0.2.0/arm/arm-none-eabi/include/c++/10.3.1/bits/alloc_traits.h ****       using value_type = _Tp;
 414:/Library/DaisyToolchain/0.2.0/arm/arm-none-eabi/include/c++/10.3.1/bits/alloc_traits.h **** 
 415:/Library/DaisyToolchain/0.2.0/arm/arm-none-eabi/include/c++/10.3.1/bits/alloc_traits.h ****       /// The allocator's pointer type.
 416:/Library/DaisyToolchain/0.2.0/arm/arm-none-eabi/include/c++/10.3.1/bits/alloc_traits.h ****       using pointer = _Tp*;
 417:/Library/DaisyToolchain/0.2.0/arm/arm-none-eabi/include/c++/10.3.1/bits/alloc_traits.h **** 
 418:/Library/DaisyToolchain/0.2.0/arm/arm-none-eabi/include/c++/10.3.1/bits/alloc_traits.h ****       /// The allocator's const pointer type.
 419:/Library/DaisyToolchain/0.2.0/arm/arm-none-eabi/include/c++/10.3.1/bits/alloc_traits.h ****       using const_pointer = const _Tp*;
 420:/Library/DaisyToolchain/0.2.0/arm/arm-none-eabi/include/c++/10.3.1/bits/alloc_traits.h **** 
 421:/Library/DaisyToolchain/0.2.0/arm/arm-none-eabi/include/c++/10.3.1/bits/alloc_traits.h ****       /// The allocator's void pointer type.
ARM GAS  /var/folders/s6/2bsynnl15rj0bwtb9pgx4dc00000gn/T//cc76hY55.s 			page 86


 422:/Library/DaisyToolchain/0.2.0/arm/arm-none-eabi/include/c++/10.3.1/bits/alloc_traits.h ****       using void_pointer = void*;
 423:/Library/DaisyToolchain/0.2.0/arm/arm-none-eabi/include/c++/10.3.1/bits/alloc_traits.h **** 
 424:/Library/DaisyToolchain/0.2.0/arm/arm-none-eabi/include/c++/10.3.1/bits/alloc_traits.h ****       /// The allocator's const void pointer type.
 425:/Library/DaisyToolchain/0.2.0/arm/arm-none-eabi/include/c++/10.3.1/bits/alloc_traits.h ****       using const_void_pointer = const void*;
 426:/Library/DaisyToolchain/0.2.0/arm/arm-none-eabi/include/c++/10.3.1/bits/alloc_traits.h **** 
 427:/Library/DaisyToolchain/0.2.0/arm/arm-none-eabi/include/c++/10.3.1/bits/alloc_traits.h ****       /// The allocator's difference type
 428:/Library/DaisyToolchain/0.2.0/arm/arm-none-eabi/include/c++/10.3.1/bits/alloc_traits.h ****       using difference_type = std::ptrdiff_t;
 429:/Library/DaisyToolchain/0.2.0/arm/arm-none-eabi/include/c++/10.3.1/bits/alloc_traits.h **** 
 430:/Library/DaisyToolchain/0.2.0/arm/arm-none-eabi/include/c++/10.3.1/bits/alloc_traits.h ****       /// The allocator's size type
 431:/Library/DaisyToolchain/0.2.0/arm/arm-none-eabi/include/c++/10.3.1/bits/alloc_traits.h ****       using size_type = std::size_t;
 432:/Library/DaisyToolchain/0.2.0/arm/arm-none-eabi/include/c++/10.3.1/bits/alloc_traits.h **** 
 433:/Library/DaisyToolchain/0.2.0/arm/arm-none-eabi/include/c++/10.3.1/bits/alloc_traits.h ****       /// How the allocator is propagated on copy assignment
 434:/Library/DaisyToolchain/0.2.0/arm/arm-none-eabi/include/c++/10.3.1/bits/alloc_traits.h ****       using propagate_on_container_copy_assignment = false_type;
 435:/Library/DaisyToolchain/0.2.0/arm/arm-none-eabi/include/c++/10.3.1/bits/alloc_traits.h **** 
 436:/Library/DaisyToolchain/0.2.0/arm/arm-none-eabi/include/c++/10.3.1/bits/alloc_traits.h ****       /// How the allocator is propagated on move assignment
 437:/Library/DaisyToolchain/0.2.0/arm/arm-none-eabi/include/c++/10.3.1/bits/alloc_traits.h ****       using propagate_on_container_move_assignment = true_type;
 438:/Library/DaisyToolchain/0.2.0/arm/arm-none-eabi/include/c++/10.3.1/bits/alloc_traits.h **** 
 439:/Library/DaisyToolchain/0.2.0/arm/arm-none-eabi/include/c++/10.3.1/bits/alloc_traits.h ****       /// How the allocator is propagated on swap
 440:/Library/DaisyToolchain/0.2.0/arm/arm-none-eabi/include/c++/10.3.1/bits/alloc_traits.h ****       using propagate_on_container_swap = false_type;
 441:/Library/DaisyToolchain/0.2.0/arm/arm-none-eabi/include/c++/10.3.1/bits/alloc_traits.h **** 
 442:/Library/DaisyToolchain/0.2.0/arm/arm-none-eabi/include/c++/10.3.1/bits/alloc_traits.h ****       /// Whether all instances of the allocator type compare equal.
 443:/Library/DaisyToolchain/0.2.0/arm/arm-none-eabi/include/c++/10.3.1/bits/alloc_traits.h ****       using is_always_equal = true_type;
 444:/Library/DaisyToolchain/0.2.0/arm/arm-none-eabi/include/c++/10.3.1/bits/alloc_traits.h **** 
 445:/Library/DaisyToolchain/0.2.0/arm/arm-none-eabi/include/c++/10.3.1/bits/alloc_traits.h ****       template<typename _Up>
 446:/Library/DaisyToolchain/0.2.0/arm/arm-none-eabi/include/c++/10.3.1/bits/alloc_traits.h **** 	using rebind_alloc = allocator<_Up>;
 447:/Library/DaisyToolchain/0.2.0/arm/arm-none-eabi/include/c++/10.3.1/bits/alloc_traits.h **** 
 448:/Library/DaisyToolchain/0.2.0/arm/arm-none-eabi/include/c++/10.3.1/bits/alloc_traits.h ****       template<typename _Up>
 449:/Library/DaisyToolchain/0.2.0/arm/arm-none-eabi/include/c++/10.3.1/bits/alloc_traits.h **** 	using rebind_traits = allocator_traits<allocator<_Up>>;
 450:/Library/DaisyToolchain/0.2.0/arm/arm-none-eabi/include/c++/10.3.1/bits/alloc_traits.h **** 
 451:/Library/DaisyToolchain/0.2.0/arm/arm-none-eabi/include/c++/10.3.1/bits/alloc_traits.h ****       /**
 452:/Library/DaisyToolchain/0.2.0/arm/arm-none-eabi/include/c++/10.3.1/bits/alloc_traits.h ****        *  @brief  Allocate memory.
 453:/Library/DaisyToolchain/0.2.0/arm/arm-none-eabi/include/c++/10.3.1/bits/alloc_traits.h ****        *  @param  __a  An allocator.
 454:/Library/DaisyToolchain/0.2.0/arm/arm-none-eabi/include/c++/10.3.1/bits/alloc_traits.h ****        *  @param  __n  The number of objects to allocate space for.
 455:/Library/DaisyToolchain/0.2.0/arm/arm-none-eabi/include/c++/10.3.1/bits/alloc_traits.h ****        *
 456:/Library/DaisyToolchain/0.2.0/arm/arm-none-eabi/include/c++/10.3.1/bits/alloc_traits.h ****        *  Calls @c a.allocate(n)
 457:/Library/DaisyToolchain/0.2.0/arm/arm-none-eabi/include/c++/10.3.1/bits/alloc_traits.h ****       */
 458:/Library/DaisyToolchain/0.2.0/arm/arm-none-eabi/include/c++/10.3.1/bits/alloc_traits.h ****       _GLIBCXX_NODISCARD static _GLIBCXX20_CONSTEXPR pointer
 459:/Library/DaisyToolchain/0.2.0/arm/arm-none-eabi/include/c++/10.3.1/bits/alloc_traits.h ****       allocate(allocator_type& __a, size_type __n)
 460:/Library/DaisyToolchain/0.2.0/arm/arm-none-eabi/include/c++/10.3.1/bits/alloc_traits.h ****       { return __a.allocate(__n); }
 461:/Library/DaisyToolchain/0.2.0/arm/arm-none-eabi/include/c++/10.3.1/bits/alloc_traits.h **** 
 462:/Library/DaisyToolchain/0.2.0/arm/arm-none-eabi/include/c++/10.3.1/bits/alloc_traits.h ****       /**
 463:/Library/DaisyToolchain/0.2.0/arm/arm-none-eabi/include/c++/10.3.1/bits/alloc_traits.h ****        *  @brief  Allocate memory.
 464:/Library/DaisyToolchain/0.2.0/arm/arm-none-eabi/include/c++/10.3.1/bits/alloc_traits.h ****        *  @param  __a  An allocator.
 465:/Library/DaisyToolchain/0.2.0/arm/arm-none-eabi/include/c++/10.3.1/bits/alloc_traits.h ****        *  @param  __n  The number of objects to allocate space for.
 466:/Library/DaisyToolchain/0.2.0/arm/arm-none-eabi/include/c++/10.3.1/bits/alloc_traits.h ****        *  @param  __hint Aid to locality.
 467:/Library/DaisyToolchain/0.2.0/arm/arm-none-eabi/include/c++/10.3.1/bits/alloc_traits.h ****        *  @return Memory of suitable size and alignment for @a n objects
 468:/Library/DaisyToolchain/0.2.0/arm/arm-none-eabi/include/c++/10.3.1/bits/alloc_traits.h ****        *          of type @c value_type
 469:/Library/DaisyToolchain/0.2.0/arm/arm-none-eabi/include/c++/10.3.1/bits/alloc_traits.h ****        *
 470:/Library/DaisyToolchain/0.2.0/arm/arm-none-eabi/include/c++/10.3.1/bits/alloc_traits.h ****        *  Returns <tt> a.allocate(n, hint) </tt>
 471:/Library/DaisyToolchain/0.2.0/arm/arm-none-eabi/include/c++/10.3.1/bits/alloc_traits.h ****       */
 472:/Library/DaisyToolchain/0.2.0/arm/arm-none-eabi/include/c++/10.3.1/bits/alloc_traits.h ****       _GLIBCXX_NODISCARD static _GLIBCXX20_CONSTEXPR pointer
 473:/Library/DaisyToolchain/0.2.0/arm/arm-none-eabi/include/c++/10.3.1/bits/alloc_traits.h ****       allocate(allocator_type& __a, size_type __n, const_void_pointer __hint)
 474:/Library/DaisyToolchain/0.2.0/arm/arm-none-eabi/include/c++/10.3.1/bits/alloc_traits.h ****       {
 475:/Library/DaisyToolchain/0.2.0/arm/arm-none-eabi/include/c++/10.3.1/bits/alloc_traits.h **** #if __cplusplus <= 201703L
 476:/Library/DaisyToolchain/0.2.0/arm/arm-none-eabi/include/c++/10.3.1/bits/alloc_traits.h **** 	return __a.allocate(__n, __hint);
 477:/Library/DaisyToolchain/0.2.0/arm/arm-none-eabi/include/c++/10.3.1/bits/alloc_traits.h **** #else
 478:/Library/DaisyToolchain/0.2.0/arm/arm-none-eabi/include/c++/10.3.1/bits/alloc_traits.h **** 	return __a.allocate(__n);
ARM GAS  /var/folders/s6/2bsynnl15rj0bwtb9pgx4dc00000gn/T//cc76hY55.s 			page 87


 479:/Library/DaisyToolchain/0.2.0/arm/arm-none-eabi/include/c++/10.3.1/bits/alloc_traits.h **** #endif
 480:/Library/DaisyToolchain/0.2.0/arm/arm-none-eabi/include/c++/10.3.1/bits/alloc_traits.h ****       }
 481:/Library/DaisyToolchain/0.2.0/arm/arm-none-eabi/include/c++/10.3.1/bits/alloc_traits.h **** 
 482:/Library/DaisyToolchain/0.2.0/arm/arm-none-eabi/include/c++/10.3.1/bits/alloc_traits.h ****       /**
 483:/Library/DaisyToolchain/0.2.0/arm/arm-none-eabi/include/c++/10.3.1/bits/alloc_traits.h ****        *  @brief  Deallocate memory.
 484:/Library/DaisyToolchain/0.2.0/arm/arm-none-eabi/include/c++/10.3.1/bits/alloc_traits.h ****        *  @param  __a  An allocator.
 485:/Library/DaisyToolchain/0.2.0/arm/arm-none-eabi/include/c++/10.3.1/bits/alloc_traits.h ****        *  @param  __p  Pointer to the memory to deallocate.
 486:/Library/DaisyToolchain/0.2.0/arm/arm-none-eabi/include/c++/10.3.1/bits/alloc_traits.h ****        *  @param  __n  The number of objects space was allocated for.
 487:/Library/DaisyToolchain/0.2.0/arm/arm-none-eabi/include/c++/10.3.1/bits/alloc_traits.h ****        *
 488:/Library/DaisyToolchain/0.2.0/arm/arm-none-eabi/include/c++/10.3.1/bits/alloc_traits.h ****        *  Calls <tt> a.deallocate(p, n) </tt>
 489:/Library/DaisyToolchain/0.2.0/arm/arm-none-eabi/include/c++/10.3.1/bits/alloc_traits.h ****       */
 490:/Library/DaisyToolchain/0.2.0/arm/arm-none-eabi/include/c++/10.3.1/bits/alloc_traits.h ****       static _GLIBCXX20_CONSTEXPR void
 491:/Library/DaisyToolchain/0.2.0/arm/arm-none-eabi/include/c++/10.3.1/bits/alloc_traits.h ****       deallocate(allocator_type& __a, pointer __p, size_type __n)
 492:/Library/DaisyToolchain/0.2.0/arm/arm-none-eabi/include/c++/10.3.1/bits/alloc_traits.h ****       { __a.deallocate(__p, __n); }
 493:/Library/DaisyToolchain/0.2.0/arm/arm-none-eabi/include/c++/10.3.1/bits/alloc_traits.h **** 
 494:/Library/DaisyToolchain/0.2.0/arm/arm-none-eabi/include/c++/10.3.1/bits/alloc_traits.h ****       /**
 495:/Library/DaisyToolchain/0.2.0/arm/arm-none-eabi/include/c++/10.3.1/bits/alloc_traits.h ****        *  @brief  Construct an object of type `_Up`
 496:/Library/DaisyToolchain/0.2.0/arm/arm-none-eabi/include/c++/10.3.1/bits/alloc_traits.h ****        *  @param  __a  An allocator.
 497:/Library/DaisyToolchain/0.2.0/arm/arm-none-eabi/include/c++/10.3.1/bits/alloc_traits.h ****        *  @param  __p  Pointer to memory of suitable size and alignment for
 498:/Library/DaisyToolchain/0.2.0/arm/arm-none-eabi/include/c++/10.3.1/bits/alloc_traits.h ****        *	       an object of type `_Up`.
 499:/Library/DaisyToolchain/0.2.0/arm/arm-none-eabi/include/c++/10.3.1/bits/alloc_traits.h ****        *  @param  __args Constructor arguments.
 500:/Library/DaisyToolchain/0.2.0/arm/arm-none-eabi/include/c++/10.3.1/bits/alloc_traits.h ****        *
 501:/Library/DaisyToolchain/0.2.0/arm/arm-none-eabi/include/c++/10.3.1/bits/alloc_traits.h ****        *  Calls `__a.construct(__p, std::forward<_Args>(__args)...)`
 502:/Library/DaisyToolchain/0.2.0/arm/arm-none-eabi/include/c++/10.3.1/bits/alloc_traits.h ****        *  in C++11, C++14 and C++17. Changed in C++20 to call
 503:/Library/DaisyToolchain/0.2.0/arm/arm-none-eabi/include/c++/10.3.1/bits/alloc_traits.h ****        *  `std::construct_at(__p, std::forward<_Args>(__args)...)` instead.
 504:/Library/DaisyToolchain/0.2.0/arm/arm-none-eabi/include/c++/10.3.1/bits/alloc_traits.h ****       */
 505:/Library/DaisyToolchain/0.2.0/arm/arm-none-eabi/include/c++/10.3.1/bits/alloc_traits.h ****       template<typename _Up, typename... _Args>
 506:/Library/DaisyToolchain/0.2.0/arm/arm-none-eabi/include/c++/10.3.1/bits/alloc_traits.h **** 	static _GLIBCXX20_CONSTEXPR void
 507:/Library/DaisyToolchain/0.2.0/arm/arm-none-eabi/include/c++/10.3.1/bits/alloc_traits.h **** 	construct(allocator_type& __a __attribute__((__unused__)), _Up* __p,
 1421              		.loc 15 507 2 is_stmt 1 view .LVU361
 1422              	.LBB696:
 1423              	.LBI696:
 1424              		.file 16 "/Library/DaisyToolchain/0.2.0/arm/arm-none-eabi/include/c++/10.3.1/ext/new_allocator.h"
   1:/Library/DaisyToolchain/0.2.0/arm/arm-none-eabi/include/c++/10.3.1/ext/new_allocator.h **** // Allocator that wraps operator new -*- C++ -*-
   2:/Library/DaisyToolchain/0.2.0/arm/arm-none-eabi/include/c++/10.3.1/ext/new_allocator.h **** 
   3:/Library/DaisyToolchain/0.2.0/arm/arm-none-eabi/include/c++/10.3.1/ext/new_allocator.h **** // Copyright (C) 2001-2020 Free Software Foundation, Inc.
   4:/Library/DaisyToolchain/0.2.0/arm/arm-none-eabi/include/c++/10.3.1/ext/new_allocator.h **** //
   5:/Library/DaisyToolchain/0.2.0/arm/arm-none-eabi/include/c++/10.3.1/ext/new_allocator.h **** // This file is part of the GNU ISO C++ Library.  This library is free
   6:/Library/DaisyToolchain/0.2.0/arm/arm-none-eabi/include/c++/10.3.1/ext/new_allocator.h **** // software; you can redistribute it and/or modify it under the
   7:/Library/DaisyToolchain/0.2.0/arm/arm-none-eabi/include/c++/10.3.1/ext/new_allocator.h **** // terms of the GNU General Public License as published by the
   8:/Library/DaisyToolchain/0.2.0/arm/arm-none-eabi/include/c++/10.3.1/ext/new_allocator.h **** // Free Software Foundation; either version 3, or (at your option)
   9:/Library/DaisyToolchain/0.2.0/arm/arm-none-eabi/include/c++/10.3.1/ext/new_allocator.h **** // any later version.
  10:/Library/DaisyToolchain/0.2.0/arm/arm-none-eabi/include/c++/10.3.1/ext/new_allocator.h **** 
  11:/Library/DaisyToolchain/0.2.0/arm/arm-none-eabi/include/c++/10.3.1/ext/new_allocator.h **** // This library is distributed in the hope that it will be useful,
  12:/Library/DaisyToolchain/0.2.0/arm/arm-none-eabi/include/c++/10.3.1/ext/new_allocator.h **** // but WITHOUT ANY WARRANTY; without even the implied warranty of
  13:/Library/DaisyToolchain/0.2.0/arm/arm-none-eabi/include/c++/10.3.1/ext/new_allocator.h **** // MERCHANTABILITY or FITNESS FOR A PARTICULAR PURPOSE.  See the
  14:/Library/DaisyToolchain/0.2.0/arm/arm-none-eabi/include/c++/10.3.1/ext/new_allocator.h **** // GNU General Public License for more details.
  15:/Library/DaisyToolchain/0.2.0/arm/arm-none-eabi/include/c++/10.3.1/ext/new_allocator.h **** 
  16:/Library/DaisyToolchain/0.2.0/arm/arm-none-eabi/include/c++/10.3.1/ext/new_allocator.h **** // Under Section 7 of GPL version 3, you are granted additional
  17:/Library/DaisyToolchain/0.2.0/arm/arm-none-eabi/include/c++/10.3.1/ext/new_allocator.h **** // permissions described in the GCC Runtime Library Exception, version
  18:/Library/DaisyToolchain/0.2.0/arm/arm-none-eabi/include/c++/10.3.1/ext/new_allocator.h **** // 3.1, as published by the Free Software Foundation.
  19:/Library/DaisyToolchain/0.2.0/arm/arm-none-eabi/include/c++/10.3.1/ext/new_allocator.h **** 
  20:/Library/DaisyToolchain/0.2.0/arm/arm-none-eabi/include/c++/10.3.1/ext/new_allocator.h **** // You should have received a copy of the GNU General Public License and
  21:/Library/DaisyToolchain/0.2.0/arm/arm-none-eabi/include/c++/10.3.1/ext/new_allocator.h **** // a copy of the GCC Runtime Library Exception along with this program;
  22:/Library/DaisyToolchain/0.2.0/arm/arm-none-eabi/include/c++/10.3.1/ext/new_allocator.h **** // see the files COPYING3 and COPYING.RUNTIME respectively.  If not, see
  23:/Library/DaisyToolchain/0.2.0/arm/arm-none-eabi/include/c++/10.3.1/ext/new_allocator.h **** // <http://www.gnu.org/licenses/>.
  24:/Library/DaisyToolchain/0.2.0/arm/arm-none-eabi/include/c++/10.3.1/ext/new_allocator.h **** 
ARM GAS  /var/folders/s6/2bsynnl15rj0bwtb9pgx4dc00000gn/T//cc76hY55.s 			page 88


  25:/Library/DaisyToolchain/0.2.0/arm/arm-none-eabi/include/c++/10.3.1/ext/new_allocator.h **** /** @file ext/new_allocator.h
  26:/Library/DaisyToolchain/0.2.0/arm/arm-none-eabi/include/c++/10.3.1/ext/new_allocator.h ****  *  This file is a GNU extension to the Standard C++ Library.
  27:/Library/DaisyToolchain/0.2.0/arm/arm-none-eabi/include/c++/10.3.1/ext/new_allocator.h ****  */
  28:/Library/DaisyToolchain/0.2.0/arm/arm-none-eabi/include/c++/10.3.1/ext/new_allocator.h **** 
  29:/Library/DaisyToolchain/0.2.0/arm/arm-none-eabi/include/c++/10.3.1/ext/new_allocator.h **** #ifndef _NEW_ALLOCATOR_H
  30:/Library/DaisyToolchain/0.2.0/arm/arm-none-eabi/include/c++/10.3.1/ext/new_allocator.h **** #define _NEW_ALLOCATOR_H 1
  31:/Library/DaisyToolchain/0.2.0/arm/arm-none-eabi/include/c++/10.3.1/ext/new_allocator.h **** 
  32:/Library/DaisyToolchain/0.2.0/arm/arm-none-eabi/include/c++/10.3.1/ext/new_allocator.h **** #include <bits/c++config.h>
  33:/Library/DaisyToolchain/0.2.0/arm/arm-none-eabi/include/c++/10.3.1/ext/new_allocator.h **** #include <new>
  34:/Library/DaisyToolchain/0.2.0/arm/arm-none-eabi/include/c++/10.3.1/ext/new_allocator.h **** #include <bits/functexcept.h>
  35:/Library/DaisyToolchain/0.2.0/arm/arm-none-eabi/include/c++/10.3.1/ext/new_allocator.h **** #include <bits/move.h>
  36:/Library/DaisyToolchain/0.2.0/arm/arm-none-eabi/include/c++/10.3.1/ext/new_allocator.h **** #if __cplusplus >= 201103L
  37:/Library/DaisyToolchain/0.2.0/arm/arm-none-eabi/include/c++/10.3.1/ext/new_allocator.h **** #include <type_traits>
  38:/Library/DaisyToolchain/0.2.0/arm/arm-none-eabi/include/c++/10.3.1/ext/new_allocator.h **** #endif
  39:/Library/DaisyToolchain/0.2.0/arm/arm-none-eabi/include/c++/10.3.1/ext/new_allocator.h **** 
  40:/Library/DaisyToolchain/0.2.0/arm/arm-none-eabi/include/c++/10.3.1/ext/new_allocator.h **** namespace __gnu_cxx _GLIBCXX_VISIBILITY(default)
  41:/Library/DaisyToolchain/0.2.0/arm/arm-none-eabi/include/c++/10.3.1/ext/new_allocator.h **** {
  42:/Library/DaisyToolchain/0.2.0/arm/arm-none-eabi/include/c++/10.3.1/ext/new_allocator.h **** _GLIBCXX_BEGIN_NAMESPACE_VERSION
  43:/Library/DaisyToolchain/0.2.0/arm/arm-none-eabi/include/c++/10.3.1/ext/new_allocator.h **** 
  44:/Library/DaisyToolchain/0.2.0/arm/arm-none-eabi/include/c++/10.3.1/ext/new_allocator.h ****   /**
  45:/Library/DaisyToolchain/0.2.0/arm/arm-none-eabi/include/c++/10.3.1/ext/new_allocator.h ****    *  @brief  An allocator that uses global new, as per C++03 [20.4.1].
  46:/Library/DaisyToolchain/0.2.0/arm/arm-none-eabi/include/c++/10.3.1/ext/new_allocator.h ****    *  @ingroup allocators
  47:/Library/DaisyToolchain/0.2.0/arm/arm-none-eabi/include/c++/10.3.1/ext/new_allocator.h ****    *
  48:/Library/DaisyToolchain/0.2.0/arm/arm-none-eabi/include/c++/10.3.1/ext/new_allocator.h ****    *  This is precisely the allocator defined in the C++ Standard.
  49:/Library/DaisyToolchain/0.2.0/arm/arm-none-eabi/include/c++/10.3.1/ext/new_allocator.h ****    *    - all allocation calls operator new
  50:/Library/DaisyToolchain/0.2.0/arm/arm-none-eabi/include/c++/10.3.1/ext/new_allocator.h ****    *    - all deallocation calls operator delete
  51:/Library/DaisyToolchain/0.2.0/arm/arm-none-eabi/include/c++/10.3.1/ext/new_allocator.h ****    *
  52:/Library/DaisyToolchain/0.2.0/arm/arm-none-eabi/include/c++/10.3.1/ext/new_allocator.h ****    *  @tparam  _Tp  Type of allocated object.
  53:/Library/DaisyToolchain/0.2.0/arm/arm-none-eabi/include/c++/10.3.1/ext/new_allocator.h ****    */
  54:/Library/DaisyToolchain/0.2.0/arm/arm-none-eabi/include/c++/10.3.1/ext/new_allocator.h ****   template<typename _Tp>
  55:/Library/DaisyToolchain/0.2.0/arm/arm-none-eabi/include/c++/10.3.1/ext/new_allocator.h ****     class new_allocator
  56:/Library/DaisyToolchain/0.2.0/arm/arm-none-eabi/include/c++/10.3.1/ext/new_allocator.h ****     {
  57:/Library/DaisyToolchain/0.2.0/arm/arm-none-eabi/include/c++/10.3.1/ext/new_allocator.h ****     public:
  58:/Library/DaisyToolchain/0.2.0/arm/arm-none-eabi/include/c++/10.3.1/ext/new_allocator.h ****       typedef _Tp        value_type;
  59:/Library/DaisyToolchain/0.2.0/arm/arm-none-eabi/include/c++/10.3.1/ext/new_allocator.h ****       typedef std::size_t     size_type;
  60:/Library/DaisyToolchain/0.2.0/arm/arm-none-eabi/include/c++/10.3.1/ext/new_allocator.h ****       typedef std::ptrdiff_t  difference_type;
  61:/Library/DaisyToolchain/0.2.0/arm/arm-none-eabi/include/c++/10.3.1/ext/new_allocator.h **** #if __cplusplus <= 201703L
  62:/Library/DaisyToolchain/0.2.0/arm/arm-none-eabi/include/c++/10.3.1/ext/new_allocator.h ****       typedef _Tp*       pointer;
  63:/Library/DaisyToolchain/0.2.0/arm/arm-none-eabi/include/c++/10.3.1/ext/new_allocator.h ****       typedef const _Tp* const_pointer;
  64:/Library/DaisyToolchain/0.2.0/arm/arm-none-eabi/include/c++/10.3.1/ext/new_allocator.h ****       typedef _Tp&       reference;
  65:/Library/DaisyToolchain/0.2.0/arm/arm-none-eabi/include/c++/10.3.1/ext/new_allocator.h ****       typedef const _Tp& const_reference;
  66:/Library/DaisyToolchain/0.2.0/arm/arm-none-eabi/include/c++/10.3.1/ext/new_allocator.h **** 
  67:/Library/DaisyToolchain/0.2.0/arm/arm-none-eabi/include/c++/10.3.1/ext/new_allocator.h ****       template<typename _Tp1>
  68:/Library/DaisyToolchain/0.2.0/arm/arm-none-eabi/include/c++/10.3.1/ext/new_allocator.h **** 	struct rebind
  69:/Library/DaisyToolchain/0.2.0/arm/arm-none-eabi/include/c++/10.3.1/ext/new_allocator.h **** 	{ typedef new_allocator<_Tp1> other; };
  70:/Library/DaisyToolchain/0.2.0/arm/arm-none-eabi/include/c++/10.3.1/ext/new_allocator.h **** #endif
  71:/Library/DaisyToolchain/0.2.0/arm/arm-none-eabi/include/c++/10.3.1/ext/new_allocator.h **** 
  72:/Library/DaisyToolchain/0.2.0/arm/arm-none-eabi/include/c++/10.3.1/ext/new_allocator.h **** #if __cplusplus >= 201103L
  73:/Library/DaisyToolchain/0.2.0/arm/arm-none-eabi/include/c++/10.3.1/ext/new_allocator.h ****       // _GLIBCXX_RESOLVE_LIB_DEFECTS
  74:/Library/DaisyToolchain/0.2.0/arm/arm-none-eabi/include/c++/10.3.1/ext/new_allocator.h ****       // 2103. propagate_on_container_move_assignment
  75:/Library/DaisyToolchain/0.2.0/arm/arm-none-eabi/include/c++/10.3.1/ext/new_allocator.h ****       typedef std::true_type propagate_on_container_move_assignment;
  76:/Library/DaisyToolchain/0.2.0/arm/arm-none-eabi/include/c++/10.3.1/ext/new_allocator.h **** #endif
  77:/Library/DaisyToolchain/0.2.0/arm/arm-none-eabi/include/c++/10.3.1/ext/new_allocator.h **** 
  78:/Library/DaisyToolchain/0.2.0/arm/arm-none-eabi/include/c++/10.3.1/ext/new_allocator.h ****       _GLIBCXX20_CONSTEXPR
  79:/Library/DaisyToolchain/0.2.0/arm/arm-none-eabi/include/c++/10.3.1/ext/new_allocator.h ****       new_allocator() _GLIBCXX_USE_NOEXCEPT { }
  80:/Library/DaisyToolchain/0.2.0/arm/arm-none-eabi/include/c++/10.3.1/ext/new_allocator.h **** 
  81:/Library/DaisyToolchain/0.2.0/arm/arm-none-eabi/include/c++/10.3.1/ext/new_allocator.h ****       _GLIBCXX20_CONSTEXPR
ARM GAS  /var/folders/s6/2bsynnl15rj0bwtb9pgx4dc00000gn/T//cc76hY55.s 			page 89


  82:/Library/DaisyToolchain/0.2.0/arm/arm-none-eabi/include/c++/10.3.1/ext/new_allocator.h ****       new_allocator(const new_allocator&) _GLIBCXX_USE_NOEXCEPT { }
  83:/Library/DaisyToolchain/0.2.0/arm/arm-none-eabi/include/c++/10.3.1/ext/new_allocator.h **** 
  84:/Library/DaisyToolchain/0.2.0/arm/arm-none-eabi/include/c++/10.3.1/ext/new_allocator.h ****       template<typename _Tp1>
  85:/Library/DaisyToolchain/0.2.0/arm/arm-none-eabi/include/c++/10.3.1/ext/new_allocator.h **** 	_GLIBCXX20_CONSTEXPR
  86:/Library/DaisyToolchain/0.2.0/arm/arm-none-eabi/include/c++/10.3.1/ext/new_allocator.h **** 	new_allocator(const new_allocator<_Tp1>&) _GLIBCXX_USE_NOEXCEPT { }
  87:/Library/DaisyToolchain/0.2.0/arm/arm-none-eabi/include/c++/10.3.1/ext/new_allocator.h **** 
  88:/Library/DaisyToolchain/0.2.0/arm/arm-none-eabi/include/c++/10.3.1/ext/new_allocator.h **** #if __cplusplus <= 201703L
  89:/Library/DaisyToolchain/0.2.0/arm/arm-none-eabi/include/c++/10.3.1/ext/new_allocator.h ****       ~new_allocator() _GLIBCXX_USE_NOEXCEPT { }
  90:/Library/DaisyToolchain/0.2.0/arm/arm-none-eabi/include/c++/10.3.1/ext/new_allocator.h **** 
  91:/Library/DaisyToolchain/0.2.0/arm/arm-none-eabi/include/c++/10.3.1/ext/new_allocator.h ****       pointer
  92:/Library/DaisyToolchain/0.2.0/arm/arm-none-eabi/include/c++/10.3.1/ext/new_allocator.h ****       address(reference __x) const _GLIBCXX_NOEXCEPT
  93:/Library/DaisyToolchain/0.2.0/arm/arm-none-eabi/include/c++/10.3.1/ext/new_allocator.h ****       { return std::__addressof(__x); }
  94:/Library/DaisyToolchain/0.2.0/arm/arm-none-eabi/include/c++/10.3.1/ext/new_allocator.h **** 
  95:/Library/DaisyToolchain/0.2.0/arm/arm-none-eabi/include/c++/10.3.1/ext/new_allocator.h ****       const_pointer
  96:/Library/DaisyToolchain/0.2.0/arm/arm-none-eabi/include/c++/10.3.1/ext/new_allocator.h ****       address(const_reference __x) const _GLIBCXX_NOEXCEPT
  97:/Library/DaisyToolchain/0.2.0/arm/arm-none-eabi/include/c++/10.3.1/ext/new_allocator.h ****       { return std::__addressof(__x); }
  98:/Library/DaisyToolchain/0.2.0/arm/arm-none-eabi/include/c++/10.3.1/ext/new_allocator.h **** #endif
  99:/Library/DaisyToolchain/0.2.0/arm/arm-none-eabi/include/c++/10.3.1/ext/new_allocator.h **** 
 100:/Library/DaisyToolchain/0.2.0/arm/arm-none-eabi/include/c++/10.3.1/ext/new_allocator.h ****       // NB: __n is permitted to be 0.  The C++ standard says nothing
 101:/Library/DaisyToolchain/0.2.0/arm/arm-none-eabi/include/c++/10.3.1/ext/new_allocator.h ****       // about what the return value is when __n == 0.
 102:/Library/DaisyToolchain/0.2.0/arm/arm-none-eabi/include/c++/10.3.1/ext/new_allocator.h ****       _GLIBCXX_NODISCARD _Tp*
 103:/Library/DaisyToolchain/0.2.0/arm/arm-none-eabi/include/c++/10.3.1/ext/new_allocator.h ****       allocate(size_type __n, const void* = static_cast<const void*>(0))
 104:/Library/DaisyToolchain/0.2.0/arm/arm-none-eabi/include/c++/10.3.1/ext/new_allocator.h ****       {
 105:/Library/DaisyToolchain/0.2.0/arm/arm-none-eabi/include/c++/10.3.1/ext/new_allocator.h **** #if __cplusplus >= 201103L
 106:/Library/DaisyToolchain/0.2.0/arm/arm-none-eabi/include/c++/10.3.1/ext/new_allocator.h **** 	 // _GLIBCXX_RESOLVE_LIB_DEFECTS
 107:/Library/DaisyToolchain/0.2.0/arm/arm-none-eabi/include/c++/10.3.1/ext/new_allocator.h **** 	 // 3308. std::allocator<void>().allocate(n)
 108:/Library/DaisyToolchain/0.2.0/arm/arm-none-eabi/include/c++/10.3.1/ext/new_allocator.h **** 	 static_assert(sizeof(_Tp) != 0, "cannot allocate incomplete types");
 109:/Library/DaisyToolchain/0.2.0/arm/arm-none-eabi/include/c++/10.3.1/ext/new_allocator.h **** #endif
 110:/Library/DaisyToolchain/0.2.0/arm/arm-none-eabi/include/c++/10.3.1/ext/new_allocator.h **** 
 111:/Library/DaisyToolchain/0.2.0/arm/arm-none-eabi/include/c++/10.3.1/ext/new_allocator.h **** 	if (__n > this->_M_max_size())
 112:/Library/DaisyToolchain/0.2.0/arm/arm-none-eabi/include/c++/10.3.1/ext/new_allocator.h **** 	  std::__throw_bad_alloc();
 113:/Library/DaisyToolchain/0.2.0/arm/arm-none-eabi/include/c++/10.3.1/ext/new_allocator.h **** 
 114:/Library/DaisyToolchain/0.2.0/arm/arm-none-eabi/include/c++/10.3.1/ext/new_allocator.h **** #if __cpp_aligned_new
 115:/Library/DaisyToolchain/0.2.0/arm/arm-none-eabi/include/c++/10.3.1/ext/new_allocator.h **** 	if (alignof(_Tp) > __STDCPP_DEFAULT_NEW_ALIGNMENT__)
 116:/Library/DaisyToolchain/0.2.0/arm/arm-none-eabi/include/c++/10.3.1/ext/new_allocator.h **** 	  {
 117:/Library/DaisyToolchain/0.2.0/arm/arm-none-eabi/include/c++/10.3.1/ext/new_allocator.h **** 	    std::align_val_t __al = std::align_val_t(alignof(_Tp));
 118:/Library/DaisyToolchain/0.2.0/arm/arm-none-eabi/include/c++/10.3.1/ext/new_allocator.h **** 	    return static_cast<_Tp*>(::operator new(__n * sizeof(_Tp), __al));
 119:/Library/DaisyToolchain/0.2.0/arm/arm-none-eabi/include/c++/10.3.1/ext/new_allocator.h **** 	  }
 120:/Library/DaisyToolchain/0.2.0/arm/arm-none-eabi/include/c++/10.3.1/ext/new_allocator.h **** #endif
 121:/Library/DaisyToolchain/0.2.0/arm/arm-none-eabi/include/c++/10.3.1/ext/new_allocator.h **** 	return static_cast<_Tp*>(::operator new(__n * sizeof(_Tp)));
 122:/Library/DaisyToolchain/0.2.0/arm/arm-none-eabi/include/c++/10.3.1/ext/new_allocator.h ****       }
 123:/Library/DaisyToolchain/0.2.0/arm/arm-none-eabi/include/c++/10.3.1/ext/new_allocator.h **** 
 124:/Library/DaisyToolchain/0.2.0/arm/arm-none-eabi/include/c++/10.3.1/ext/new_allocator.h ****       // __p is not permitted to be a null pointer.
 125:/Library/DaisyToolchain/0.2.0/arm/arm-none-eabi/include/c++/10.3.1/ext/new_allocator.h ****       void
 126:/Library/DaisyToolchain/0.2.0/arm/arm-none-eabi/include/c++/10.3.1/ext/new_allocator.h ****       deallocate(_Tp* __p, size_type __t)
 127:/Library/DaisyToolchain/0.2.0/arm/arm-none-eabi/include/c++/10.3.1/ext/new_allocator.h ****       {
 128:/Library/DaisyToolchain/0.2.0/arm/arm-none-eabi/include/c++/10.3.1/ext/new_allocator.h **** #if __cpp_aligned_new
 129:/Library/DaisyToolchain/0.2.0/arm/arm-none-eabi/include/c++/10.3.1/ext/new_allocator.h **** 	if (alignof(_Tp) > __STDCPP_DEFAULT_NEW_ALIGNMENT__)
 130:/Library/DaisyToolchain/0.2.0/arm/arm-none-eabi/include/c++/10.3.1/ext/new_allocator.h **** 	  {
 131:/Library/DaisyToolchain/0.2.0/arm/arm-none-eabi/include/c++/10.3.1/ext/new_allocator.h **** 	    ::operator delete(__p,
 132:/Library/DaisyToolchain/0.2.0/arm/arm-none-eabi/include/c++/10.3.1/ext/new_allocator.h **** # if __cpp_sized_deallocation
 133:/Library/DaisyToolchain/0.2.0/arm/arm-none-eabi/include/c++/10.3.1/ext/new_allocator.h **** 			      __t * sizeof(_Tp),
 134:/Library/DaisyToolchain/0.2.0/arm/arm-none-eabi/include/c++/10.3.1/ext/new_allocator.h **** # endif
 135:/Library/DaisyToolchain/0.2.0/arm/arm-none-eabi/include/c++/10.3.1/ext/new_allocator.h **** 			      std::align_val_t(alignof(_Tp)));
 136:/Library/DaisyToolchain/0.2.0/arm/arm-none-eabi/include/c++/10.3.1/ext/new_allocator.h **** 	    return;
 137:/Library/DaisyToolchain/0.2.0/arm/arm-none-eabi/include/c++/10.3.1/ext/new_allocator.h **** 	  }
 138:/Library/DaisyToolchain/0.2.0/arm/arm-none-eabi/include/c++/10.3.1/ext/new_allocator.h **** #endif
ARM GAS  /var/folders/s6/2bsynnl15rj0bwtb9pgx4dc00000gn/T//cc76hY55.s 			page 90


 139:/Library/DaisyToolchain/0.2.0/arm/arm-none-eabi/include/c++/10.3.1/ext/new_allocator.h **** 	::operator delete(__p
 140:/Library/DaisyToolchain/0.2.0/arm/arm-none-eabi/include/c++/10.3.1/ext/new_allocator.h **** #if __cpp_sized_deallocation
 141:/Library/DaisyToolchain/0.2.0/arm/arm-none-eabi/include/c++/10.3.1/ext/new_allocator.h **** 			  , __t * sizeof(_Tp)
 142:/Library/DaisyToolchain/0.2.0/arm/arm-none-eabi/include/c++/10.3.1/ext/new_allocator.h **** #endif
 143:/Library/DaisyToolchain/0.2.0/arm/arm-none-eabi/include/c++/10.3.1/ext/new_allocator.h **** 			 );
 144:/Library/DaisyToolchain/0.2.0/arm/arm-none-eabi/include/c++/10.3.1/ext/new_allocator.h ****       }
 145:/Library/DaisyToolchain/0.2.0/arm/arm-none-eabi/include/c++/10.3.1/ext/new_allocator.h **** 
 146:/Library/DaisyToolchain/0.2.0/arm/arm-none-eabi/include/c++/10.3.1/ext/new_allocator.h **** #if __cplusplus <= 201703L
 147:/Library/DaisyToolchain/0.2.0/arm/arm-none-eabi/include/c++/10.3.1/ext/new_allocator.h ****       size_type
 148:/Library/DaisyToolchain/0.2.0/arm/arm-none-eabi/include/c++/10.3.1/ext/new_allocator.h ****       max_size() const _GLIBCXX_USE_NOEXCEPT
 149:/Library/DaisyToolchain/0.2.0/arm/arm-none-eabi/include/c++/10.3.1/ext/new_allocator.h ****       { return _M_max_size(); }
 150:/Library/DaisyToolchain/0.2.0/arm/arm-none-eabi/include/c++/10.3.1/ext/new_allocator.h **** 
 151:/Library/DaisyToolchain/0.2.0/arm/arm-none-eabi/include/c++/10.3.1/ext/new_allocator.h **** #if __cplusplus >= 201103L
 152:/Library/DaisyToolchain/0.2.0/arm/arm-none-eabi/include/c++/10.3.1/ext/new_allocator.h ****       template<typename _Up, typename... _Args>
 153:/Library/DaisyToolchain/0.2.0/arm/arm-none-eabi/include/c++/10.3.1/ext/new_allocator.h **** 	void
 154:/Library/DaisyToolchain/0.2.0/arm/arm-none-eabi/include/c++/10.3.1/ext/new_allocator.h **** 	construct(_Up* __p, _Args&&... __args)
 1425              		.loc 16 154 2 view .LVU362
 1426              	.LBB697:
 155:/Library/DaisyToolchain/0.2.0/arm/arm-none-eabi/include/c++/10.3.1/ext/new_allocator.h **** 	noexcept(std::is_nothrow_constructible<_Up, _Args...>::value)
 156:/Library/DaisyToolchain/0.2.0/arm/arm-none-eabi/include/c++/10.3.1/ext/new_allocator.h **** 	{ ::new((void *)__p) _Up(std::forward<_Args>(__args)...); }
 1427              		.loc 16 156 4 is_stmt 0 view .LVU363
 1428 010c 2278     		ldrb	r2, [r4]	@ zero_extendqisi2
 1429              	.LVL109:
 1430              		.loc 16 156 4 view .LVU364
 1431              	.LBE697:
 1432              	.LBE696:
 1433              	.LBE695:
 1434              	.LBE694:
 1435              	.LBE693:
 1436              	.LBE692:
 1437              	.LBE830:
 1438              		.file 17 "/Library/DaisyToolchain/0.2.0/arm/arm-none-eabi/include/c++/10.3.1/new"
   1:/Library/DaisyToolchain/0.2.0/arm/arm-none-eabi/include/c++/10.3.1/new **** // The -*- C++ -*- dynamic memory management header.
   2:/Library/DaisyToolchain/0.2.0/arm/arm-none-eabi/include/c++/10.3.1/new **** 
   3:/Library/DaisyToolchain/0.2.0/arm/arm-none-eabi/include/c++/10.3.1/new **** // Copyright (C) 1994-2020 Free Software Foundation, Inc.
   4:/Library/DaisyToolchain/0.2.0/arm/arm-none-eabi/include/c++/10.3.1/new **** 
   5:/Library/DaisyToolchain/0.2.0/arm/arm-none-eabi/include/c++/10.3.1/new **** // This file is part of GCC.
   6:/Library/DaisyToolchain/0.2.0/arm/arm-none-eabi/include/c++/10.3.1/new **** //
   7:/Library/DaisyToolchain/0.2.0/arm/arm-none-eabi/include/c++/10.3.1/new **** // GCC is free software; you can redistribute it and/or modify
   8:/Library/DaisyToolchain/0.2.0/arm/arm-none-eabi/include/c++/10.3.1/new **** // it under the terms of the GNU General Public License as published by
   9:/Library/DaisyToolchain/0.2.0/arm/arm-none-eabi/include/c++/10.3.1/new **** // the Free Software Foundation; either version 3, or (at your option)
  10:/Library/DaisyToolchain/0.2.0/arm/arm-none-eabi/include/c++/10.3.1/new **** // any later version.
  11:/Library/DaisyToolchain/0.2.0/arm/arm-none-eabi/include/c++/10.3.1/new **** // 
  12:/Library/DaisyToolchain/0.2.0/arm/arm-none-eabi/include/c++/10.3.1/new **** // GCC is distributed in the hope that it will be useful,
  13:/Library/DaisyToolchain/0.2.0/arm/arm-none-eabi/include/c++/10.3.1/new **** // but WITHOUT ANY WARRANTY; without even the implied warranty of
  14:/Library/DaisyToolchain/0.2.0/arm/arm-none-eabi/include/c++/10.3.1/new **** // MERCHANTABILITY or FITNESS FOR A PARTICULAR PURPOSE.  See the
  15:/Library/DaisyToolchain/0.2.0/arm/arm-none-eabi/include/c++/10.3.1/new **** // GNU General Public License for more details.
  16:/Library/DaisyToolchain/0.2.0/arm/arm-none-eabi/include/c++/10.3.1/new **** // 
  17:/Library/DaisyToolchain/0.2.0/arm/arm-none-eabi/include/c++/10.3.1/new **** // Under Section 7 of GPL version 3, you are granted additional
  18:/Library/DaisyToolchain/0.2.0/arm/arm-none-eabi/include/c++/10.3.1/new **** // permissions described in the GCC Runtime Library Exception, version
  19:/Library/DaisyToolchain/0.2.0/arm/arm-none-eabi/include/c++/10.3.1/new **** // 3.1, as published by the Free Software Foundation.
  20:/Library/DaisyToolchain/0.2.0/arm/arm-none-eabi/include/c++/10.3.1/new **** 
  21:/Library/DaisyToolchain/0.2.0/arm/arm-none-eabi/include/c++/10.3.1/new **** // You should have received a copy of the GNU General Public License and
  22:/Library/DaisyToolchain/0.2.0/arm/arm-none-eabi/include/c++/10.3.1/new **** // a copy of the GCC Runtime Library Exception along with this program;
  23:/Library/DaisyToolchain/0.2.0/arm/arm-none-eabi/include/c++/10.3.1/new **** // see the files COPYING3 and COPYING.RUNTIME respectively.  If not, see
  24:/Library/DaisyToolchain/0.2.0/arm/arm-none-eabi/include/c++/10.3.1/new **** // <http://www.gnu.org/licenses/>.
  25:/Library/DaisyToolchain/0.2.0/arm/arm-none-eabi/include/c++/10.3.1/new **** 
ARM GAS  /var/folders/s6/2bsynnl15rj0bwtb9pgx4dc00000gn/T//cc76hY55.s 			page 91


  26:/Library/DaisyToolchain/0.2.0/arm/arm-none-eabi/include/c++/10.3.1/new **** /** @file new
  27:/Library/DaisyToolchain/0.2.0/arm/arm-none-eabi/include/c++/10.3.1/new ****  *  This is a Standard C++ Library header.
  28:/Library/DaisyToolchain/0.2.0/arm/arm-none-eabi/include/c++/10.3.1/new ****  *
  29:/Library/DaisyToolchain/0.2.0/arm/arm-none-eabi/include/c++/10.3.1/new ****  *  The header @c new defines several functions to manage dynamic memory and
  30:/Library/DaisyToolchain/0.2.0/arm/arm-none-eabi/include/c++/10.3.1/new ****  *  handling memory allocation errors; see
  31:/Library/DaisyToolchain/0.2.0/arm/arm-none-eabi/include/c++/10.3.1/new ****  *  https://gcc.gnu.org/onlinedocs/libstdc++/manual/dynamic_memory.html
  32:/Library/DaisyToolchain/0.2.0/arm/arm-none-eabi/include/c++/10.3.1/new ****  *  for more.
  33:/Library/DaisyToolchain/0.2.0/arm/arm-none-eabi/include/c++/10.3.1/new ****  */
  34:/Library/DaisyToolchain/0.2.0/arm/arm-none-eabi/include/c++/10.3.1/new **** 
  35:/Library/DaisyToolchain/0.2.0/arm/arm-none-eabi/include/c++/10.3.1/new **** #ifndef _NEW
  36:/Library/DaisyToolchain/0.2.0/arm/arm-none-eabi/include/c++/10.3.1/new **** #define _NEW
  37:/Library/DaisyToolchain/0.2.0/arm/arm-none-eabi/include/c++/10.3.1/new **** 
  38:/Library/DaisyToolchain/0.2.0/arm/arm-none-eabi/include/c++/10.3.1/new **** #pragma GCC system_header
  39:/Library/DaisyToolchain/0.2.0/arm/arm-none-eabi/include/c++/10.3.1/new **** 
  40:/Library/DaisyToolchain/0.2.0/arm/arm-none-eabi/include/c++/10.3.1/new **** #include <bits/c++config.h>
  41:/Library/DaisyToolchain/0.2.0/arm/arm-none-eabi/include/c++/10.3.1/new **** #include <exception>
  42:/Library/DaisyToolchain/0.2.0/arm/arm-none-eabi/include/c++/10.3.1/new **** 
  43:/Library/DaisyToolchain/0.2.0/arm/arm-none-eabi/include/c++/10.3.1/new **** #pragma GCC visibility push(default)
  44:/Library/DaisyToolchain/0.2.0/arm/arm-none-eabi/include/c++/10.3.1/new **** 
  45:/Library/DaisyToolchain/0.2.0/arm/arm-none-eabi/include/c++/10.3.1/new **** extern "C++" {
  46:/Library/DaisyToolchain/0.2.0/arm/arm-none-eabi/include/c++/10.3.1/new **** 
  47:/Library/DaisyToolchain/0.2.0/arm/arm-none-eabi/include/c++/10.3.1/new **** namespace std 
  48:/Library/DaisyToolchain/0.2.0/arm/arm-none-eabi/include/c++/10.3.1/new **** {
  49:/Library/DaisyToolchain/0.2.0/arm/arm-none-eabi/include/c++/10.3.1/new ****   /**
  50:/Library/DaisyToolchain/0.2.0/arm/arm-none-eabi/include/c++/10.3.1/new ****    *  @brief  Exception possibly thrown by @c new.
  51:/Library/DaisyToolchain/0.2.0/arm/arm-none-eabi/include/c++/10.3.1/new ****    *  @ingroup exceptions
  52:/Library/DaisyToolchain/0.2.0/arm/arm-none-eabi/include/c++/10.3.1/new ****    *
  53:/Library/DaisyToolchain/0.2.0/arm/arm-none-eabi/include/c++/10.3.1/new ****    *  @c bad_alloc (or classes derived from it) is used to report allocation
  54:/Library/DaisyToolchain/0.2.0/arm/arm-none-eabi/include/c++/10.3.1/new ****    *  errors from the throwing forms of @c new.  */
  55:/Library/DaisyToolchain/0.2.0/arm/arm-none-eabi/include/c++/10.3.1/new ****   class bad_alloc : public exception 
  56:/Library/DaisyToolchain/0.2.0/arm/arm-none-eabi/include/c++/10.3.1/new ****   {
  57:/Library/DaisyToolchain/0.2.0/arm/arm-none-eabi/include/c++/10.3.1/new ****   public:
  58:/Library/DaisyToolchain/0.2.0/arm/arm-none-eabi/include/c++/10.3.1/new ****     bad_alloc() throw() { }
  59:/Library/DaisyToolchain/0.2.0/arm/arm-none-eabi/include/c++/10.3.1/new **** 
  60:/Library/DaisyToolchain/0.2.0/arm/arm-none-eabi/include/c++/10.3.1/new **** #if __cplusplus >= 201103L
  61:/Library/DaisyToolchain/0.2.0/arm/arm-none-eabi/include/c++/10.3.1/new ****     bad_alloc(const bad_alloc&) = default;
  62:/Library/DaisyToolchain/0.2.0/arm/arm-none-eabi/include/c++/10.3.1/new ****     bad_alloc& operator=(const bad_alloc&) = default;
  63:/Library/DaisyToolchain/0.2.0/arm/arm-none-eabi/include/c++/10.3.1/new **** #endif
  64:/Library/DaisyToolchain/0.2.0/arm/arm-none-eabi/include/c++/10.3.1/new **** 
  65:/Library/DaisyToolchain/0.2.0/arm/arm-none-eabi/include/c++/10.3.1/new ****     // This declaration is not useless:
  66:/Library/DaisyToolchain/0.2.0/arm/arm-none-eabi/include/c++/10.3.1/new ****     // http://gcc.gnu.org/onlinedocs/gcc-3.0.2/gcc_6.html#SEC118
  67:/Library/DaisyToolchain/0.2.0/arm/arm-none-eabi/include/c++/10.3.1/new ****     virtual ~bad_alloc() throw();
  68:/Library/DaisyToolchain/0.2.0/arm/arm-none-eabi/include/c++/10.3.1/new **** 
  69:/Library/DaisyToolchain/0.2.0/arm/arm-none-eabi/include/c++/10.3.1/new ****     // See comment in eh_exception.cc.
  70:/Library/DaisyToolchain/0.2.0/arm/arm-none-eabi/include/c++/10.3.1/new ****     virtual const char* what() const throw();
  71:/Library/DaisyToolchain/0.2.0/arm/arm-none-eabi/include/c++/10.3.1/new ****   };
  72:/Library/DaisyToolchain/0.2.0/arm/arm-none-eabi/include/c++/10.3.1/new **** 
  73:/Library/DaisyToolchain/0.2.0/arm/arm-none-eabi/include/c++/10.3.1/new **** #if __cplusplus >= 201103L
  74:/Library/DaisyToolchain/0.2.0/arm/arm-none-eabi/include/c++/10.3.1/new ****   class bad_array_new_length : public bad_alloc
  75:/Library/DaisyToolchain/0.2.0/arm/arm-none-eabi/include/c++/10.3.1/new ****   {
  76:/Library/DaisyToolchain/0.2.0/arm/arm-none-eabi/include/c++/10.3.1/new ****   public:
  77:/Library/DaisyToolchain/0.2.0/arm/arm-none-eabi/include/c++/10.3.1/new ****     bad_array_new_length() throw() { }
  78:/Library/DaisyToolchain/0.2.0/arm/arm-none-eabi/include/c++/10.3.1/new **** 
  79:/Library/DaisyToolchain/0.2.0/arm/arm-none-eabi/include/c++/10.3.1/new ****     // This declaration is not useless:
  80:/Library/DaisyToolchain/0.2.0/arm/arm-none-eabi/include/c++/10.3.1/new ****     // http://gcc.gnu.org/onlinedocs/gcc-3.0.2/gcc_6.html#SEC118
  81:/Library/DaisyToolchain/0.2.0/arm/arm-none-eabi/include/c++/10.3.1/new ****     virtual ~bad_array_new_length() throw();
  82:/Library/DaisyToolchain/0.2.0/arm/arm-none-eabi/include/c++/10.3.1/new **** 
ARM GAS  /var/folders/s6/2bsynnl15rj0bwtb9pgx4dc00000gn/T//cc76hY55.s 			page 92


  83:/Library/DaisyToolchain/0.2.0/arm/arm-none-eabi/include/c++/10.3.1/new ****     // See comment in eh_exception.cc.
  84:/Library/DaisyToolchain/0.2.0/arm/arm-none-eabi/include/c++/10.3.1/new ****     virtual const char* what() const throw();
  85:/Library/DaisyToolchain/0.2.0/arm/arm-none-eabi/include/c++/10.3.1/new ****   };
  86:/Library/DaisyToolchain/0.2.0/arm/arm-none-eabi/include/c++/10.3.1/new **** #endif
  87:/Library/DaisyToolchain/0.2.0/arm/arm-none-eabi/include/c++/10.3.1/new **** 
  88:/Library/DaisyToolchain/0.2.0/arm/arm-none-eabi/include/c++/10.3.1/new **** #if __cpp_aligned_new
  89:/Library/DaisyToolchain/0.2.0/arm/arm-none-eabi/include/c++/10.3.1/new ****   enum class align_val_t: size_t {};
  90:/Library/DaisyToolchain/0.2.0/arm/arm-none-eabi/include/c++/10.3.1/new **** #endif
  91:/Library/DaisyToolchain/0.2.0/arm/arm-none-eabi/include/c++/10.3.1/new **** 
  92:/Library/DaisyToolchain/0.2.0/arm/arm-none-eabi/include/c++/10.3.1/new ****   struct nothrow_t
  93:/Library/DaisyToolchain/0.2.0/arm/arm-none-eabi/include/c++/10.3.1/new ****   {
  94:/Library/DaisyToolchain/0.2.0/arm/arm-none-eabi/include/c++/10.3.1/new **** #if __cplusplus >= 201103L
  95:/Library/DaisyToolchain/0.2.0/arm/arm-none-eabi/include/c++/10.3.1/new ****     explicit nothrow_t() = default;
  96:/Library/DaisyToolchain/0.2.0/arm/arm-none-eabi/include/c++/10.3.1/new **** #endif
  97:/Library/DaisyToolchain/0.2.0/arm/arm-none-eabi/include/c++/10.3.1/new ****   };
  98:/Library/DaisyToolchain/0.2.0/arm/arm-none-eabi/include/c++/10.3.1/new **** 
  99:/Library/DaisyToolchain/0.2.0/arm/arm-none-eabi/include/c++/10.3.1/new ****   extern const nothrow_t nothrow;
 100:/Library/DaisyToolchain/0.2.0/arm/arm-none-eabi/include/c++/10.3.1/new **** 
 101:/Library/DaisyToolchain/0.2.0/arm/arm-none-eabi/include/c++/10.3.1/new ****   /** If you write your own error handler to be called by @c new, it must
 102:/Library/DaisyToolchain/0.2.0/arm/arm-none-eabi/include/c++/10.3.1/new ****    *  be of this type.  */
 103:/Library/DaisyToolchain/0.2.0/arm/arm-none-eabi/include/c++/10.3.1/new ****   typedef void (*new_handler)();
 104:/Library/DaisyToolchain/0.2.0/arm/arm-none-eabi/include/c++/10.3.1/new **** 
 105:/Library/DaisyToolchain/0.2.0/arm/arm-none-eabi/include/c++/10.3.1/new ****   /// Takes a replacement handler as the argument, returns the
 106:/Library/DaisyToolchain/0.2.0/arm/arm-none-eabi/include/c++/10.3.1/new ****   /// previous handler.
 107:/Library/DaisyToolchain/0.2.0/arm/arm-none-eabi/include/c++/10.3.1/new ****   new_handler set_new_handler(new_handler) throw();
 108:/Library/DaisyToolchain/0.2.0/arm/arm-none-eabi/include/c++/10.3.1/new **** 
 109:/Library/DaisyToolchain/0.2.0/arm/arm-none-eabi/include/c++/10.3.1/new **** #if __cplusplus >= 201103L
 110:/Library/DaisyToolchain/0.2.0/arm/arm-none-eabi/include/c++/10.3.1/new ****   /// Return the current new handler.
 111:/Library/DaisyToolchain/0.2.0/arm/arm-none-eabi/include/c++/10.3.1/new ****   new_handler get_new_handler() noexcept;
 112:/Library/DaisyToolchain/0.2.0/arm/arm-none-eabi/include/c++/10.3.1/new **** #endif
 113:/Library/DaisyToolchain/0.2.0/arm/arm-none-eabi/include/c++/10.3.1/new **** } // namespace std
 114:/Library/DaisyToolchain/0.2.0/arm/arm-none-eabi/include/c++/10.3.1/new **** 
 115:/Library/DaisyToolchain/0.2.0/arm/arm-none-eabi/include/c++/10.3.1/new **** //@{
 116:/Library/DaisyToolchain/0.2.0/arm/arm-none-eabi/include/c++/10.3.1/new **** /** These are replaceable signatures:
 117:/Library/DaisyToolchain/0.2.0/arm/arm-none-eabi/include/c++/10.3.1/new ****  *  - normal single new and delete (no arguments, throw @c bad_alloc on error)
 118:/Library/DaisyToolchain/0.2.0/arm/arm-none-eabi/include/c++/10.3.1/new ****  *  - normal array new and delete (same)
 119:/Library/DaisyToolchain/0.2.0/arm/arm-none-eabi/include/c++/10.3.1/new ****  *  - @c nothrow single new and delete (take a @c nothrow argument, return
 120:/Library/DaisyToolchain/0.2.0/arm/arm-none-eabi/include/c++/10.3.1/new ****  *    @c NULL on error)
 121:/Library/DaisyToolchain/0.2.0/arm/arm-none-eabi/include/c++/10.3.1/new ****  *  - @c nothrow array new and delete (same)
 122:/Library/DaisyToolchain/0.2.0/arm/arm-none-eabi/include/c++/10.3.1/new ****  *
 123:/Library/DaisyToolchain/0.2.0/arm/arm-none-eabi/include/c++/10.3.1/new ****  *  Placement new and delete signatures (take a memory address argument,
 124:/Library/DaisyToolchain/0.2.0/arm/arm-none-eabi/include/c++/10.3.1/new ****  *  does nothing) may not be replaced by a user's program.
 125:/Library/DaisyToolchain/0.2.0/arm/arm-none-eabi/include/c++/10.3.1/new **** */
 126:/Library/DaisyToolchain/0.2.0/arm/arm-none-eabi/include/c++/10.3.1/new **** _GLIBCXX_NODISCARD void* operator new(std::size_t) _GLIBCXX_THROW (std::bad_alloc)
 127:/Library/DaisyToolchain/0.2.0/arm/arm-none-eabi/include/c++/10.3.1/new ****   __attribute__((__externally_visible__));
 128:/Library/DaisyToolchain/0.2.0/arm/arm-none-eabi/include/c++/10.3.1/new **** _GLIBCXX_NODISCARD void* operator new[](std::size_t) _GLIBCXX_THROW (std::bad_alloc)
 129:/Library/DaisyToolchain/0.2.0/arm/arm-none-eabi/include/c++/10.3.1/new ****   __attribute__((__externally_visible__));
 130:/Library/DaisyToolchain/0.2.0/arm/arm-none-eabi/include/c++/10.3.1/new **** void operator delete(void*) _GLIBCXX_USE_NOEXCEPT
 131:/Library/DaisyToolchain/0.2.0/arm/arm-none-eabi/include/c++/10.3.1/new ****   __attribute__((__externally_visible__));
 132:/Library/DaisyToolchain/0.2.0/arm/arm-none-eabi/include/c++/10.3.1/new **** void operator delete[](void*) _GLIBCXX_USE_NOEXCEPT
 133:/Library/DaisyToolchain/0.2.0/arm/arm-none-eabi/include/c++/10.3.1/new ****   __attribute__((__externally_visible__));
 134:/Library/DaisyToolchain/0.2.0/arm/arm-none-eabi/include/c++/10.3.1/new **** #if __cpp_sized_deallocation
 135:/Library/DaisyToolchain/0.2.0/arm/arm-none-eabi/include/c++/10.3.1/new **** void operator delete(void*, std::size_t) _GLIBCXX_USE_NOEXCEPT
 136:/Library/DaisyToolchain/0.2.0/arm/arm-none-eabi/include/c++/10.3.1/new ****   __attribute__((__externally_visible__));
 137:/Library/DaisyToolchain/0.2.0/arm/arm-none-eabi/include/c++/10.3.1/new **** void operator delete[](void*, std::size_t) _GLIBCXX_USE_NOEXCEPT
 138:/Library/DaisyToolchain/0.2.0/arm/arm-none-eabi/include/c++/10.3.1/new ****   __attribute__((__externally_visible__));
 139:/Library/DaisyToolchain/0.2.0/arm/arm-none-eabi/include/c++/10.3.1/new **** #endif
ARM GAS  /var/folders/s6/2bsynnl15rj0bwtb9pgx4dc00000gn/T//cc76hY55.s 			page 93


 140:/Library/DaisyToolchain/0.2.0/arm/arm-none-eabi/include/c++/10.3.1/new **** _GLIBCXX_NODISCARD void* operator new(std::size_t, const std::nothrow_t&) _GLIBCXX_USE_NOEXCEPT
 141:/Library/DaisyToolchain/0.2.0/arm/arm-none-eabi/include/c++/10.3.1/new ****   __attribute__((__externally_visible__, __malloc__));
 142:/Library/DaisyToolchain/0.2.0/arm/arm-none-eabi/include/c++/10.3.1/new **** _GLIBCXX_NODISCARD void* operator new[](std::size_t, const std::nothrow_t&) _GLIBCXX_USE_NOEXCEPT
 143:/Library/DaisyToolchain/0.2.0/arm/arm-none-eabi/include/c++/10.3.1/new ****   __attribute__((__externally_visible__, __malloc__));
 144:/Library/DaisyToolchain/0.2.0/arm/arm-none-eabi/include/c++/10.3.1/new **** void operator delete(void*, const std::nothrow_t&) _GLIBCXX_USE_NOEXCEPT
 145:/Library/DaisyToolchain/0.2.0/arm/arm-none-eabi/include/c++/10.3.1/new ****   __attribute__((__externally_visible__));
 146:/Library/DaisyToolchain/0.2.0/arm/arm-none-eabi/include/c++/10.3.1/new **** void operator delete[](void*, const std::nothrow_t&) _GLIBCXX_USE_NOEXCEPT
 147:/Library/DaisyToolchain/0.2.0/arm/arm-none-eabi/include/c++/10.3.1/new ****   __attribute__((__externally_visible__));
 148:/Library/DaisyToolchain/0.2.0/arm/arm-none-eabi/include/c++/10.3.1/new **** #if __cpp_aligned_new
 149:/Library/DaisyToolchain/0.2.0/arm/arm-none-eabi/include/c++/10.3.1/new **** _GLIBCXX_NODISCARD void* operator new(std::size_t, std::align_val_t)
 150:/Library/DaisyToolchain/0.2.0/arm/arm-none-eabi/include/c++/10.3.1/new ****   __attribute__((__externally_visible__));
 151:/Library/DaisyToolchain/0.2.0/arm/arm-none-eabi/include/c++/10.3.1/new **** _GLIBCXX_NODISCARD void* operator new(std::size_t, std::align_val_t, const std::nothrow_t&)
 152:/Library/DaisyToolchain/0.2.0/arm/arm-none-eabi/include/c++/10.3.1/new ****   _GLIBCXX_USE_NOEXCEPT __attribute__((__externally_visible__, __malloc__));
 153:/Library/DaisyToolchain/0.2.0/arm/arm-none-eabi/include/c++/10.3.1/new **** void operator delete(void*, std::align_val_t)
 154:/Library/DaisyToolchain/0.2.0/arm/arm-none-eabi/include/c++/10.3.1/new ****   _GLIBCXX_USE_NOEXCEPT __attribute__((__externally_visible__));
 155:/Library/DaisyToolchain/0.2.0/arm/arm-none-eabi/include/c++/10.3.1/new **** void operator delete(void*, std::align_val_t, const std::nothrow_t&)
 156:/Library/DaisyToolchain/0.2.0/arm/arm-none-eabi/include/c++/10.3.1/new ****   _GLIBCXX_USE_NOEXCEPT __attribute__((__externally_visible__));
 157:/Library/DaisyToolchain/0.2.0/arm/arm-none-eabi/include/c++/10.3.1/new **** _GLIBCXX_NODISCARD void* operator new[](std::size_t, std::align_val_t)
 158:/Library/DaisyToolchain/0.2.0/arm/arm-none-eabi/include/c++/10.3.1/new ****   __attribute__((__externally_visible__));
 159:/Library/DaisyToolchain/0.2.0/arm/arm-none-eabi/include/c++/10.3.1/new **** _GLIBCXX_NODISCARD void* operator new[](std::size_t, std::align_val_t, const std::nothrow_t&)
 160:/Library/DaisyToolchain/0.2.0/arm/arm-none-eabi/include/c++/10.3.1/new ****   _GLIBCXX_USE_NOEXCEPT __attribute__((__externally_visible__, __malloc__));
 161:/Library/DaisyToolchain/0.2.0/arm/arm-none-eabi/include/c++/10.3.1/new **** void operator delete[](void*, std::align_val_t)
 162:/Library/DaisyToolchain/0.2.0/arm/arm-none-eabi/include/c++/10.3.1/new ****   _GLIBCXX_USE_NOEXCEPT __attribute__((__externally_visible__));
 163:/Library/DaisyToolchain/0.2.0/arm/arm-none-eabi/include/c++/10.3.1/new **** void operator delete[](void*, std::align_val_t, const std::nothrow_t&)
 164:/Library/DaisyToolchain/0.2.0/arm/arm-none-eabi/include/c++/10.3.1/new ****   _GLIBCXX_USE_NOEXCEPT __attribute__((__externally_visible__));
 165:/Library/DaisyToolchain/0.2.0/arm/arm-none-eabi/include/c++/10.3.1/new **** #if __cpp_sized_deallocation
 166:/Library/DaisyToolchain/0.2.0/arm/arm-none-eabi/include/c++/10.3.1/new **** void operator delete(void*, std::size_t, std::align_val_t)
 167:/Library/DaisyToolchain/0.2.0/arm/arm-none-eabi/include/c++/10.3.1/new ****   _GLIBCXX_USE_NOEXCEPT __attribute__((__externally_visible__));
 168:/Library/DaisyToolchain/0.2.0/arm/arm-none-eabi/include/c++/10.3.1/new **** void operator delete[](void*, std::size_t, std::align_val_t)
 169:/Library/DaisyToolchain/0.2.0/arm/arm-none-eabi/include/c++/10.3.1/new ****   _GLIBCXX_USE_NOEXCEPT __attribute__((__externally_visible__));
 170:/Library/DaisyToolchain/0.2.0/arm/arm-none-eabi/include/c++/10.3.1/new **** #endif // __cpp_sized_deallocation
 171:/Library/DaisyToolchain/0.2.0/arm/arm-none-eabi/include/c++/10.3.1/new **** #endif // __cpp_aligned_new
 172:/Library/DaisyToolchain/0.2.0/arm/arm-none-eabi/include/c++/10.3.1/new **** 
 173:/Library/DaisyToolchain/0.2.0/arm/arm-none-eabi/include/c++/10.3.1/new **** // Default placement versions of operator new.
 174:/Library/DaisyToolchain/0.2.0/arm/arm-none-eabi/include/c++/10.3.1/new **** _GLIBCXX_NODISCARD inline void* operator new(std::size_t, void* __p) _GLIBCXX_USE_NOEXCEPT
 175:/Library/DaisyToolchain/0.2.0/arm/arm-none-eabi/include/c++/10.3.1/new **** { return __p; }
 1439              		.loc 17 175 3 is_stmt 1 view .LVU365
 1440              	.LBB831:
 1441              	.LBB811:
 1442              	.LBB807:
 1443              	.LBB803:
 1444              	.LBB700:
 1445              	.LBB699:
 1446              	.LBB698:
 1447              		.loc 16 156 4 is_stmt 0 view .LVU366
 1448 010e 03F8012B 		strb	r2, [r3], #1
 1449              	.LVL110:
 1450              		.loc 16 156 4 view .LVU367
 1451              	.LBE698:
 1452              	.LBE699:
 1453              	.LBE700:
1497:/Library/DaisyToolchain/0.2.0/arm/arm-none-eabi/include/c++/10.3.1/bits/stl_deque.h **** 	  {
1498:/Library/DaisyToolchain/0.2.0/arm/arm-none-eabi/include/c++/10.3.1/bits/stl_deque.h **** 	    _Alloc_traits::construct(this->_M_impl,
1499:/Library/DaisyToolchain/0.2.0/arm/arm-none-eabi/include/c++/10.3.1/bits/stl_deque.h **** 				     this->_M_impl._M_finish._M_cur, __x);
1500:/Library/DaisyToolchain/0.2.0/arm/arm-none-eabi/include/c++/10.3.1/bits/stl_deque.h **** 	    ++this->_M_impl._M_finish._M_cur;
 1454              		.loc 14 1500 6 view .LVU368
 1455 0112 C8F81830 		str	r3, [r8, #24]
ARM GAS  /var/folders/s6/2bsynnl15rj0bwtb9pgx4dc00000gn/T//cc76hY55.s 			page 94


 1456              	.L97:
 1457              	.LVL111:
 1458              		.loc 14 1500 6 view .LVU369
 1459              	.LBE803:
 1460              	.LBE807:
 1461              	.LBE811:
 207:TestTFT.cpp   ****             DisplayMenu();
 1462              		.loc 8 207 13 is_stmt 1 view .LVU370
 207:TestTFT.cpp   ****             DisplayMenu();
 1463              		.loc 8 207 26 is_stmt 0 view .LVU371
 1464 0116 0523     		movs	r3, #5
 1465 0118 2370     		strb	r3, [r4]
 208:TestTFT.cpp   ****         }
 1466              		.loc 8 208 13 is_stmt 1 view .LVU372
 208:TestTFT.cpp   ****         }
 1467              		.loc 8 208 24 is_stmt 0 view .LVU373
 1468 011a FFF7FEFF 		bl	_Z11DisplayMenuv
 1469              	.LVL112:
 1470 011e 90E7     		b	.L95
 1471              	.L133:
 171:TestTFT.cpp   ****                 hw.PrintLine("C Major triggered");
 1472              		.loc 8 171 17 is_stmt 1 view .LVU374
 171:TestTFT.cpp   ****                 hw.PrintLine("C Major triggered");
 1473              		.loc 8 171 32 is_stmt 0 view .LVU375
 1474 0120 0021     		movs	r1, #0
 1475 0122 7948     		ldr	r0, .L143+60
 1476 0124 FFF7FEFF 		bl	_ZN7Spirits7TriggerEi
 1477              	.LVL113:
 172:TestTFT.cpp   ****             } else if (buttonDm.Pressed()) {
 1478              		.loc 8 172 17 is_stmt 1 view .LVU376
 1479              	.LBB812:
 1480              	.LBI812:
 126:./libDaisy/src/daisy_seed.h ****     {
 1481              		.loc 3 126 17 view .LVU377
 1482              	.LBB813:
 128:./libDaisy/src/daisy_seed.h ****     }
 1483              		.loc 3 128 23 is_stmt 0 view .LVU378
 1484 0128 7948     		ldr	r0, .L143+68
 1485 012a FFF7FEFF 		bl	_ZN5daisy6LoggerILNS_17LoggerDestinationE1EE9PrintLineEPKcz
 1486              	.LVL114:
 1487              		.loc 3 129 5 view .LVU379
 1488 012e B2E7     		b	.L83
 1489              	.LVL115:
 1490              	.L134:
 1491              		.loc 3 129 5 view .LVU380
 1492              	.LBE813:
 1493              	.LBE812:
 174:TestTFT.cpp   ****                 hw.PrintLine("D Minor triggered");
 1494              		.loc 8 174 17 is_stmt 1 view .LVU381
 174:TestTFT.cpp   ****                 hw.PrintLine("D Minor triggered");
 1495              		.loc 8 174 32 is_stmt 0 view .LVU382
 1496 0130 7548     		ldr	r0, .L143+60
 1497 0132 FFF7FEFF 		bl	_ZN7Spirits7TriggerEi
 1498              	.LVL116:
 175:TestTFT.cpp   ****             } else if (buttonEm.Pressed()) {
 1499              		.loc 8 175 17 is_stmt 1 view .LVU383
 1500              	.LBB814:
ARM GAS  /var/folders/s6/2bsynnl15rj0bwtb9pgx4dc00000gn/T//cc76hY55.s 			page 95


 1501              	.LBI814:
 126:./libDaisy/src/daisy_seed.h ****     {
 1502              		.loc 3 126 17 view .LVU384
 1503              	.LBB815:
 128:./libDaisy/src/daisy_seed.h ****     }
 1504              		.loc 3 128 23 is_stmt 0 view .LVU385
 1505 0136 7748     		ldr	r0, .L143+72
 1506 0138 FFF7FEFF 		bl	_ZN5daisy6LoggerILNS_17LoggerDestinationE1EE9PrintLineEPKcz
 1507              	.LVL117:
 1508              		.loc 3 129 5 view .LVU386
 1509 013c ABE7     		b	.L83
 1510              	.LVL118:
 1511              	.L135:
 1512              		.loc 3 129 5 view .LVU387
 1513              	.LBE815:
 1514              	.LBE814:
 177:TestTFT.cpp   ****                 hw.PrintLine("E Minor triggered");
 1515              		.loc 8 177 17 is_stmt 1 view .LVU388
 177:TestTFT.cpp   ****                 hw.PrintLine("E Minor triggered");
 1516              		.loc 8 177 32 is_stmt 0 view .LVU389
 1517 013e 0221     		movs	r1, #2
 1518 0140 7148     		ldr	r0, .L143+60
 1519 0142 FFF7FEFF 		bl	_ZN7Spirits7TriggerEi
 1520              	.LVL119:
 178:TestTFT.cpp   ****             } else if (buttonF.Pressed()) {
 1521              		.loc 8 178 17 is_stmt 1 view .LVU390
 1522              	.LBB816:
 1523              	.LBI816:
 126:./libDaisy/src/daisy_seed.h ****     {
 1524              		.loc 3 126 17 view .LVU391
 1525              	.LBB817:
 128:./libDaisy/src/daisy_seed.h ****     }
 1526              		.loc 3 128 23 is_stmt 0 view .LVU392
 1527 0146 7448     		ldr	r0, .L143+76
 1528 0148 FFF7FEFF 		bl	_ZN5daisy6LoggerILNS_17LoggerDestinationE1EE9PrintLineEPKcz
 1529              	.LVL120:
 1530              		.loc 3 129 5 view .LVU393
 1531 014c A3E7     		b	.L83
 1532              	.LVL121:
 1533              	.L136:
 1534              		.loc 3 129 5 view .LVU394
 1535              	.LBE817:
 1536              	.LBE816:
 180:TestTFT.cpp   ****                 hw.PrintLine("F Major triggered");
 1537              		.loc 8 180 17 is_stmt 1 view .LVU395
 180:TestTFT.cpp   ****                 hw.PrintLine("F Major triggered");
 1538              		.loc 8 180 32 is_stmt 0 view .LVU396
 1539 014e 0321     		movs	r1, #3
 1540 0150 6D48     		ldr	r0, .L143+60
 1541 0152 FFF7FEFF 		bl	_ZN7Spirits7TriggerEi
 1542              	.LVL122:
 181:TestTFT.cpp   ****             } else if (buttonG.Pressed()) {
 1543              		.loc 8 181 17 is_stmt 1 view .LVU397
 1544              	.LBB818:
 1545              	.LBI818:
 126:./libDaisy/src/daisy_seed.h ****     {
 1546              		.loc 3 126 17 view .LVU398
ARM GAS  /var/folders/s6/2bsynnl15rj0bwtb9pgx4dc00000gn/T//cc76hY55.s 			page 96


 1547              	.LBB819:
 128:./libDaisy/src/daisy_seed.h ****     }
 1548              		.loc 3 128 23 is_stmt 0 view .LVU399
 1549 0156 7148     		ldr	r0, .L143+80
 1550 0158 FFF7FEFF 		bl	_ZN5daisy6LoggerILNS_17LoggerDestinationE1EE9PrintLineEPKcz
 1551              	.LVL123:
 1552              		.loc 3 129 5 view .LVU400
 1553 015c 9BE7     		b	.L83
 1554              	.LVL124:
 1555              	.L129:
 1556              		.loc 3 129 5 view .LVU401
 1557              	.LBE819:
 1558              	.LBE818:
 1559              	.LBB820:
 1560              	.LBB673:
 1561              	.LBB672:
  70:./libDaisy/src/hid/switch.h **** 
 1562              		.loc 2 70 56 view .LVU402
 1563 015e A87C     		ldrb	r0, [r5, #18]	@ zero_extendqisi2
 1564 0160 A2E7     		b	.L93
 1565              	.LVL125:
 1566              	.L96:
  70:./libDaisy/src/hid/switch.h **** 
 1567              		.loc 2 70 56 view .LVU403
 1568              	.LBE672:
 1569              	.LBE673:
 1570              	.LBE820:
 1571              	.LBB821:
 1572              	.LBB808:
 1573              	.LBB804:
 1574              	.LBB701:
 1575              	.LBI701:
 1576              		.file 18 "/Library/DaisyToolchain/0.2.0/arm/arm-none-eabi/include/c++/10.3.1/bits/deque.tcc"
   1:/Library/DaisyToolchain/0.2.0/arm/arm-none-eabi/include/c++/10.3.1/bits/deque.tcc **** // Deque implementation (out of line) -*- C++ -*-
   2:/Library/DaisyToolchain/0.2.0/arm/arm-none-eabi/include/c++/10.3.1/bits/deque.tcc **** 
   3:/Library/DaisyToolchain/0.2.0/arm/arm-none-eabi/include/c++/10.3.1/bits/deque.tcc **** // Copyright (C) 2001-2020 Free Software Foundation, Inc.
   4:/Library/DaisyToolchain/0.2.0/arm/arm-none-eabi/include/c++/10.3.1/bits/deque.tcc **** //
   5:/Library/DaisyToolchain/0.2.0/arm/arm-none-eabi/include/c++/10.3.1/bits/deque.tcc **** // This file is part of the GNU ISO C++ Library.  This library is free
   6:/Library/DaisyToolchain/0.2.0/arm/arm-none-eabi/include/c++/10.3.1/bits/deque.tcc **** // software; you can redistribute it and/or modify it under the
   7:/Library/DaisyToolchain/0.2.0/arm/arm-none-eabi/include/c++/10.3.1/bits/deque.tcc **** // terms of the GNU General Public License as published by the
   8:/Library/DaisyToolchain/0.2.0/arm/arm-none-eabi/include/c++/10.3.1/bits/deque.tcc **** // Free Software Foundation; either version 3, or (at your option)
   9:/Library/DaisyToolchain/0.2.0/arm/arm-none-eabi/include/c++/10.3.1/bits/deque.tcc **** // any later version.
  10:/Library/DaisyToolchain/0.2.0/arm/arm-none-eabi/include/c++/10.3.1/bits/deque.tcc **** 
  11:/Library/DaisyToolchain/0.2.0/arm/arm-none-eabi/include/c++/10.3.1/bits/deque.tcc **** // This library is distributed in the hope that it will be useful,
  12:/Library/DaisyToolchain/0.2.0/arm/arm-none-eabi/include/c++/10.3.1/bits/deque.tcc **** // but WITHOUT ANY WARRANTY; without even the implied warranty of
  13:/Library/DaisyToolchain/0.2.0/arm/arm-none-eabi/include/c++/10.3.1/bits/deque.tcc **** // MERCHANTABILITY or FITNESS FOR A PARTICULAR PURPOSE.  See the
  14:/Library/DaisyToolchain/0.2.0/arm/arm-none-eabi/include/c++/10.3.1/bits/deque.tcc **** // GNU General Public License for more details.
  15:/Library/DaisyToolchain/0.2.0/arm/arm-none-eabi/include/c++/10.3.1/bits/deque.tcc **** 
  16:/Library/DaisyToolchain/0.2.0/arm/arm-none-eabi/include/c++/10.3.1/bits/deque.tcc **** // Under Section 7 of GPL version 3, you are granted additional
  17:/Library/DaisyToolchain/0.2.0/arm/arm-none-eabi/include/c++/10.3.1/bits/deque.tcc **** // permissions described in the GCC Runtime Library Exception, version
  18:/Library/DaisyToolchain/0.2.0/arm/arm-none-eabi/include/c++/10.3.1/bits/deque.tcc **** // 3.1, as published by the Free Software Foundation.
  19:/Library/DaisyToolchain/0.2.0/arm/arm-none-eabi/include/c++/10.3.1/bits/deque.tcc **** 
  20:/Library/DaisyToolchain/0.2.0/arm/arm-none-eabi/include/c++/10.3.1/bits/deque.tcc **** // You should have received a copy of the GNU General Public License and
  21:/Library/DaisyToolchain/0.2.0/arm/arm-none-eabi/include/c++/10.3.1/bits/deque.tcc **** // a copy of the GCC Runtime Library Exception along with this program;
  22:/Library/DaisyToolchain/0.2.0/arm/arm-none-eabi/include/c++/10.3.1/bits/deque.tcc **** // see the files COPYING3 and COPYING.RUNTIME respectively.  If not, see
  23:/Library/DaisyToolchain/0.2.0/arm/arm-none-eabi/include/c++/10.3.1/bits/deque.tcc **** // <http://www.gnu.org/licenses/>.
  24:/Library/DaisyToolchain/0.2.0/arm/arm-none-eabi/include/c++/10.3.1/bits/deque.tcc **** 
ARM GAS  /var/folders/s6/2bsynnl15rj0bwtb9pgx4dc00000gn/T//cc76hY55.s 			page 97


  25:/Library/DaisyToolchain/0.2.0/arm/arm-none-eabi/include/c++/10.3.1/bits/deque.tcc **** /*
  26:/Library/DaisyToolchain/0.2.0/arm/arm-none-eabi/include/c++/10.3.1/bits/deque.tcc ****  *
  27:/Library/DaisyToolchain/0.2.0/arm/arm-none-eabi/include/c++/10.3.1/bits/deque.tcc ****  * Copyright (c) 1994
  28:/Library/DaisyToolchain/0.2.0/arm/arm-none-eabi/include/c++/10.3.1/bits/deque.tcc ****  * Hewlett-Packard Company
  29:/Library/DaisyToolchain/0.2.0/arm/arm-none-eabi/include/c++/10.3.1/bits/deque.tcc ****  *
  30:/Library/DaisyToolchain/0.2.0/arm/arm-none-eabi/include/c++/10.3.1/bits/deque.tcc ****  * Permission to use, copy, modify, distribute and sell this software
  31:/Library/DaisyToolchain/0.2.0/arm/arm-none-eabi/include/c++/10.3.1/bits/deque.tcc ****  * and its documentation for any purpose is hereby granted without fee,
  32:/Library/DaisyToolchain/0.2.0/arm/arm-none-eabi/include/c++/10.3.1/bits/deque.tcc ****  * provided that the above copyright notice appear in all copies and
  33:/Library/DaisyToolchain/0.2.0/arm/arm-none-eabi/include/c++/10.3.1/bits/deque.tcc ****  * that both that copyright notice and this permission notice appear
  34:/Library/DaisyToolchain/0.2.0/arm/arm-none-eabi/include/c++/10.3.1/bits/deque.tcc ****  * in supporting documentation.  Hewlett-Packard Company makes no
  35:/Library/DaisyToolchain/0.2.0/arm/arm-none-eabi/include/c++/10.3.1/bits/deque.tcc ****  * representations about the suitability of this software for any
  36:/Library/DaisyToolchain/0.2.0/arm/arm-none-eabi/include/c++/10.3.1/bits/deque.tcc ****  * purpose.  It is provided "as is" without express or implied warranty.
  37:/Library/DaisyToolchain/0.2.0/arm/arm-none-eabi/include/c++/10.3.1/bits/deque.tcc ****  *
  38:/Library/DaisyToolchain/0.2.0/arm/arm-none-eabi/include/c++/10.3.1/bits/deque.tcc ****  *
  39:/Library/DaisyToolchain/0.2.0/arm/arm-none-eabi/include/c++/10.3.1/bits/deque.tcc ****  * Copyright (c) 1997
  40:/Library/DaisyToolchain/0.2.0/arm/arm-none-eabi/include/c++/10.3.1/bits/deque.tcc ****  * Silicon Graphics Computer Systems, Inc.
  41:/Library/DaisyToolchain/0.2.0/arm/arm-none-eabi/include/c++/10.3.1/bits/deque.tcc ****  *
  42:/Library/DaisyToolchain/0.2.0/arm/arm-none-eabi/include/c++/10.3.1/bits/deque.tcc ****  * Permission to use, copy, modify, distribute and sell this software
  43:/Library/DaisyToolchain/0.2.0/arm/arm-none-eabi/include/c++/10.3.1/bits/deque.tcc ****  * and its documentation for any purpose is hereby granted without fee,
  44:/Library/DaisyToolchain/0.2.0/arm/arm-none-eabi/include/c++/10.3.1/bits/deque.tcc ****  * provided that the above copyright notice appear in all copies and
  45:/Library/DaisyToolchain/0.2.0/arm/arm-none-eabi/include/c++/10.3.1/bits/deque.tcc ****  * that both that copyright notice and this permission notice appear
  46:/Library/DaisyToolchain/0.2.0/arm/arm-none-eabi/include/c++/10.3.1/bits/deque.tcc ****  * in supporting documentation.  Silicon Graphics makes no
  47:/Library/DaisyToolchain/0.2.0/arm/arm-none-eabi/include/c++/10.3.1/bits/deque.tcc ****  * representations about the suitability of this software for any
  48:/Library/DaisyToolchain/0.2.0/arm/arm-none-eabi/include/c++/10.3.1/bits/deque.tcc ****  * purpose.  It is provided "as is" without express or implied warranty.
  49:/Library/DaisyToolchain/0.2.0/arm/arm-none-eabi/include/c++/10.3.1/bits/deque.tcc ****  */
  50:/Library/DaisyToolchain/0.2.0/arm/arm-none-eabi/include/c++/10.3.1/bits/deque.tcc **** 
  51:/Library/DaisyToolchain/0.2.0/arm/arm-none-eabi/include/c++/10.3.1/bits/deque.tcc **** /** @file bits/deque.tcc
  52:/Library/DaisyToolchain/0.2.0/arm/arm-none-eabi/include/c++/10.3.1/bits/deque.tcc ****  *  This is an internal header file, included by other library headers.
  53:/Library/DaisyToolchain/0.2.0/arm/arm-none-eabi/include/c++/10.3.1/bits/deque.tcc ****  *  Do not attempt to use it directly. @headername{deque}
  54:/Library/DaisyToolchain/0.2.0/arm/arm-none-eabi/include/c++/10.3.1/bits/deque.tcc ****  */
  55:/Library/DaisyToolchain/0.2.0/arm/arm-none-eabi/include/c++/10.3.1/bits/deque.tcc **** 
  56:/Library/DaisyToolchain/0.2.0/arm/arm-none-eabi/include/c++/10.3.1/bits/deque.tcc **** #ifndef _DEQUE_TCC
  57:/Library/DaisyToolchain/0.2.0/arm/arm-none-eabi/include/c++/10.3.1/bits/deque.tcc **** #define _DEQUE_TCC 1
  58:/Library/DaisyToolchain/0.2.0/arm/arm-none-eabi/include/c++/10.3.1/bits/deque.tcc **** 
  59:/Library/DaisyToolchain/0.2.0/arm/arm-none-eabi/include/c++/10.3.1/bits/deque.tcc **** #include <bits/stl_algobase.h>
  60:/Library/DaisyToolchain/0.2.0/arm/arm-none-eabi/include/c++/10.3.1/bits/deque.tcc **** 
  61:/Library/DaisyToolchain/0.2.0/arm/arm-none-eabi/include/c++/10.3.1/bits/deque.tcc **** namespace std _GLIBCXX_VISIBILITY(default)
  62:/Library/DaisyToolchain/0.2.0/arm/arm-none-eabi/include/c++/10.3.1/bits/deque.tcc **** {
  63:/Library/DaisyToolchain/0.2.0/arm/arm-none-eabi/include/c++/10.3.1/bits/deque.tcc **** _GLIBCXX_BEGIN_NAMESPACE_VERSION
  64:/Library/DaisyToolchain/0.2.0/arm/arm-none-eabi/include/c++/10.3.1/bits/deque.tcc **** _GLIBCXX_BEGIN_NAMESPACE_CONTAINER
  65:/Library/DaisyToolchain/0.2.0/arm/arm-none-eabi/include/c++/10.3.1/bits/deque.tcc **** 
  66:/Library/DaisyToolchain/0.2.0/arm/arm-none-eabi/include/c++/10.3.1/bits/deque.tcc **** #if __cplusplus >= 201103L
  67:/Library/DaisyToolchain/0.2.0/arm/arm-none-eabi/include/c++/10.3.1/bits/deque.tcc ****   template <typename _Tp, typename _Alloc>
  68:/Library/DaisyToolchain/0.2.0/arm/arm-none-eabi/include/c++/10.3.1/bits/deque.tcc ****     void
  69:/Library/DaisyToolchain/0.2.0/arm/arm-none-eabi/include/c++/10.3.1/bits/deque.tcc ****     deque<_Tp, _Alloc>::
  70:/Library/DaisyToolchain/0.2.0/arm/arm-none-eabi/include/c++/10.3.1/bits/deque.tcc ****     _M_default_initialize()
  71:/Library/DaisyToolchain/0.2.0/arm/arm-none-eabi/include/c++/10.3.1/bits/deque.tcc ****     {
  72:/Library/DaisyToolchain/0.2.0/arm/arm-none-eabi/include/c++/10.3.1/bits/deque.tcc ****       _Map_pointer __cur;
  73:/Library/DaisyToolchain/0.2.0/arm/arm-none-eabi/include/c++/10.3.1/bits/deque.tcc ****       __try
  74:/Library/DaisyToolchain/0.2.0/arm/arm-none-eabi/include/c++/10.3.1/bits/deque.tcc **** 	{
  75:/Library/DaisyToolchain/0.2.0/arm/arm-none-eabi/include/c++/10.3.1/bits/deque.tcc **** 	  for (__cur = this->_M_impl._M_start._M_node;
  76:/Library/DaisyToolchain/0.2.0/arm/arm-none-eabi/include/c++/10.3.1/bits/deque.tcc **** 	       __cur < this->_M_impl._M_finish._M_node;
  77:/Library/DaisyToolchain/0.2.0/arm/arm-none-eabi/include/c++/10.3.1/bits/deque.tcc **** 	       ++__cur)
  78:/Library/DaisyToolchain/0.2.0/arm/arm-none-eabi/include/c++/10.3.1/bits/deque.tcc **** 	    std::__uninitialized_default_a(*__cur, *__cur + _S_buffer_size(),
  79:/Library/DaisyToolchain/0.2.0/arm/arm-none-eabi/include/c++/10.3.1/bits/deque.tcc **** 					   _M_get_Tp_allocator());
  80:/Library/DaisyToolchain/0.2.0/arm/arm-none-eabi/include/c++/10.3.1/bits/deque.tcc **** 	  std::__uninitialized_default_a(this->_M_impl._M_finish._M_first,
  81:/Library/DaisyToolchain/0.2.0/arm/arm-none-eabi/include/c++/10.3.1/bits/deque.tcc **** 					 this->_M_impl._M_finish._M_cur,
ARM GAS  /var/folders/s6/2bsynnl15rj0bwtb9pgx4dc00000gn/T//cc76hY55.s 			page 98


  82:/Library/DaisyToolchain/0.2.0/arm/arm-none-eabi/include/c++/10.3.1/bits/deque.tcc **** 					 _M_get_Tp_allocator());
  83:/Library/DaisyToolchain/0.2.0/arm/arm-none-eabi/include/c++/10.3.1/bits/deque.tcc **** 	}
  84:/Library/DaisyToolchain/0.2.0/arm/arm-none-eabi/include/c++/10.3.1/bits/deque.tcc ****       __catch(...)
  85:/Library/DaisyToolchain/0.2.0/arm/arm-none-eabi/include/c++/10.3.1/bits/deque.tcc **** 	{
  86:/Library/DaisyToolchain/0.2.0/arm/arm-none-eabi/include/c++/10.3.1/bits/deque.tcc **** 	  std::_Destroy(this->_M_impl._M_start, iterator(*__cur, __cur),
  87:/Library/DaisyToolchain/0.2.0/arm/arm-none-eabi/include/c++/10.3.1/bits/deque.tcc **** 			_M_get_Tp_allocator());
  88:/Library/DaisyToolchain/0.2.0/arm/arm-none-eabi/include/c++/10.3.1/bits/deque.tcc **** 	  __throw_exception_again;
  89:/Library/DaisyToolchain/0.2.0/arm/arm-none-eabi/include/c++/10.3.1/bits/deque.tcc **** 	}
  90:/Library/DaisyToolchain/0.2.0/arm/arm-none-eabi/include/c++/10.3.1/bits/deque.tcc ****     }
  91:/Library/DaisyToolchain/0.2.0/arm/arm-none-eabi/include/c++/10.3.1/bits/deque.tcc **** #endif
  92:/Library/DaisyToolchain/0.2.0/arm/arm-none-eabi/include/c++/10.3.1/bits/deque.tcc **** 
  93:/Library/DaisyToolchain/0.2.0/arm/arm-none-eabi/include/c++/10.3.1/bits/deque.tcc ****   template <typename _Tp, typename _Alloc>
  94:/Library/DaisyToolchain/0.2.0/arm/arm-none-eabi/include/c++/10.3.1/bits/deque.tcc ****     deque<_Tp, _Alloc>&
  95:/Library/DaisyToolchain/0.2.0/arm/arm-none-eabi/include/c++/10.3.1/bits/deque.tcc ****     deque<_Tp, _Alloc>::
  96:/Library/DaisyToolchain/0.2.0/arm/arm-none-eabi/include/c++/10.3.1/bits/deque.tcc ****     operator=(const deque& __x)
  97:/Library/DaisyToolchain/0.2.0/arm/arm-none-eabi/include/c++/10.3.1/bits/deque.tcc ****     {
  98:/Library/DaisyToolchain/0.2.0/arm/arm-none-eabi/include/c++/10.3.1/bits/deque.tcc ****       if (&__x != this)
  99:/Library/DaisyToolchain/0.2.0/arm/arm-none-eabi/include/c++/10.3.1/bits/deque.tcc **** 	{
 100:/Library/DaisyToolchain/0.2.0/arm/arm-none-eabi/include/c++/10.3.1/bits/deque.tcc **** #if __cplusplus >= 201103L
 101:/Library/DaisyToolchain/0.2.0/arm/arm-none-eabi/include/c++/10.3.1/bits/deque.tcc **** 	  if (_Alloc_traits::_S_propagate_on_copy_assign())
 102:/Library/DaisyToolchain/0.2.0/arm/arm-none-eabi/include/c++/10.3.1/bits/deque.tcc **** 	    {
 103:/Library/DaisyToolchain/0.2.0/arm/arm-none-eabi/include/c++/10.3.1/bits/deque.tcc **** 	      if (!_Alloc_traits::_S_always_equal()
 104:/Library/DaisyToolchain/0.2.0/arm/arm-none-eabi/include/c++/10.3.1/bits/deque.tcc **** 		  && _M_get_Tp_allocator() != __x._M_get_Tp_allocator())
 105:/Library/DaisyToolchain/0.2.0/arm/arm-none-eabi/include/c++/10.3.1/bits/deque.tcc **** 		{
 106:/Library/DaisyToolchain/0.2.0/arm/arm-none-eabi/include/c++/10.3.1/bits/deque.tcc **** 		  // Replacement allocator cannot free existing storage,
 107:/Library/DaisyToolchain/0.2.0/arm/arm-none-eabi/include/c++/10.3.1/bits/deque.tcc **** 		  // so deallocate everything and take copy of __x's data.
 108:/Library/DaisyToolchain/0.2.0/arm/arm-none-eabi/include/c++/10.3.1/bits/deque.tcc **** 		  _M_replace_map(__x, __x.get_allocator());
 109:/Library/DaisyToolchain/0.2.0/arm/arm-none-eabi/include/c++/10.3.1/bits/deque.tcc **** 		  std::__alloc_on_copy(_M_get_Tp_allocator(),
 110:/Library/DaisyToolchain/0.2.0/arm/arm-none-eabi/include/c++/10.3.1/bits/deque.tcc **** 				       __x._M_get_Tp_allocator());
 111:/Library/DaisyToolchain/0.2.0/arm/arm-none-eabi/include/c++/10.3.1/bits/deque.tcc **** 		  return *this;
 112:/Library/DaisyToolchain/0.2.0/arm/arm-none-eabi/include/c++/10.3.1/bits/deque.tcc **** 		}
 113:/Library/DaisyToolchain/0.2.0/arm/arm-none-eabi/include/c++/10.3.1/bits/deque.tcc **** 	      std::__alloc_on_copy(_M_get_Tp_allocator(),
 114:/Library/DaisyToolchain/0.2.0/arm/arm-none-eabi/include/c++/10.3.1/bits/deque.tcc **** 				   __x._M_get_Tp_allocator());
 115:/Library/DaisyToolchain/0.2.0/arm/arm-none-eabi/include/c++/10.3.1/bits/deque.tcc **** 	    }
 116:/Library/DaisyToolchain/0.2.0/arm/arm-none-eabi/include/c++/10.3.1/bits/deque.tcc **** #endif
 117:/Library/DaisyToolchain/0.2.0/arm/arm-none-eabi/include/c++/10.3.1/bits/deque.tcc **** 	  const size_type __len = size();
 118:/Library/DaisyToolchain/0.2.0/arm/arm-none-eabi/include/c++/10.3.1/bits/deque.tcc **** 	  if (__len >= __x.size())
 119:/Library/DaisyToolchain/0.2.0/arm/arm-none-eabi/include/c++/10.3.1/bits/deque.tcc **** 	    _M_erase_at_end(std::copy(__x.begin(), __x.end(),
 120:/Library/DaisyToolchain/0.2.0/arm/arm-none-eabi/include/c++/10.3.1/bits/deque.tcc **** 				      this->_M_impl._M_start));
 121:/Library/DaisyToolchain/0.2.0/arm/arm-none-eabi/include/c++/10.3.1/bits/deque.tcc **** 	  else
 122:/Library/DaisyToolchain/0.2.0/arm/arm-none-eabi/include/c++/10.3.1/bits/deque.tcc **** 	    {
 123:/Library/DaisyToolchain/0.2.0/arm/arm-none-eabi/include/c++/10.3.1/bits/deque.tcc **** 	      const_iterator __mid = __x.begin() + difference_type(__len);
 124:/Library/DaisyToolchain/0.2.0/arm/arm-none-eabi/include/c++/10.3.1/bits/deque.tcc **** 	      std::copy(__x.begin(), __mid, this->_M_impl._M_start);
 125:/Library/DaisyToolchain/0.2.0/arm/arm-none-eabi/include/c++/10.3.1/bits/deque.tcc **** 	      _M_range_insert_aux(this->_M_impl._M_finish, __mid, __x.end(),
 126:/Library/DaisyToolchain/0.2.0/arm/arm-none-eabi/include/c++/10.3.1/bits/deque.tcc **** 				  std::random_access_iterator_tag());
 127:/Library/DaisyToolchain/0.2.0/arm/arm-none-eabi/include/c++/10.3.1/bits/deque.tcc **** 	    }
 128:/Library/DaisyToolchain/0.2.0/arm/arm-none-eabi/include/c++/10.3.1/bits/deque.tcc **** 	}
 129:/Library/DaisyToolchain/0.2.0/arm/arm-none-eabi/include/c++/10.3.1/bits/deque.tcc ****       return *this;
 130:/Library/DaisyToolchain/0.2.0/arm/arm-none-eabi/include/c++/10.3.1/bits/deque.tcc ****     }
 131:/Library/DaisyToolchain/0.2.0/arm/arm-none-eabi/include/c++/10.3.1/bits/deque.tcc **** 
 132:/Library/DaisyToolchain/0.2.0/arm/arm-none-eabi/include/c++/10.3.1/bits/deque.tcc **** #if __cplusplus >= 201103L
 133:/Library/DaisyToolchain/0.2.0/arm/arm-none-eabi/include/c++/10.3.1/bits/deque.tcc ****   template<typename _Tp, typename _Alloc>
 134:/Library/DaisyToolchain/0.2.0/arm/arm-none-eabi/include/c++/10.3.1/bits/deque.tcc ****     template<typename... _Args>
 135:/Library/DaisyToolchain/0.2.0/arm/arm-none-eabi/include/c++/10.3.1/bits/deque.tcc **** #if __cplusplus > 201402L
 136:/Library/DaisyToolchain/0.2.0/arm/arm-none-eabi/include/c++/10.3.1/bits/deque.tcc ****       typename deque<_Tp, _Alloc>::reference
 137:/Library/DaisyToolchain/0.2.0/arm/arm-none-eabi/include/c++/10.3.1/bits/deque.tcc **** #else
 138:/Library/DaisyToolchain/0.2.0/arm/arm-none-eabi/include/c++/10.3.1/bits/deque.tcc ****       void
ARM GAS  /var/folders/s6/2bsynnl15rj0bwtb9pgx4dc00000gn/T//cc76hY55.s 			page 99


 139:/Library/DaisyToolchain/0.2.0/arm/arm-none-eabi/include/c++/10.3.1/bits/deque.tcc **** #endif
 140:/Library/DaisyToolchain/0.2.0/arm/arm-none-eabi/include/c++/10.3.1/bits/deque.tcc ****       deque<_Tp, _Alloc>::
 141:/Library/DaisyToolchain/0.2.0/arm/arm-none-eabi/include/c++/10.3.1/bits/deque.tcc ****       emplace_front(_Args&&... __args)
 142:/Library/DaisyToolchain/0.2.0/arm/arm-none-eabi/include/c++/10.3.1/bits/deque.tcc ****       {
 143:/Library/DaisyToolchain/0.2.0/arm/arm-none-eabi/include/c++/10.3.1/bits/deque.tcc **** 	if (this->_M_impl._M_start._M_cur != this->_M_impl._M_start._M_first)
 144:/Library/DaisyToolchain/0.2.0/arm/arm-none-eabi/include/c++/10.3.1/bits/deque.tcc **** 	  {
 145:/Library/DaisyToolchain/0.2.0/arm/arm-none-eabi/include/c++/10.3.1/bits/deque.tcc **** 	    _Alloc_traits::construct(this->_M_impl,
 146:/Library/DaisyToolchain/0.2.0/arm/arm-none-eabi/include/c++/10.3.1/bits/deque.tcc **** 				     this->_M_impl._M_start._M_cur - 1,
 147:/Library/DaisyToolchain/0.2.0/arm/arm-none-eabi/include/c++/10.3.1/bits/deque.tcc **** 				     std::forward<_Args>(__args)...);
 148:/Library/DaisyToolchain/0.2.0/arm/arm-none-eabi/include/c++/10.3.1/bits/deque.tcc **** 	    --this->_M_impl._M_start._M_cur;
 149:/Library/DaisyToolchain/0.2.0/arm/arm-none-eabi/include/c++/10.3.1/bits/deque.tcc **** 	  }
 150:/Library/DaisyToolchain/0.2.0/arm/arm-none-eabi/include/c++/10.3.1/bits/deque.tcc **** 	else
 151:/Library/DaisyToolchain/0.2.0/arm/arm-none-eabi/include/c++/10.3.1/bits/deque.tcc **** 	  _M_push_front_aux(std::forward<_Args>(__args)...);
 152:/Library/DaisyToolchain/0.2.0/arm/arm-none-eabi/include/c++/10.3.1/bits/deque.tcc **** #if __cplusplus > 201402L
 153:/Library/DaisyToolchain/0.2.0/arm/arm-none-eabi/include/c++/10.3.1/bits/deque.tcc **** 	return front();
 154:/Library/DaisyToolchain/0.2.0/arm/arm-none-eabi/include/c++/10.3.1/bits/deque.tcc **** #endif
 155:/Library/DaisyToolchain/0.2.0/arm/arm-none-eabi/include/c++/10.3.1/bits/deque.tcc ****       }
 156:/Library/DaisyToolchain/0.2.0/arm/arm-none-eabi/include/c++/10.3.1/bits/deque.tcc **** 
 157:/Library/DaisyToolchain/0.2.0/arm/arm-none-eabi/include/c++/10.3.1/bits/deque.tcc ****   template<typename _Tp, typename _Alloc>
 158:/Library/DaisyToolchain/0.2.0/arm/arm-none-eabi/include/c++/10.3.1/bits/deque.tcc ****     template<typename... _Args>
 159:/Library/DaisyToolchain/0.2.0/arm/arm-none-eabi/include/c++/10.3.1/bits/deque.tcc **** #if __cplusplus > 201402L
 160:/Library/DaisyToolchain/0.2.0/arm/arm-none-eabi/include/c++/10.3.1/bits/deque.tcc ****       typename deque<_Tp, _Alloc>::reference
 161:/Library/DaisyToolchain/0.2.0/arm/arm-none-eabi/include/c++/10.3.1/bits/deque.tcc **** #else
 162:/Library/DaisyToolchain/0.2.0/arm/arm-none-eabi/include/c++/10.3.1/bits/deque.tcc ****       void
 163:/Library/DaisyToolchain/0.2.0/arm/arm-none-eabi/include/c++/10.3.1/bits/deque.tcc **** #endif
 164:/Library/DaisyToolchain/0.2.0/arm/arm-none-eabi/include/c++/10.3.1/bits/deque.tcc ****       deque<_Tp, _Alloc>::
 165:/Library/DaisyToolchain/0.2.0/arm/arm-none-eabi/include/c++/10.3.1/bits/deque.tcc ****       emplace_back(_Args&&... __args)
 166:/Library/DaisyToolchain/0.2.0/arm/arm-none-eabi/include/c++/10.3.1/bits/deque.tcc ****       {
 167:/Library/DaisyToolchain/0.2.0/arm/arm-none-eabi/include/c++/10.3.1/bits/deque.tcc **** 	if (this->_M_impl._M_finish._M_cur
 168:/Library/DaisyToolchain/0.2.0/arm/arm-none-eabi/include/c++/10.3.1/bits/deque.tcc **** 	    != this->_M_impl._M_finish._M_last - 1)
 169:/Library/DaisyToolchain/0.2.0/arm/arm-none-eabi/include/c++/10.3.1/bits/deque.tcc **** 	  {
 170:/Library/DaisyToolchain/0.2.0/arm/arm-none-eabi/include/c++/10.3.1/bits/deque.tcc **** 	    _Alloc_traits::construct(this->_M_impl,
 171:/Library/DaisyToolchain/0.2.0/arm/arm-none-eabi/include/c++/10.3.1/bits/deque.tcc **** 				     this->_M_impl._M_finish._M_cur,
 172:/Library/DaisyToolchain/0.2.0/arm/arm-none-eabi/include/c++/10.3.1/bits/deque.tcc **** 				     std::forward<_Args>(__args)...);
 173:/Library/DaisyToolchain/0.2.0/arm/arm-none-eabi/include/c++/10.3.1/bits/deque.tcc **** 	    ++this->_M_impl._M_finish._M_cur;
 174:/Library/DaisyToolchain/0.2.0/arm/arm-none-eabi/include/c++/10.3.1/bits/deque.tcc **** 	  }
 175:/Library/DaisyToolchain/0.2.0/arm/arm-none-eabi/include/c++/10.3.1/bits/deque.tcc **** 	else
 176:/Library/DaisyToolchain/0.2.0/arm/arm-none-eabi/include/c++/10.3.1/bits/deque.tcc **** 	  _M_push_back_aux(std::forward<_Args>(__args)...);
 177:/Library/DaisyToolchain/0.2.0/arm/arm-none-eabi/include/c++/10.3.1/bits/deque.tcc **** #if __cplusplus > 201402L
 178:/Library/DaisyToolchain/0.2.0/arm/arm-none-eabi/include/c++/10.3.1/bits/deque.tcc **** 	return back();
 179:/Library/DaisyToolchain/0.2.0/arm/arm-none-eabi/include/c++/10.3.1/bits/deque.tcc **** #endif
 180:/Library/DaisyToolchain/0.2.0/arm/arm-none-eabi/include/c++/10.3.1/bits/deque.tcc ****       }
 181:/Library/DaisyToolchain/0.2.0/arm/arm-none-eabi/include/c++/10.3.1/bits/deque.tcc **** #endif
 182:/Library/DaisyToolchain/0.2.0/arm/arm-none-eabi/include/c++/10.3.1/bits/deque.tcc **** 
 183:/Library/DaisyToolchain/0.2.0/arm/arm-none-eabi/include/c++/10.3.1/bits/deque.tcc **** #if __cplusplus >= 201103L
 184:/Library/DaisyToolchain/0.2.0/arm/arm-none-eabi/include/c++/10.3.1/bits/deque.tcc ****   template<typename _Tp, typename _Alloc>
 185:/Library/DaisyToolchain/0.2.0/arm/arm-none-eabi/include/c++/10.3.1/bits/deque.tcc ****     template<typename... _Args>
 186:/Library/DaisyToolchain/0.2.0/arm/arm-none-eabi/include/c++/10.3.1/bits/deque.tcc ****       typename deque<_Tp, _Alloc>::iterator
 187:/Library/DaisyToolchain/0.2.0/arm/arm-none-eabi/include/c++/10.3.1/bits/deque.tcc ****       deque<_Tp, _Alloc>::
 188:/Library/DaisyToolchain/0.2.0/arm/arm-none-eabi/include/c++/10.3.1/bits/deque.tcc ****       emplace(const_iterator __position, _Args&&... __args)
 189:/Library/DaisyToolchain/0.2.0/arm/arm-none-eabi/include/c++/10.3.1/bits/deque.tcc ****       {
 190:/Library/DaisyToolchain/0.2.0/arm/arm-none-eabi/include/c++/10.3.1/bits/deque.tcc **** 	if (__position._M_cur == this->_M_impl._M_start._M_cur)
 191:/Library/DaisyToolchain/0.2.0/arm/arm-none-eabi/include/c++/10.3.1/bits/deque.tcc **** 	  {
 192:/Library/DaisyToolchain/0.2.0/arm/arm-none-eabi/include/c++/10.3.1/bits/deque.tcc **** 	    emplace_front(std::forward<_Args>(__args)...);
 193:/Library/DaisyToolchain/0.2.0/arm/arm-none-eabi/include/c++/10.3.1/bits/deque.tcc **** 	    return this->_M_impl._M_start;
 194:/Library/DaisyToolchain/0.2.0/arm/arm-none-eabi/include/c++/10.3.1/bits/deque.tcc **** 	  }
 195:/Library/DaisyToolchain/0.2.0/arm/arm-none-eabi/include/c++/10.3.1/bits/deque.tcc **** 	else if (__position._M_cur == this->_M_impl._M_finish._M_cur)
ARM GAS  /var/folders/s6/2bsynnl15rj0bwtb9pgx4dc00000gn/T//cc76hY55.s 			page 100


 196:/Library/DaisyToolchain/0.2.0/arm/arm-none-eabi/include/c++/10.3.1/bits/deque.tcc **** 	  {
 197:/Library/DaisyToolchain/0.2.0/arm/arm-none-eabi/include/c++/10.3.1/bits/deque.tcc **** 	    emplace_back(std::forward<_Args>(__args)...);
 198:/Library/DaisyToolchain/0.2.0/arm/arm-none-eabi/include/c++/10.3.1/bits/deque.tcc **** 	    iterator __tmp = this->_M_impl._M_finish;
 199:/Library/DaisyToolchain/0.2.0/arm/arm-none-eabi/include/c++/10.3.1/bits/deque.tcc **** 	    --__tmp;
 200:/Library/DaisyToolchain/0.2.0/arm/arm-none-eabi/include/c++/10.3.1/bits/deque.tcc **** 	    return __tmp;
 201:/Library/DaisyToolchain/0.2.0/arm/arm-none-eabi/include/c++/10.3.1/bits/deque.tcc **** 	  }
 202:/Library/DaisyToolchain/0.2.0/arm/arm-none-eabi/include/c++/10.3.1/bits/deque.tcc **** 	else
 203:/Library/DaisyToolchain/0.2.0/arm/arm-none-eabi/include/c++/10.3.1/bits/deque.tcc **** 	  return _M_insert_aux(__position._M_const_cast(),
 204:/Library/DaisyToolchain/0.2.0/arm/arm-none-eabi/include/c++/10.3.1/bits/deque.tcc **** 			       std::forward<_Args>(__args)...);
 205:/Library/DaisyToolchain/0.2.0/arm/arm-none-eabi/include/c++/10.3.1/bits/deque.tcc ****       }
 206:/Library/DaisyToolchain/0.2.0/arm/arm-none-eabi/include/c++/10.3.1/bits/deque.tcc **** #endif
 207:/Library/DaisyToolchain/0.2.0/arm/arm-none-eabi/include/c++/10.3.1/bits/deque.tcc **** 
 208:/Library/DaisyToolchain/0.2.0/arm/arm-none-eabi/include/c++/10.3.1/bits/deque.tcc ****   template <typename _Tp, typename _Alloc>
 209:/Library/DaisyToolchain/0.2.0/arm/arm-none-eabi/include/c++/10.3.1/bits/deque.tcc ****     typename deque<_Tp, _Alloc>::iterator
 210:/Library/DaisyToolchain/0.2.0/arm/arm-none-eabi/include/c++/10.3.1/bits/deque.tcc ****     deque<_Tp, _Alloc>::
 211:/Library/DaisyToolchain/0.2.0/arm/arm-none-eabi/include/c++/10.3.1/bits/deque.tcc **** #if __cplusplus >= 201103L
 212:/Library/DaisyToolchain/0.2.0/arm/arm-none-eabi/include/c++/10.3.1/bits/deque.tcc ****     insert(const_iterator __position, const value_type& __x)
 213:/Library/DaisyToolchain/0.2.0/arm/arm-none-eabi/include/c++/10.3.1/bits/deque.tcc **** #else
 214:/Library/DaisyToolchain/0.2.0/arm/arm-none-eabi/include/c++/10.3.1/bits/deque.tcc ****     insert(iterator __position, const value_type& __x)
 215:/Library/DaisyToolchain/0.2.0/arm/arm-none-eabi/include/c++/10.3.1/bits/deque.tcc **** #endif
 216:/Library/DaisyToolchain/0.2.0/arm/arm-none-eabi/include/c++/10.3.1/bits/deque.tcc ****     {
 217:/Library/DaisyToolchain/0.2.0/arm/arm-none-eabi/include/c++/10.3.1/bits/deque.tcc ****       if (__position._M_cur == this->_M_impl._M_start._M_cur)
 218:/Library/DaisyToolchain/0.2.0/arm/arm-none-eabi/include/c++/10.3.1/bits/deque.tcc **** 	{
 219:/Library/DaisyToolchain/0.2.0/arm/arm-none-eabi/include/c++/10.3.1/bits/deque.tcc **** 	  push_front(__x);
 220:/Library/DaisyToolchain/0.2.0/arm/arm-none-eabi/include/c++/10.3.1/bits/deque.tcc **** 	  return this->_M_impl._M_start;
 221:/Library/DaisyToolchain/0.2.0/arm/arm-none-eabi/include/c++/10.3.1/bits/deque.tcc **** 	}
 222:/Library/DaisyToolchain/0.2.0/arm/arm-none-eabi/include/c++/10.3.1/bits/deque.tcc ****       else if (__position._M_cur == this->_M_impl._M_finish._M_cur)
 223:/Library/DaisyToolchain/0.2.0/arm/arm-none-eabi/include/c++/10.3.1/bits/deque.tcc **** 	{
 224:/Library/DaisyToolchain/0.2.0/arm/arm-none-eabi/include/c++/10.3.1/bits/deque.tcc **** 	  push_back(__x);
 225:/Library/DaisyToolchain/0.2.0/arm/arm-none-eabi/include/c++/10.3.1/bits/deque.tcc **** 	  iterator __tmp = this->_M_impl._M_finish;
 226:/Library/DaisyToolchain/0.2.0/arm/arm-none-eabi/include/c++/10.3.1/bits/deque.tcc **** 	  --__tmp;
 227:/Library/DaisyToolchain/0.2.0/arm/arm-none-eabi/include/c++/10.3.1/bits/deque.tcc **** 	  return __tmp;
 228:/Library/DaisyToolchain/0.2.0/arm/arm-none-eabi/include/c++/10.3.1/bits/deque.tcc **** 	}
 229:/Library/DaisyToolchain/0.2.0/arm/arm-none-eabi/include/c++/10.3.1/bits/deque.tcc ****       else
 230:/Library/DaisyToolchain/0.2.0/arm/arm-none-eabi/include/c++/10.3.1/bits/deque.tcc **** 	return _M_insert_aux(__position._M_const_cast(), __x);
 231:/Library/DaisyToolchain/0.2.0/arm/arm-none-eabi/include/c++/10.3.1/bits/deque.tcc ****    }
 232:/Library/DaisyToolchain/0.2.0/arm/arm-none-eabi/include/c++/10.3.1/bits/deque.tcc **** 
 233:/Library/DaisyToolchain/0.2.0/arm/arm-none-eabi/include/c++/10.3.1/bits/deque.tcc ****   template <typename _Tp, typename _Alloc>
 234:/Library/DaisyToolchain/0.2.0/arm/arm-none-eabi/include/c++/10.3.1/bits/deque.tcc ****     typename deque<_Tp, _Alloc>::iterator
 235:/Library/DaisyToolchain/0.2.0/arm/arm-none-eabi/include/c++/10.3.1/bits/deque.tcc ****     deque<_Tp, _Alloc>::
 236:/Library/DaisyToolchain/0.2.0/arm/arm-none-eabi/include/c++/10.3.1/bits/deque.tcc ****     _M_erase(iterator __position)
 237:/Library/DaisyToolchain/0.2.0/arm/arm-none-eabi/include/c++/10.3.1/bits/deque.tcc ****     {
 238:/Library/DaisyToolchain/0.2.0/arm/arm-none-eabi/include/c++/10.3.1/bits/deque.tcc ****       iterator __next = __position;
 239:/Library/DaisyToolchain/0.2.0/arm/arm-none-eabi/include/c++/10.3.1/bits/deque.tcc ****       ++__next;
 240:/Library/DaisyToolchain/0.2.0/arm/arm-none-eabi/include/c++/10.3.1/bits/deque.tcc ****       const difference_type __index = __position - begin();
 241:/Library/DaisyToolchain/0.2.0/arm/arm-none-eabi/include/c++/10.3.1/bits/deque.tcc ****       if (static_cast<size_type>(__index) < (size() >> 1))
 242:/Library/DaisyToolchain/0.2.0/arm/arm-none-eabi/include/c++/10.3.1/bits/deque.tcc **** 	{
 243:/Library/DaisyToolchain/0.2.0/arm/arm-none-eabi/include/c++/10.3.1/bits/deque.tcc **** 	  if (__position != begin())
 244:/Library/DaisyToolchain/0.2.0/arm/arm-none-eabi/include/c++/10.3.1/bits/deque.tcc **** 	    _GLIBCXX_MOVE_BACKWARD3(begin(), __position, __next);
 245:/Library/DaisyToolchain/0.2.0/arm/arm-none-eabi/include/c++/10.3.1/bits/deque.tcc **** 	  pop_front();
 246:/Library/DaisyToolchain/0.2.0/arm/arm-none-eabi/include/c++/10.3.1/bits/deque.tcc **** 	}
 247:/Library/DaisyToolchain/0.2.0/arm/arm-none-eabi/include/c++/10.3.1/bits/deque.tcc ****       else
 248:/Library/DaisyToolchain/0.2.0/arm/arm-none-eabi/include/c++/10.3.1/bits/deque.tcc **** 	{
 249:/Library/DaisyToolchain/0.2.0/arm/arm-none-eabi/include/c++/10.3.1/bits/deque.tcc **** 	  if (__next != end())
 250:/Library/DaisyToolchain/0.2.0/arm/arm-none-eabi/include/c++/10.3.1/bits/deque.tcc **** 	    _GLIBCXX_MOVE3(__next, end(), __position);
 251:/Library/DaisyToolchain/0.2.0/arm/arm-none-eabi/include/c++/10.3.1/bits/deque.tcc **** 	  pop_back();
 252:/Library/DaisyToolchain/0.2.0/arm/arm-none-eabi/include/c++/10.3.1/bits/deque.tcc **** 	}
ARM GAS  /var/folders/s6/2bsynnl15rj0bwtb9pgx4dc00000gn/T//cc76hY55.s 			page 101


 253:/Library/DaisyToolchain/0.2.0/arm/arm-none-eabi/include/c++/10.3.1/bits/deque.tcc ****       return begin() + __index;
 254:/Library/DaisyToolchain/0.2.0/arm/arm-none-eabi/include/c++/10.3.1/bits/deque.tcc ****     }
 255:/Library/DaisyToolchain/0.2.0/arm/arm-none-eabi/include/c++/10.3.1/bits/deque.tcc **** 
 256:/Library/DaisyToolchain/0.2.0/arm/arm-none-eabi/include/c++/10.3.1/bits/deque.tcc ****   template <typename _Tp, typename _Alloc>
 257:/Library/DaisyToolchain/0.2.0/arm/arm-none-eabi/include/c++/10.3.1/bits/deque.tcc ****     typename deque<_Tp, _Alloc>::iterator
 258:/Library/DaisyToolchain/0.2.0/arm/arm-none-eabi/include/c++/10.3.1/bits/deque.tcc ****     deque<_Tp, _Alloc>::
 259:/Library/DaisyToolchain/0.2.0/arm/arm-none-eabi/include/c++/10.3.1/bits/deque.tcc ****     _M_erase(iterator __first, iterator __last)
 260:/Library/DaisyToolchain/0.2.0/arm/arm-none-eabi/include/c++/10.3.1/bits/deque.tcc ****     {
 261:/Library/DaisyToolchain/0.2.0/arm/arm-none-eabi/include/c++/10.3.1/bits/deque.tcc ****       if (__first == __last)
 262:/Library/DaisyToolchain/0.2.0/arm/arm-none-eabi/include/c++/10.3.1/bits/deque.tcc **** 	return __first;
 263:/Library/DaisyToolchain/0.2.0/arm/arm-none-eabi/include/c++/10.3.1/bits/deque.tcc ****       else if (__first == begin() && __last == end())
 264:/Library/DaisyToolchain/0.2.0/arm/arm-none-eabi/include/c++/10.3.1/bits/deque.tcc **** 	{
 265:/Library/DaisyToolchain/0.2.0/arm/arm-none-eabi/include/c++/10.3.1/bits/deque.tcc **** 	  clear();
 266:/Library/DaisyToolchain/0.2.0/arm/arm-none-eabi/include/c++/10.3.1/bits/deque.tcc **** 	  return end();
 267:/Library/DaisyToolchain/0.2.0/arm/arm-none-eabi/include/c++/10.3.1/bits/deque.tcc **** 	}
 268:/Library/DaisyToolchain/0.2.0/arm/arm-none-eabi/include/c++/10.3.1/bits/deque.tcc ****       else
 269:/Library/DaisyToolchain/0.2.0/arm/arm-none-eabi/include/c++/10.3.1/bits/deque.tcc **** 	{
 270:/Library/DaisyToolchain/0.2.0/arm/arm-none-eabi/include/c++/10.3.1/bits/deque.tcc **** 	  const difference_type __n = __last - __first;
 271:/Library/DaisyToolchain/0.2.0/arm/arm-none-eabi/include/c++/10.3.1/bits/deque.tcc **** 	  const difference_type __elems_before = __first - begin();
 272:/Library/DaisyToolchain/0.2.0/arm/arm-none-eabi/include/c++/10.3.1/bits/deque.tcc **** 	  if (static_cast<size_type>(__elems_before) <= (size() - __n) / 2)
 273:/Library/DaisyToolchain/0.2.0/arm/arm-none-eabi/include/c++/10.3.1/bits/deque.tcc **** 	    {
 274:/Library/DaisyToolchain/0.2.0/arm/arm-none-eabi/include/c++/10.3.1/bits/deque.tcc **** 	      if (__first != begin())
 275:/Library/DaisyToolchain/0.2.0/arm/arm-none-eabi/include/c++/10.3.1/bits/deque.tcc **** 		_GLIBCXX_MOVE_BACKWARD3(begin(), __first, __last);
 276:/Library/DaisyToolchain/0.2.0/arm/arm-none-eabi/include/c++/10.3.1/bits/deque.tcc **** 	      _M_erase_at_begin(begin() + __n);
 277:/Library/DaisyToolchain/0.2.0/arm/arm-none-eabi/include/c++/10.3.1/bits/deque.tcc **** 	    }
 278:/Library/DaisyToolchain/0.2.0/arm/arm-none-eabi/include/c++/10.3.1/bits/deque.tcc **** 	  else
 279:/Library/DaisyToolchain/0.2.0/arm/arm-none-eabi/include/c++/10.3.1/bits/deque.tcc **** 	    {
 280:/Library/DaisyToolchain/0.2.0/arm/arm-none-eabi/include/c++/10.3.1/bits/deque.tcc **** 	      if (__last != end())
 281:/Library/DaisyToolchain/0.2.0/arm/arm-none-eabi/include/c++/10.3.1/bits/deque.tcc **** 		_GLIBCXX_MOVE3(__last, end(), __first);
 282:/Library/DaisyToolchain/0.2.0/arm/arm-none-eabi/include/c++/10.3.1/bits/deque.tcc **** 	      _M_erase_at_end(end() - __n);
 283:/Library/DaisyToolchain/0.2.0/arm/arm-none-eabi/include/c++/10.3.1/bits/deque.tcc **** 	    }
 284:/Library/DaisyToolchain/0.2.0/arm/arm-none-eabi/include/c++/10.3.1/bits/deque.tcc **** 	  return begin() + __elems_before;
 285:/Library/DaisyToolchain/0.2.0/arm/arm-none-eabi/include/c++/10.3.1/bits/deque.tcc **** 	}
 286:/Library/DaisyToolchain/0.2.0/arm/arm-none-eabi/include/c++/10.3.1/bits/deque.tcc ****     }
 287:/Library/DaisyToolchain/0.2.0/arm/arm-none-eabi/include/c++/10.3.1/bits/deque.tcc **** 
 288:/Library/DaisyToolchain/0.2.0/arm/arm-none-eabi/include/c++/10.3.1/bits/deque.tcc ****   template <typename _Tp, class _Alloc>
 289:/Library/DaisyToolchain/0.2.0/arm/arm-none-eabi/include/c++/10.3.1/bits/deque.tcc ****     template <typename _InputIterator>
 290:/Library/DaisyToolchain/0.2.0/arm/arm-none-eabi/include/c++/10.3.1/bits/deque.tcc ****       void
 291:/Library/DaisyToolchain/0.2.0/arm/arm-none-eabi/include/c++/10.3.1/bits/deque.tcc ****       deque<_Tp, _Alloc>::
 292:/Library/DaisyToolchain/0.2.0/arm/arm-none-eabi/include/c++/10.3.1/bits/deque.tcc ****       _M_assign_aux(_InputIterator __first, _InputIterator __last,
 293:/Library/DaisyToolchain/0.2.0/arm/arm-none-eabi/include/c++/10.3.1/bits/deque.tcc **** 		    std::input_iterator_tag)
 294:/Library/DaisyToolchain/0.2.0/arm/arm-none-eabi/include/c++/10.3.1/bits/deque.tcc ****       {
 295:/Library/DaisyToolchain/0.2.0/arm/arm-none-eabi/include/c++/10.3.1/bits/deque.tcc **** 	iterator __cur = begin();
 296:/Library/DaisyToolchain/0.2.0/arm/arm-none-eabi/include/c++/10.3.1/bits/deque.tcc **** 	for (; __first != __last && __cur != end(); ++__cur, (void)++__first)
 297:/Library/DaisyToolchain/0.2.0/arm/arm-none-eabi/include/c++/10.3.1/bits/deque.tcc **** 	  *__cur = *__first;
 298:/Library/DaisyToolchain/0.2.0/arm/arm-none-eabi/include/c++/10.3.1/bits/deque.tcc **** 	if (__first == __last)
 299:/Library/DaisyToolchain/0.2.0/arm/arm-none-eabi/include/c++/10.3.1/bits/deque.tcc **** 	  _M_erase_at_end(__cur);
 300:/Library/DaisyToolchain/0.2.0/arm/arm-none-eabi/include/c++/10.3.1/bits/deque.tcc **** 	else
 301:/Library/DaisyToolchain/0.2.0/arm/arm-none-eabi/include/c++/10.3.1/bits/deque.tcc **** 	  _M_range_insert_aux(end(), __first, __last,
 302:/Library/DaisyToolchain/0.2.0/arm/arm-none-eabi/include/c++/10.3.1/bits/deque.tcc **** 			      std::__iterator_category(__first));
 303:/Library/DaisyToolchain/0.2.0/arm/arm-none-eabi/include/c++/10.3.1/bits/deque.tcc ****       }
 304:/Library/DaisyToolchain/0.2.0/arm/arm-none-eabi/include/c++/10.3.1/bits/deque.tcc **** 
 305:/Library/DaisyToolchain/0.2.0/arm/arm-none-eabi/include/c++/10.3.1/bits/deque.tcc ****   template <typename _Tp, typename _Alloc>
 306:/Library/DaisyToolchain/0.2.0/arm/arm-none-eabi/include/c++/10.3.1/bits/deque.tcc ****     void
 307:/Library/DaisyToolchain/0.2.0/arm/arm-none-eabi/include/c++/10.3.1/bits/deque.tcc ****     deque<_Tp, _Alloc>::
 308:/Library/DaisyToolchain/0.2.0/arm/arm-none-eabi/include/c++/10.3.1/bits/deque.tcc ****     _M_fill_insert(iterator __pos, size_type __n, const value_type& __x)
 309:/Library/DaisyToolchain/0.2.0/arm/arm-none-eabi/include/c++/10.3.1/bits/deque.tcc ****     {
ARM GAS  /var/folders/s6/2bsynnl15rj0bwtb9pgx4dc00000gn/T//cc76hY55.s 			page 102


 310:/Library/DaisyToolchain/0.2.0/arm/arm-none-eabi/include/c++/10.3.1/bits/deque.tcc ****       if (__pos._M_cur == this->_M_impl._M_start._M_cur)
 311:/Library/DaisyToolchain/0.2.0/arm/arm-none-eabi/include/c++/10.3.1/bits/deque.tcc **** 	{
 312:/Library/DaisyToolchain/0.2.0/arm/arm-none-eabi/include/c++/10.3.1/bits/deque.tcc **** 	  iterator __new_start = _M_reserve_elements_at_front(__n);
 313:/Library/DaisyToolchain/0.2.0/arm/arm-none-eabi/include/c++/10.3.1/bits/deque.tcc **** 	  __try
 314:/Library/DaisyToolchain/0.2.0/arm/arm-none-eabi/include/c++/10.3.1/bits/deque.tcc **** 	    {
 315:/Library/DaisyToolchain/0.2.0/arm/arm-none-eabi/include/c++/10.3.1/bits/deque.tcc **** 	      std::__uninitialized_fill_a(__new_start, this->_M_impl._M_start,
 316:/Library/DaisyToolchain/0.2.0/arm/arm-none-eabi/include/c++/10.3.1/bits/deque.tcc **** 					  __x, _M_get_Tp_allocator());
 317:/Library/DaisyToolchain/0.2.0/arm/arm-none-eabi/include/c++/10.3.1/bits/deque.tcc **** 	      this->_M_impl._M_start = __new_start;
 318:/Library/DaisyToolchain/0.2.0/arm/arm-none-eabi/include/c++/10.3.1/bits/deque.tcc **** 	    }
 319:/Library/DaisyToolchain/0.2.0/arm/arm-none-eabi/include/c++/10.3.1/bits/deque.tcc **** 	  __catch(...)
 320:/Library/DaisyToolchain/0.2.0/arm/arm-none-eabi/include/c++/10.3.1/bits/deque.tcc **** 	    {
 321:/Library/DaisyToolchain/0.2.0/arm/arm-none-eabi/include/c++/10.3.1/bits/deque.tcc **** 	      _M_destroy_nodes(__new_start._M_node,
 322:/Library/DaisyToolchain/0.2.0/arm/arm-none-eabi/include/c++/10.3.1/bits/deque.tcc **** 			       this->_M_impl._M_start._M_node);
 323:/Library/DaisyToolchain/0.2.0/arm/arm-none-eabi/include/c++/10.3.1/bits/deque.tcc **** 	      __throw_exception_again;
 324:/Library/DaisyToolchain/0.2.0/arm/arm-none-eabi/include/c++/10.3.1/bits/deque.tcc **** 	    }
 325:/Library/DaisyToolchain/0.2.0/arm/arm-none-eabi/include/c++/10.3.1/bits/deque.tcc **** 	}
 326:/Library/DaisyToolchain/0.2.0/arm/arm-none-eabi/include/c++/10.3.1/bits/deque.tcc ****       else if (__pos._M_cur == this->_M_impl._M_finish._M_cur)
 327:/Library/DaisyToolchain/0.2.0/arm/arm-none-eabi/include/c++/10.3.1/bits/deque.tcc **** 	{
 328:/Library/DaisyToolchain/0.2.0/arm/arm-none-eabi/include/c++/10.3.1/bits/deque.tcc **** 	  iterator __new_finish = _M_reserve_elements_at_back(__n);
 329:/Library/DaisyToolchain/0.2.0/arm/arm-none-eabi/include/c++/10.3.1/bits/deque.tcc **** 	  __try
 330:/Library/DaisyToolchain/0.2.0/arm/arm-none-eabi/include/c++/10.3.1/bits/deque.tcc **** 	    {
 331:/Library/DaisyToolchain/0.2.0/arm/arm-none-eabi/include/c++/10.3.1/bits/deque.tcc **** 	      std::__uninitialized_fill_a(this->_M_impl._M_finish,
 332:/Library/DaisyToolchain/0.2.0/arm/arm-none-eabi/include/c++/10.3.1/bits/deque.tcc **** 					  __new_finish, __x,
 333:/Library/DaisyToolchain/0.2.0/arm/arm-none-eabi/include/c++/10.3.1/bits/deque.tcc **** 					  _M_get_Tp_allocator());
 334:/Library/DaisyToolchain/0.2.0/arm/arm-none-eabi/include/c++/10.3.1/bits/deque.tcc **** 	      this->_M_impl._M_finish = __new_finish;
 335:/Library/DaisyToolchain/0.2.0/arm/arm-none-eabi/include/c++/10.3.1/bits/deque.tcc **** 	    }
 336:/Library/DaisyToolchain/0.2.0/arm/arm-none-eabi/include/c++/10.3.1/bits/deque.tcc **** 	  __catch(...)
 337:/Library/DaisyToolchain/0.2.0/arm/arm-none-eabi/include/c++/10.3.1/bits/deque.tcc **** 	    {
 338:/Library/DaisyToolchain/0.2.0/arm/arm-none-eabi/include/c++/10.3.1/bits/deque.tcc **** 	      _M_destroy_nodes(this->_M_impl._M_finish._M_node + 1,
 339:/Library/DaisyToolchain/0.2.0/arm/arm-none-eabi/include/c++/10.3.1/bits/deque.tcc **** 			       __new_finish._M_node + 1);
 340:/Library/DaisyToolchain/0.2.0/arm/arm-none-eabi/include/c++/10.3.1/bits/deque.tcc **** 	      __throw_exception_again;
 341:/Library/DaisyToolchain/0.2.0/arm/arm-none-eabi/include/c++/10.3.1/bits/deque.tcc **** 	    }
 342:/Library/DaisyToolchain/0.2.0/arm/arm-none-eabi/include/c++/10.3.1/bits/deque.tcc **** 	}
 343:/Library/DaisyToolchain/0.2.0/arm/arm-none-eabi/include/c++/10.3.1/bits/deque.tcc ****       else
 344:/Library/DaisyToolchain/0.2.0/arm/arm-none-eabi/include/c++/10.3.1/bits/deque.tcc **** 	_M_insert_aux(__pos, __n, __x);
 345:/Library/DaisyToolchain/0.2.0/arm/arm-none-eabi/include/c++/10.3.1/bits/deque.tcc ****     }
 346:/Library/DaisyToolchain/0.2.0/arm/arm-none-eabi/include/c++/10.3.1/bits/deque.tcc **** 
 347:/Library/DaisyToolchain/0.2.0/arm/arm-none-eabi/include/c++/10.3.1/bits/deque.tcc **** #if __cplusplus >= 201103L
 348:/Library/DaisyToolchain/0.2.0/arm/arm-none-eabi/include/c++/10.3.1/bits/deque.tcc ****   template <typename _Tp, typename _Alloc>
 349:/Library/DaisyToolchain/0.2.0/arm/arm-none-eabi/include/c++/10.3.1/bits/deque.tcc ****     void
 350:/Library/DaisyToolchain/0.2.0/arm/arm-none-eabi/include/c++/10.3.1/bits/deque.tcc ****     deque<_Tp, _Alloc>::
 351:/Library/DaisyToolchain/0.2.0/arm/arm-none-eabi/include/c++/10.3.1/bits/deque.tcc ****     _M_default_append(size_type __n)
 352:/Library/DaisyToolchain/0.2.0/arm/arm-none-eabi/include/c++/10.3.1/bits/deque.tcc ****     {
 353:/Library/DaisyToolchain/0.2.0/arm/arm-none-eabi/include/c++/10.3.1/bits/deque.tcc ****       if (__n)
 354:/Library/DaisyToolchain/0.2.0/arm/arm-none-eabi/include/c++/10.3.1/bits/deque.tcc **** 	{
 355:/Library/DaisyToolchain/0.2.0/arm/arm-none-eabi/include/c++/10.3.1/bits/deque.tcc **** 	  iterator __new_finish = _M_reserve_elements_at_back(__n);
 356:/Library/DaisyToolchain/0.2.0/arm/arm-none-eabi/include/c++/10.3.1/bits/deque.tcc **** 	  __try
 357:/Library/DaisyToolchain/0.2.0/arm/arm-none-eabi/include/c++/10.3.1/bits/deque.tcc **** 	    {
 358:/Library/DaisyToolchain/0.2.0/arm/arm-none-eabi/include/c++/10.3.1/bits/deque.tcc **** 	      std::__uninitialized_default_a(this->_M_impl._M_finish,
 359:/Library/DaisyToolchain/0.2.0/arm/arm-none-eabi/include/c++/10.3.1/bits/deque.tcc **** 					     __new_finish,
 360:/Library/DaisyToolchain/0.2.0/arm/arm-none-eabi/include/c++/10.3.1/bits/deque.tcc **** 					     _M_get_Tp_allocator());
 361:/Library/DaisyToolchain/0.2.0/arm/arm-none-eabi/include/c++/10.3.1/bits/deque.tcc **** 	      this->_M_impl._M_finish = __new_finish;
 362:/Library/DaisyToolchain/0.2.0/arm/arm-none-eabi/include/c++/10.3.1/bits/deque.tcc **** 	    }
 363:/Library/DaisyToolchain/0.2.0/arm/arm-none-eabi/include/c++/10.3.1/bits/deque.tcc **** 	  __catch(...)
 364:/Library/DaisyToolchain/0.2.0/arm/arm-none-eabi/include/c++/10.3.1/bits/deque.tcc **** 	    {
 365:/Library/DaisyToolchain/0.2.0/arm/arm-none-eabi/include/c++/10.3.1/bits/deque.tcc **** 	      _M_destroy_nodes(this->_M_impl._M_finish._M_node + 1,
 366:/Library/DaisyToolchain/0.2.0/arm/arm-none-eabi/include/c++/10.3.1/bits/deque.tcc **** 			       __new_finish._M_node + 1);
ARM GAS  /var/folders/s6/2bsynnl15rj0bwtb9pgx4dc00000gn/T//cc76hY55.s 			page 103


 367:/Library/DaisyToolchain/0.2.0/arm/arm-none-eabi/include/c++/10.3.1/bits/deque.tcc **** 	      __throw_exception_again;
 368:/Library/DaisyToolchain/0.2.0/arm/arm-none-eabi/include/c++/10.3.1/bits/deque.tcc **** 	    }
 369:/Library/DaisyToolchain/0.2.0/arm/arm-none-eabi/include/c++/10.3.1/bits/deque.tcc **** 	}
 370:/Library/DaisyToolchain/0.2.0/arm/arm-none-eabi/include/c++/10.3.1/bits/deque.tcc ****     }
 371:/Library/DaisyToolchain/0.2.0/arm/arm-none-eabi/include/c++/10.3.1/bits/deque.tcc **** 
 372:/Library/DaisyToolchain/0.2.0/arm/arm-none-eabi/include/c++/10.3.1/bits/deque.tcc ****   template <typename _Tp, typename _Alloc>
 373:/Library/DaisyToolchain/0.2.0/arm/arm-none-eabi/include/c++/10.3.1/bits/deque.tcc ****     bool
 374:/Library/DaisyToolchain/0.2.0/arm/arm-none-eabi/include/c++/10.3.1/bits/deque.tcc ****     deque<_Tp, _Alloc>::
 375:/Library/DaisyToolchain/0.2.0/arm/arm-none-eabi/include/c++/10.3.1/bits/deque.tcc ****     _M_shrink_to_fit()
 376:/Library/DaisyToolchain/0.2.0/arm/arm-none-eabi/include/c++/10.3.1/bits/deque.tcc ****     {
 377:/Library/DaisyToolchain/0.2.0/arm/arm-none-eabi/include/c++/10.3.1/bits/deque.tcc ****       const difference_type __front_capacity
 378:/Library/DaisyToolchain/0.2.0/arm/arm-none-eabi/include/c++/10.3.1/bits/deque.tcc **** 	= (this->_M_impl._M_start._M_cur - this->_M_impl._M_start._M_first);
 379:/Library/DaisyToolchain/0.2.0/arm/arm-none-eabi/include/c++/10.3.1/bits/deque.tcc ****       if (__front_capacity == 0)
 380:/Library/DaisyToolchain/0.2.0/arm/arm-none-eabi/include/c++/10.3.1/bits/deque.tcc **** 	return false;
 381:/Library/DaisyToolchain/0.2.0/arm/arm-none-eabi/include/c++/10.3.1/bits/deque.tcc **** 
 382:/Library/DaisyToolchain/0.2.0/arm/arm-none-eabi/include/c++/10.3.1/bits/deque.tcc ****       const difference_type __back_capacity
 383:/Library/DaisyToolchain/0.2.0/arm/arm-none-eabi/include/c++/10.3.1/bits/deque.tcc **** 	= (this->_M_impl._M_finish._M_last - this->_M_impl._M_finish._M_cur);
 384:/Library/DaisyToolchain/0.2.0/arm/arm-none-eabi/include/c++/10.3.1/bits/deque.tcc ****       if (__front_capacity + __back_capacity < _S_buffer_size())
 385:/Library/DaisyToolchain/0.2.0/arm/arm-none-eabi/include/c++/10.3.1/bits/deque.tcc **** 	return false;
 386:/Library/DaisyToolchain/0.2.0/arm/arm-none-eabi/include/c++/10.3.1/bits/deque.tcc **** 
 387:/Library/DaisyToolchain/0.2.0/arm/arm-none-eabi/include/c++/10.3.1/bits/deque.tcc ****       return std::__shrink_to_fit_aux<deque>::_S_do_it(*this);
 388:/Library/DaisyToolchain/0.2.0/arm/arm-none-eabi/include/c++/10.3.1/bits/deque.tcc ****     }
 389:/Library/DaisyToolchain/0.2.0/arm/arm-none-eabi/include/c++/10.3.1/bits/deque.tcc **** #endif
 390:/Library/DaisyToolchain/0.2.0/arm/arm-none-eabi/include/c++/10.3.1/bits/deque.tcc **** 
 391:/Library/DaisyToolchain/0.2.0/arm/arm-none-eabi/include/c++/10.3.1/bits/deque.tcc ****   template <typename _Tp, typename _Alloc>
 392:/Library/DaisyToolchain/0.2.0/arm/arm-none-eabi/include/c++/10.3.1/bits/deque.tcc ****     void
 393:/Library/DaisyToolchain/0.2.0/arm/arm-none-eabi/include/c++/10.3.1/bits/deque.tcc ****     deque<_Tp, _Alloc>::
 394:/Library/DaisyToolchain/0.2.0/arm/arm-none-eabi/include/c++/10.3.1/bits/deque.tcc ****     _M_fill_initialize(const value_type& __value)
 395:/Library/DaisyToolchain/0.2.0/arm/arm-none-eabi/include/c++/10.3.1/bits/deque.tcc ****     {
 396:/Library/DaisyToolchain/0.2.0/arm/arm-none-eabi/include/c++/10.3.1/bits/deque.tcc ****       _Map_pointer __cur;
 397:/Library/DaisyToolchain/0.2.0/arm/arm-none-eabi/include/c++/10.3.1/bits/deque.tcc ****       __try
 398:/Library/DaisyToolchain/0.2.0/arm/arm-none-eabi/include/c++/10.3.1/bits/deque.tcc **** 	{
 399:/Library/DaisyToolchain/0.2.0/arm/arm-none-eabi/include/c++/10.3.1/bits/deque.tcc **** 	  for (__cur = this->_M_impl._M_start._M_node;
 400:/Library/DaisyToolchain/0.2.0/arm/arm-none-eabi/include/c++/10.3.1/bits/deque.tcc **** 	       __cur < this->_M_impl._M_finish._M_node;
 401:/Library/DaisyToolchain/0.2.0/arm/arm-none-eabi/include/c++/10.3.1/bits/deque.tcc **** 	       ++__cur)
 402:/Library/DaisyToolchain/0.2.0/arm/arm-none-eabi/include/c++/10.3.1/bits/deque.tcc **** 	    std::__uninitialized_fill_a(*__cur, *__cur + _S_buffer_size(),
 403:/Library/DaisyToolchain/0.2.0/arm/arm-none-eabi/include/c++/10.3.1/bits/deque.tcc **** 					__value, _M_get_Tp_allocator());
 404:/Library/DaisyToolchain/0.2.0/arm/arm-none-eabi/include/c++/10.3.1/bits/deque.tcc **** 	  std::__uninitialized_fill_a(this->_M_impl._M_finish._M_first,
 405:/Library/DaisyToolchain/0.2.0/arm/arm-none-eabi/include/c++/10.3.1/bits/deque.tcc **** 				      this->_M_impl._M_finish._M_cur,
 406:/Library/DaisyToolchain/0.2.0/arm/arm-none-eabi/include/c++/10.3.1/bits/deque.tcc **** 				      __value, _M_get_Tp_allocator());
 407:/Library/DaisyToolchain/0.2.0/arm/arm-none-eabi/include/c++/10.3.1/bits/deque.tcc **** 	}
 408:/Library/DaisyToolchain/0.2.0/arm/arm-none-eabi/include/c++/10.3.1/bits/deque.tcc ****       __catch(...)
 409:/Library/DaisyToolchain/0.2.0/arm/arm-none-eabi/include/c++/10.3.1/bits/deque.tcc **** 	{
 410:/Library/DaisyToolchain/0.2.0/arm/arm-none-eabi/include/c++/10.3.1/bits/deque.tcc **** 	  std::_Destroy(this->_M_impl._M_start, iterator(*__cur, __cur),
 411:/Library/DaisyToolchain/0.2.0/arm/arm-none-eabi/include/c++/10.3.1/bits/deque.tcc **** 			_M_get_Tp_allocator());
 412:/Library/DaisyToolchain/0.2.0/arm/arm-none-eabi/include/c++/10.3.1/bits/deque.tcc **** 	  __throw_exception_again;
 413:/Library/DaisyToolchain/0.2.0/arm/arm-none-eabi/include/c++/10.3.1/bits/deque.tcc **** 	}
 414:/Library/DaisyToolchain/0.2.0/arm/arm-none-eabi/include/c++/10.3.1/bits/deque.tcc ****     }
 415:/Library/DaisyToolchain/0.2.0/arm/arm-none-eabi/include/c++/10.3.1/bits/deque.tcc **** 
 416:/Library/DaisyToolchain/0.2.0/arm/arm-none-eabi/include/c++/10.3.1/bits/deque.tcc ****   template <typename _Tp, typename _Alloc>
 417:/Library/DaisyToolchain/0.2.0/arm/arm-none-eabi/include/c++/10.3.1/bits/deque.tcc ****     template <typename _InputIterator>
 418:/Library/DaisyToolchain/0.2.0/arm/arm-none-eabi/include/c++/10.3.1/bits/deque.tcc ****       void
 419:/Library/DaisyToolchain/0.2.0/arm/arm-none-eabi/include/c++/10.3.1/bits/deque.tcc ****       deque<_Tp, _Alloc>::
 420:/Library/DaisyToolchain/0.2.0/arm/arm-none-eabi/include/c++/10.3.1/bits/deque.tcc ****       _M_range_initialize(_InputIterator __first, _InputIterator __last,
 421:/Library/DaisyToolchain/0.2.0/arm/arm-none-eabi/include/c++/10.3.1/bits/deque.tcc **** 			  std::input_iterator_tag)
 422:/Library/DaisyToolchain/0.2.0/arm/arm-none-eabi/include/c++/10.3.1/bits/deque.tcc ****       {
 423:/Library/DaisyToolchain/0.2.0/arm/arm-none-eabi/include/c++/10.3.1/bits/deque.tcc **** 	this->_M_initialize_map(0);
ARM GAS  /var/folders/s6/2bsynnl15rj0bwtb9pgx4dc00000gn/T//cc76hY55.s 			page 104


 424:/Library/DaisyToolchain/0.2.0/arm/arm-none-eabi/include/c++/10.3.1/bits/deque.tcc **** 	__try
 425:/Library/DaisyToolchain/0.2.0/arm/arm-none-eabi/include/c++/10.3.1/bits/deque.tcc **** 	  {
 426:/Library/DaisyToolchain/0.2.0/arm/arm-none-eabi/include/c++/10.3.1/bits/deque.tcc **** 	    for (; __first != __last; ++__first)
 427:/Library/DaisyToolchain/0.2.0/arm/arm-none-eabi/include/c++/10.3.1/bits/deque.tcc **** #if __cplusplus >= 201103L
 428:/Library/DaisyToolchain/0.2.0/arm/arm-none-eabi/include/c++/10.3.1/bits/deque.tcc **** 	      emplace_back(*__first);
 429:/Library/DaisyToolchain/0.2.0/arm/arm-none-eabi/include/c++/10.3.1/bits/deque.tcc **** #else
 430:/Library/DaisyToolchain/0.2.0/arm/arm-none-eabi/include/c++/10.3.1/bits/deque.tcc **** 	      push_back(*__first);
 431:/Library/DaisyToolchain/0.2.0/arm/arm-none-eabi/include/c++/10.3.1/bits/deque.tcc **** #endif
 432:/Library/DaisyToolchain/0.2.0/arm/arm-none-eabi/include/c++/10.3.1/bits/deque.tcc **** 	  }
 433:/Library/DaisyToolchain/0.2.0/arm/arm-none-eabi/include/c++/10.3.1/bits/deque.tcc **** 	__catch(...)
 434:/Library/DaisyToolchain/0.2.0/arm/arm-none-eabi/include/c++/10.3.1/bits/deque.tcc **** 	  {
 435:/Library/DaisyToolchain/0.2.0/arm/arm-none-eabi/include/c++/10.3.1/bits/deque.tcc **** 	    clear();
 436:/Library/DaisyToolchain/0.2.0/arm/arm-none-eabi/include/c++/10.3.1/bits/deque.tcc **** 	    __throw_exception_again;
 437:/Library/DaisyToolchain/0.2.0/arm/arm-none-eabi/include/c++/10.3.1/bits/deque.tcc **** 	  }
 438:/Library/DaisyToolchain/0.2.0/arm/arm-none-eabi/include/c++/10.3.1/bits/deque.tcc ****       }
 439:/Library/DaisyToolchain/0.2.0/arm/arm-none-eabi/include/c++/10.3.1/bits/deque.tcc **** 
 440:/Library/DaisyToolchain/0.2.0/arm/arm-none-eabi/include/c++/10.3.1/bits/deque.tcc ****   template <typename _Tp, typename _Alloc>
 441:/Library/DaisyToolchain/0.2.0/arm/arm-none-eabi/include/c++/10.3.1/bits/deque.tcc ****     template <typename _ForwardIterator>
 442:/Library/DaisyToolchain/0.2.0/arm/arm-none-eabi/include/c++/10.3.1/bits/deque.tcc ****       void
 443:/Library/DaisyToolchain/0.2.0/arm/arm-none-eabi/include/c++/10.3.1/bits/deque.tcc ****       deque<_Tp, _Alloc>::
 444:/Library/DaisyToolchain/0.2.0/arm/arm-none-eabi/include/c++/10.3.1/bits/deque.tcc ****       _M_range_initialize(_ForwardIterator __first, _ForwardIterator __last,
 445:/Library/DaisyToolchain/0.2.0/arm/arm-none-eabi/include/c++/10.3.1/bits/deque.tcc **** 			  std::forward_iterator_tag)
 446:/Library/DaisyToolchain/0.2.0/arm/arm-none-eabi/include/c++/10.3.1/bits/deque.tcc ****       {
 447:/Library/DaisyToolchain/0.2.0/arm/arm-none-eabi/include/c++/10.3.1/bits/deque.tcc **** 	const size_type __n = std::distance(__first, __last);
 448:/Library/DaisyToolchain/0.2.0/arm/arm-none-eabi/include/c++/10.3.1/bits/deque.tcc **** 	this->_M_initialize_map(_S_check_init_len(__n, _M_get_Tp_allocator()));
 449:/Library/DaisyToolchain/0.2.0/arm/arm-none-eabi/include/c++/10.3.1/bits/deque.tcc **** 
 450:/Library/DaisyToolchain/0.2.0/arm/arm-none-eabi/include/c++/10.3.1/bits/deque.tcc **** 	_Map_pointer __cur_node;
 451:/Library/DaisyToolchain/0.2.0/arm/arm-none-eabi/include/c++/10.3.1/bits/deque.tcc **** 	__try
 452:/Library/DaisyToolchain/0.2.0/arm/arm-none-eabi/include/c++/10.3.1/bits/deque.tcc **** 	  {
 453:/Library/DaisyToolchain/0.2.0/arm/arm-none-eabi/include/c++/10.3.1/bits/deque.tcc **** 	    for (__cur_node = this->_M_impl._M_start._M_node;
 454:/Library/DaisyToolchain/0.2.0/arm/arm-none-eabi/include/c++/10.3.1/bits/deque.tcc **** 		 __cur_node < this->_M_impl._M_finish._M_node;
 455:/Library/DaisyToolchain/0.2.0/arm/arm-none-eabi/include/c++/10.3.1/bits/deque.tcc **** 		 ++__cur_node)
 456:/Library/DaisyToolchain/0.2.0/arm/arm-none-eabi/include/c++/10.3.1/bits/deque.tcc **** 	      {
 457:/Library/DaisyToolchain/0.2.0/arm/arm-none-eabi/include/c++/10.3.1/bits/deque.tcc **** 		_ForwardIterator __mid = __first;
 458:/Library/DaisyToolchain/0.2.0/arm/arm-none-eabi/include/c++/10.3.1/bits/deque.tcc **** 		std::advance(__mid, _S_buffer_size());
 459:/Library/DaisyToolchain/0.2.0/arm/arm-none-eabi/include/c++/10.3.1/bits/deque.tcc **** 		std::__uninitialized_copy_a(__first, __mid, *__cur_node,
 460:/Library/DaisyToolchain/0.2.0/arm/arm-none-eabi/include/c++/10.3.1/bits/deque.tcc **** 					    _M_get_Tp_allocator());
 461:/Library/DaisyToolchain/0.2.0/arm/arm-none-eabi/include/c++/10.3.1/bits/deque.tcc **** 		__first = __mid;
 462:/Library/DaisyToolchain/0.2.0/arm/arm-none-eabi/include/c++/10.3.1/bits/deque.tcc **** 	      }
 463:/Library/DaisyToolchain/0.2.0/arm/arm-none-eabi/include/c++/10.3.1/bits/deque.tcc **** 	    std::__uninitialized_copy_a(__first, __last,
 464:/Library/DaisyToolchain/0.2.0/arm/arm-none-eabi/include/c++/10.3.1/bits/deque.tcc **** 					this->_M_impl._M_finish._M_first,
 465:/Library/DaisyToolchain/0.2.0/arm/arm-none-eabi/include/c++/10.3.1/bits/deque.tcc **** 					_M_get_Tp_allocator());
 466:/Library/DaisyToolchain/0.2.0/arm/arm-none-eabi/include/c++/10.3.1/bits/deque.tcc **** 	  }
 467:/Library/DaisyToolchain/0.2.0/arm/arm-none-eabi/include/c++/10.3.1/bits/deque.tcc **** 	__catch(...)
 468:/Library/DaisyToolchain/0.2.0/arm/arm-none-eabi/include/c++/10.3.1/bits/deque.tcc **** 	  {
 469:/Library/DaisyToolchain/0.2.0/arm/arm-none-eabi/include/c++/10.3.1/bits/deque.tcc **** 	    std::_Destroy(this->_M_impl._M_start,
 470:/Library/DaisyToolchain/0.2.0/arm/arm-none-eabi/include/c++/10.3.1/bits/deque.tcc **** 			  iterator(*__cur_node, __cur_node),
 471:/Library/DaisyToolchain/0.2.0/arm/arm-none-eabi/include/c++/10.3.1/bits/deque.tcc **** 			  _M_get_Tp_allocator());
 472:/Library/DaisyToolchain/0.2.0/arm/arm-none-eabi/include/c++/10.3.1/bits/deque.tcc **** 	    __throw_exception_again;
 473:/Library/DaisyToolchain/0.2.0/arm/arm-none-eabi/include/c++/10.3.1/bits/deque.tcc **** 	  }
 474:/Library/DaisyToolchain/0.2.0/arm/arm-none-eabi/include/c++/10.3.1/bits/deque.tcc ****       }
 475:/Library/DaisyToolchain/0.2.0/arm/arm-none-eabi/include/c++/10.3.1/bits/deque.tcc **** 
 476:/Library/DaisyToolchain/0.2.0/arm/arm-none-eabi/include/c++/10.3.1/bits/deque.tcc ****   // Called only if _M_impl._M_finish._M_cur == _M_impl._M_finish._M_last - 1.
 477:/Library/DaisyToolchain/0.2.0/arm/arm-none-eabi/include/c++/10.3.1/bits/deque.tcc ****   template<typename _Tp, typename _Alloc>
 478:/Library/DaisyToolchain/0.2.0/arm/arm-none-eabi/include/c++/10.3.1/bits/deque.tcc **** #if __cplusplus >= 201103L
 479:/Library/DaisyToolchain/0.2.0/arm/arm-none-eabi/include/c++/10.3.1/bits/deque.tcc ****     template<typename... _Args>
 480:/Library/DaisyToolchain/0.2.0/arm/arm-none-eabi/include/c++/10.3.1/bits/deque.tcc ****       void
ARM GAS  /var/folders/s6/2bsynnl15rj0bwtb9pgx4dc00000gn/T//cc76hY55.s 			page 105


 481:/Library/DaisyToolchain/0.2.0/arm/arm-none-eabi/include/c++/10.3.1/bits/deque.tcc ****       deque<_Tp, _Alloc>::
 1577              		.loc 18 481 7 is_stmt 1 view .LVU404
 1578              	.LBB702:
 1579              	.LBB703:
 1580              	.LBI703:
1230:/Library/DaisyToolchain/0.2.0/arm/arm-none-eabi/include/c++/10.3.1/bits/stl_deque.h ****       { return this->_M_impl._M_finish - this->_M_impl._M_start; }
 1581              		.loc 14 1230 7 view .LVU405
 1582              	.LBB704:
 1583              	.LBI704:
 353:/Library/DaisyToolchain/0.2.0/arm/arm-none-eabi/include/c++/10.3.1/bits/stl_deque.h ****       {
 1584              		.loc 14 353 7 view .LVU406
 1585              	.LBB705:
 356:/Library/DaisyToolchain/0.2.0/arm/arm-none-eabi/include/c++/10.3.1/bits/stl_deque.h **** 	  + (__y._M_last - __y._M_cur);
 1586              		.loc 14 356 11 is_stmt 0 view .LVU407
 1587 0162 D8F82490 		ldr	r9, [r8, #36]
 356:/Library/DaisyToolchain/0.2.0/arm/arm-none-eabi/include/c++/10.3.1/bits/stl_deque.h **** 	  + (__y._M_last - __y._M_cur);
 1588              		.loc 14 356 25 view .LVU408
 1589 0166 D8F81410 		ldr	r1, [r8, #20]
 356:/Library/DaisyToolchain/0.2.0/arm/arm-none-eabi/include/c++/10.3.1/bits/stl_deque.h **** 	  + (__y._M_last - __y._M_cur);
 1590              		.loc 14 356 52 view .LVU409
 1591 016a D8F81C20 		ldr	r2, [r8, #28]
 356:/Library/DaisyToolchain/0.2.0/arm/arm-none-eabi/include/c++/10.3.1/bits/stl_deque.h **** 	  + (__y._M_last - __y._M_cur);
 1592              		.loc 14 356 19 view .LVU410
 1593 016e A9EB010A 		sub	r10, r9, r1
 356:/Library/DaisyToolchain/0.2.0/arm/arm-none-eabi/include/c++/10.3.1/bits/stl_deque.h **** 	  + (__y._M_last - __y._M_cur);
 1594              		.loc 14 356 52 view .LVU411
 1595 0172 9B1A     		subs	r3, r3, r2
 357:/Library/DaisyToolchain/0.2.0/arm/arm-none-eabi/include/c++/10.3.1/bits/stl_deque.h ****       }
 1596              		.loc 14 357 19 view .LVU412
 1597 0174 D8F81020 		ldr	r2, [r8, #16]
 356:/Library/DaisyToolchain/0.2.0/arm/arm-none-eabi/include/c++/10.3.1/bits/stl_deque.h **** 	  + (__y._M_last - __y._M_cur);
 1598              		.loc 14 356 19 view .LVU413
 1599 0178 4FEAAA0C 		asr	ip, r10, #2
 1600              	.LVL126:
 356:/Library/DaisyToolchain/0.2.0/arm/arm-none-eabi/include/c++/10.3.1/bits/stl_deque.h **** 	  + (__y._M_last - __y._M_cur);
 1601              		.loc 14 356 33 view .LVU414
 1602 017c 0CF1FF30 		add	r0, ip, #-1
 356:/Library/DaisyToolchain/0.2.0/arm/arm-none-eabi/include/c++/10.3.1/bits/stl_deque.h **** 	  + (__y._M_last - __y._M_cur);
 1603              		.loc 14 356 38 view .LVU415
 1604 0180 03EB4023 		add	r3, r3, r0, lsl #9
 357:/Library/DaisyToolchain/0.2.0/arm/arm-none-eabi/include/c++/10.3.1/bits/stl_deque.h ****       }
 1605              		.loc 14 357 19 view .LVU416
 1606 0184 D8F80800 		ldr	r0, [r8, #8]
 1607 0188 121A     		subs	r2, r2, r0
 357:/Library/DaisyToolchain/0.2.0/arm/arm-none-eabi/include/c++/10.3.1/bits/stl_deque.h ****       }
 1608              		.loc 14 357 31 view .LVU417
 1609 018a 1344     		add	r3, r3, r2
 1610              	.LBE705:
 1611              	.LBE704:
 1612              	.LBE703:
 482:/Library/DaisyToolchain/0.2.0/arm/arm-none-eabi/include/c++/10.3.1/bits/deque.tcc ****       _M_push_back_aux(_Args&&... __args)
 483:/Library/DaisyToolchain/0.2.0/arm/arm-none-eabi/include/c++/10.3.1/bits/deque.tcc **** #else
 484:/Library/DaisyToolchain/0.2.0/arm/arm-none-eabi/include/c++/10.3.1/bits/deque.tcc ****       void
 485:/Library/DaisyToolchain/0.2.0/arm/arm-none-eabi/include/c++/10.3.1/bits/deque.tcc ****       deque<_Tp, _Alloc>::
 486:/Library/DaisyToolchain/0.2.0/arm/arm-none-eabi/include/c++/10.3.1/bits/deque.tcc ****       _M_push_back_aux(const value_type& __t)
 487:/Library/DaisyToolchain/0.2.0/arm/arm-none-eabi/include/c++/10.3.1/bits/deque.tcc **** #endif
 488:/Library/DaisyToolchain/0.2.0/arm/arm-none-eabi/include/c++/10.3.1/bits/deque.tcc ****       {
ARM GAS  /var/folders/s6/2bsynnl15rj0bwtb9pgx4dc00000gn/T//cc76hY55.s 			page 106


 489:/Library/DaisyToolchain/0.2.0/arm/arm-none-eabi/include/c++/10.3.1/bits/deque.tcc **** 	if (size() == max_size())
 1613              		.loc 18 489 2 view .LVU418
 1614 018c 6FF00042 		mvn	r2, #-2147483648
 1615 0190 9342     		cmp	r3, r2
 1616 0192 00F09880 		beq	.L139
 1617              	.LVL127:
 1618              	.LBB706:
 1619              	.LBI706:
1501:/Library/DaisyToolchain/0.2.0/arm/arm-none-eabi/include/c++/10.3.1/bits/stl_deque.h **** 	  }
1502:/Library/DaisyToolchain/0.2.0/arm/arm-none-eabi/include/c++/10.3.1/bits/stl_deque.h **** 	else
1503:/Library/DaisyToolchain/0.2.0/arm/arm-none-eabi/include/c++/10.3.1/bits/stl_deque.h **** 	  _M_push_back_aux(__x);
1504:/Library/DaisyToolchain/0.2.0/arm/arm-none-eabi/include/c++/10.3.1/bits/stl_deque.h ****       }
1505:/Library/DaisyToolchain/0.2.0/arm/arm-none-eabi/include/c++/10.3.1/bits/stl_deque.h **** 
1506:/Library/DaisyToolchain/0.2.0/arm/arm-none-eabi/include/c++/10.3.1/bits/stl_deque.h **** #if __cplusplus >= 201103L
1507:/Library/DaisyToolchain/0.2.0/arm/arm-none-eabi/include/c++/10.3.1/bits/stl_deque.h ****       void
1508:/Library/DaisyToolchain/0.2.0/arm/arm-none-eabi/include/c++/10.3.1/bits/stl_deque.h ****       push_back(value_type&& __x)
1509:/Library/DaisyToolchain/0.2.0/arm/arm-none-eabi/include/c++/10.3.1/bits/stl_deque.h ****       { emplace_back(std::move(__x)); }
1510:/Library/DaisyToolchain/0.2.0/arm/arm-none-eabi/include/c++/10.3.1/bits/stl_deque.h **** 
1511:/Library/DaisyToolchain/0.2.0/arm/arm-none-eabi/include/c++/10.3.1/bits/stl_deque.h ****       template<typename... _Args>
1512:/Library/DaisyToolchain/0.2.0/arm/arm-none-eabi/include/c++/10.3.1/bits/stl_deque.h **** #if __cplusplus > 201402L
1513:/Library/DaisyToolchain/0.2.0/arm/arm-none-eabi/include/c++/10.3.1/bits/stl_deque.h **** 	reference
1514:/Library/DaisyToolchain/0.2.0/arm/arm-none-eabi/include/c++/10.3.1/bits/stl_deque.h **** #else
1515:/Library/DaisyToolchain/0.2.0/arm/arm-none-eabi/include/c++/10.3.1/bits/stl_deque.h **** 	void
1516:/Library/DaisyToolchain/0.2.0/arm/arm-none-eabi/include/c++/10.3.1/bits/stl_deque.h **** #endif
1517:/Library/DaisyToolchain/0.2.0/arm/arm-none-eabi/include/c++/10.3.1/bits/stl_deque.h **** 	emplace_back(_Args&&... __args);
1518:/Library/DaisyToolchain/0.2.0/arm/arm-none-eabi/include/c++/10.3.1/bits/stl_deque.h **** #endif
1519:/Library/DaisyToolchain/0.2.0/arm/arm-none-eabi/include/c++/10.3.1/bits/stl_deque.h **** 
1520:/Library/DaisyToolchain/0.2.0/arm/arm-none-eabi/include/c++/10.3.1/bits/stl_deque.h ****       /**
1521:/Library/DaisyToolchain/0.2.0/arm/arm-none-eabi/include/c++/10.3.1/bits/stl_deque.h ****        *  @brief  Removes first element.
1522:/Library/DaisyToolchain/0.2.0/arm/arm-none-eabi/include/c++/10.3.1/bits/stl_deque.h ****        *
1523:/Library/DaisyToolchain/0.2.0/arm/arm-none-eabi/include/c++/10.3.1/bits/stl_deque.h ****        *  This is a typical stack operation.  It shrinks the %deque by one.
1524:/Library/DaisyToolchain/0.2.0/arm/arm-none-eabi/include/c++/10.3.1/bits/stl_deque.h ****        *
1525:/Library/DaisyToolchain/0.2.0/arm/arm-none-eabi/include/c++/10.3.1/bits/stl_deque.h ****        *  Note that no data is returned, and if the first element's data is
1526:/Library/DaisyToolchain/0.2.0/arm/arm-none-eabi/include/c++/10.3.1/bits/stl_deque.h ****        *  needed, it should be retrieved before pop_front() is called.
1527:/Library/DaisyToolchain/0.2.0/arm/arm-none-eabi/include/c++/10.3.1/bits/stl_deque.h ****        */
1528:/Library/DaisyToolchain/0.2.0/arm/arm-none-eabi/include/c++/10.3.1/bits/stl_deque.h ****       void
1529:/Library/DaisyToolchain/0.2.0/arm/arm-none-eabi/include/c++/10.3.1/bits/stl_deque.h ****       pop_front() _GLIBCXX_NOEXCEPT
1530:/Library/DaisyToolchain/0.2.0/arm/arm-none-eabi/include/c++/10.3.1/bits/stl_deque.h ****       {
1531:/Library/DaisyToolchain/0.2.0/arm/arm-none-eabi/include/c++/10.3.1/bits/stl_deque.h **** 	__glibcxx_requires_nonempty();
1532:/Library/DaisyToolchain/0.2.0/arm/arm-none-eabi/include/c++/10.3.1/bits/stl_deque.h **** 	if (this->_M_impl._M_start._M_cur
1533:/Library/DaisyToolchain/0.2.0/arm/arm-none-eabi/include/c++/10.3.1/bits/stl_deque.h **** 	    != this->_M_impl._M_start._M_last - 1)
1534:/Library/DaisyToolchain/0.2.0/arm/arm-none-eabi/include/c++/10.3.1/bits/stl_deque.h **** 	  {
1535:/Library/DaisyToolchain/0.2.0/arm/arm-none-eabi/include/c++/10.3.1/bits/stl_deque.h **** 	    _Alloc_traits::destroy(_M_get_Tp_allocator(),
1536:/Library/DaisyToolchain/0.2.0/arm/arm-none-eabi/include/c++/10.3.1/bits/stl_deque.h **** 				   this->_M_impl._M_start._M_cur);
1537:/Library/DaisyToolchain/0.2.0/arm/arm-none-eabi/include/c++/10.3.1/bits/stl_deque.h **** 	    ++this->_M_impl._M_start._M_cur;
1538:/Library/DaisyToolchain/0.2.0/arm/arm-none-eabi/include/c++/10.3.1/bits/stl_deque.h **** 	  }
1539:/Library/DaisyToolchain/0.2.0/arm/arm-none-eabi/include/c++/10.3.1/bits/stl_deque.h **** 	else
1540:/Library/DaisyToolchain/0.2.0/arm/arm-none-eabi/include/c++/10.3.1/bits/stl_deque.h **** 	  _M_pop_front_aux();
1541:/Library/DaisyToolchain/0.2.0/arm/arm-none-eabi/include/c++/10.3.1/bits/stl_deque.h ****       }
1542:/Library/DaisyToolchain/0.2.0/arm/arm-none-eabi/include/c++/10.3.1/bits/stl_deque.h **** 
1543:/Library/DaisyToolchain/0.2.0/arm/arm-none-eabi/include/c++/10.3.1/bits/stl_deque.h ****       /**
1544:/Library/DaisyToolchain/0.2.0/arm/arm-none-eabi/include/c++/10.3.1/bits/stl_deque.h ****        *  @brief  Removes last element.
1545:/Library/DaisyToolchain/0.2.0/arm/arm-none-eabi/include/c++/10.3.1/bits/stl_deque.h ****        *
1546:/Library/DaisyToolchain/0.2.0/arm/arm-none-eabi/include/c++/10.3.1/bits/stl_deque.h ****        *  This is a typical stack operation.  It shrinks the %deque by one.
1547:/Library/DaisyToolchain/0.2.0/arm/arm-none-eabi/include/c++/10.3.1/bits/stl_deque.h ****        *
1548:/Library/DaisyToolchain/0.2.0/arm/arm-none-eabi/include/c++/10.3.1/bits/stl_deque.h ****        *  Note that no data is returned, and if the last element's data is
1549:/Library/DaisyToolchain/0.2.0/arm/arm-none-eabi/include/c++/10.3.1/bits/stl_deque.h ****        *  needed, it should be retrieved before pop_back() is called.
ARM GAS  /var/folders/s6/2bsynnl15rj0bwtb9pgx4dc00000gn/T//cc76hY55.s 			page 107


1550:/Library/DaisyToolchain/0.2.0/arm/arm-none-eabi/include/c++/10.3.1/bits/stl_deque.h ****        */
1551:/Library/DaisyToolchain/0.2.0/arm/arm-none-eabi/include/c++/10.3.1/bits/stl_deque.h ****       void
1552:/Library/DaisyToolchain/0.2.0/arm/arm-none-eabi/include/c++/10.3.1/bits/stl_deque.h ****       pop_back() _GLIBCXX_NOEXCEPT
1553:/Library/DaisyToolchain/0.2.0/arm/arm-none-eabi/include/c++/10.3.1/bits/stl_deque.h ****       {
1554:/Library/DaisyToolchain/0.2.0/arm/arm-none-eabi/include/c++/10.3.1/bits/stl_deque.h **** 	__glibcxx_requires_nonempty();
1555:/Library/DaisyToolchain/0.2.0/arm/arm-none-eabi/include/c++/10.3.1/bits/stl_deque.h **** 	if (this->_M_impl._M_finish._M_cur
1556:/Library/DaisyToolchain/0.2.0/arm/arm-none-eabi/include/c++/10.3.1/bits/stl_deque.h **** 	    != this->_M_impl._M_finish._M_first)
1557:/Library/DaisyToolchain/0.2.0/arm/arm-none-eabi/include/c++/10.3.1/bits/stl_deque.h **** 	  {
1558:/Library/DaisyToolchain/0.2.0/arm/arm-none-eabi/include/c++/10.3.1/bits/stl_deque.h **** 	    --this->_M_impl._M_finish._M_cur;
1559:/Library/DaisyToolchain/0.2.0/arm/arm-none-eabi/include/c++/10.3.1/bits/stl_deque.h **** 	    _Alloc_traits::destroy(_M_get_Tp_allocator(),
1560:/Library/DaisyToolchain/0.2.0/arm/arm-none-eabi/include/c++/10.3.1/bits/stl_deque.h **** 				   this->_M_impl._M_finish._M_cur);
1561:/Library/DaisyToolchain/0.2.0/arm/arm-none-eabi/include/c++/10.3.1/bits/stl_deque.h **** 	  }
1562:/Library/DaisyToolchain/0.2.0/arm/arm-none-eabi/include/c++/10.3.1/bits/stl_deque.h **** 	else
1563:/Library/DaisyToolchain/0.2.0/arm/arm-none-eabi/include/c++/10.3.1/bits/stl_deque.h **** 	  _M_pop_back_aux();
1564:/Library/DaisyToolchain/0.2.0/arm/arm-none-eabi/include/c++/10.3.1/bits/stl_deque.h ****       }
1565:/Library/DaisyToolchain/0.2.0/arm/arm-none-eabi/include/c++/10.3.1/bits/stl_deque.h **** 
1566:/Library/DaisyToolchain/0.2.0/arm/arm-none-eabi/include/c++/10.3.1/bits/stl_deque.h **** #if __cplusplus >= 201103L
1567:/Library/DaisyToolchain/0.2.0/arm/arm-none-eabi/include/c++/10.3.1/bits/stl_deque.h ****       /**
1568:/Library/DaisyToolchain/0.2.0/arm/arm-none-eabi/include/c++/10.3.1/bits/stl_deque.h ****        *  @brief  Inserts an object in %deque before specified iterator.
1569:/Library/DaisyToolchain/0.2.0/arm/arm-none-eabi/include/c++/10.3.1/bits/stl_deque.h ****        *  @param  __position  A const_iterator into the %deque.
1570:/Library/DaisyToolchain/0.2.0/arm/arm-none-eabi/include/c++/10.3.1/bits/stl_deque.h ****        *  @param  __args  Arguments.
1571:/Library/DaisyToolchain/0.2.0/arm/arm-none-eabi/include/c++/10.3.1/bits/stl_deque.h ****        *  @return  An iterator that points to the inserted data.
1572:/Library/DaisyToolchain/0.2.0/arm/arm-none-eabi/include/c++/10.3.1/bits/stl_deque.h ****        *
1573:/Library/DaisyToolchain/0.2.0/arm/arm-none-eabi/include/c++/10.3.1/bits/stl_deque.h ****        *  This function will insert an object of type T constructed
1574:/Library/DaisyToolchain/0.2.0/arm/arm-none-eabi/include/c++/10.3.1/bits/stl_deque.h ****        *  with T(std::forward<Args>(args)...) before the specified location.
1575:/Library/DaisyToolchain/0.2.0/arm/arm-none-eabi/include/c++/10.3.1/bits/stl_deque.h ****        */
1576:/Library/DaisyToolchain/0.2.0/arm/arm-none-eabi/include/c++/10.3.1/bits/stl_deque.h ****       template<typename... _Args>
1577:/Library/DaisyToolchain/0.2.0/arm/arm-none-eabi/include/c++/10.3.1/bits/stl_deque.h **** 	iterator
1578:/Library/DaisyToolchain/0.2.0/arm/arm-none-eabi/include/c++/10.3.1/bits/stl_deque.h **** 	emplace(const_iterator __position, _Args&&... __args);
1579:/Library/DaisyToolchain/0.2.0/arm/arm-none-eabi/include/c++/10.3.1/bits/stl_deque.h **** 
1580:/Library/DaisyToolchain/0.2.0/arm/arm-none-eabi/include/c++/10.3.1/bits/stl_deque.h ****       /**
1581:/Library/DaisyToolchain/0.2.0/arm/arm-none-eabi/include/c++/10.3.1/bits/stl_deque.h ****        *  @brief  Inserts given value into %deque before specified iterator.
1582:/Library/DaisyToolchain/0.2.0/arm/arm-none-eabi/include/c++/10.3.1/bits/stl_deque.h ****        *  @param  __position  A const_iterator into the %deque.
1583:/Library/DaisyToolchain/0.2.0/arm/arm-none-eabi/include/c++/10.3.1/bits/stl_deque.h ****        *  @param  __x  Data to be inserted.
1584:/Library/DaisyToolchain/0.2.0/arm/arm-none-eabi/include/c++/10.3.1/bits/stl_deque.h ****        *  @return  An iterator that points to the inserted data.
1585:/Library/DaisyToolchain/0.2.0/arm/arm-none-eabi/include/c++/10.3.1/bits/stl_deque.h ****        *
1586:/Library/DaisyToolchain/0.2.0/arm/arm-none-eabi/include/c++/10.3.1/bits/stl_deque.h ****        *  This function will insert a copy of the given value before the
1587:/Library/DaisyToolchain/0.2.0/arm/arm-none-eabi/include/c++/10.3.1/bits/stl_deque.h ****        *  specified location.
1588:/Library/DaisyToolchain/0.2.0/arm/arm-none-eabi/include/c++/10.3.1/bits/stl_deque.h ****        */
1589:/Library/DaisyToolchain/0.2.0/arm/arm-none-eabi/include/c++/10.3.1/bits/stl_deque.h ****       iterator
1590:/Library/DaisyToolchain/0.2.0/arm/arm-none-eabi/include/c++/10.3.1/bits/stl_deque.h ****       insert(const_iterator __position, const value_type& __x);
1591:/Library/DaisyToolchain/0.2.0/arm/arm-none-eabi/include/c++/10.3.1/bits/stl_deque.h **** #else
1592:/Library/DaisyToolchain/0.2.0/arm/arm-none-eabi/include/c++/10.3.1/bits/stl_deque.h ****       /**
1593:/Library/DaisyToolchain/0.2.0/arm/arm-none-eabi/include/c++/10.3.1/bits/stl_deque.h ****        *  @brief  Inserts given value into %deque before specified iterator.
1594:/Library/DaisyToolchain/0.2.0/arm/arm-none-eabi/include/c++/10.3.1/bits/stl_deque.h ****        *  @param  __position  An iterator into the %deque.
1595:/Library/DaisyToolchain/0.2.0/arm/arm-none-eabi/include/c++/10.3.1/bits/stl_deque.h ****        *  @param  __x  Data to be inserted.
1596:/Library/DaisyToolchain/0.2.0/arm/arm-none-eabi/include/c++/10.3.1/bits/stl_deque.h ****        *  @return  An iterator that points to the inserted data.
1597:/Library/DaisyToolchain/0.2.0/arm/arm-none-eabi/include/c++/10.3.1/bits/stl_deque.h ****        *
1598:/Library/DaisyToolchain/0.2.0/arm/arm-none-eabi/include/c++/10.3.1/bits/stl_deque.h ****        *  This function will insert a copy of the given value before the
1599:/Library/DaisyToolchain/0.2.0/arm/arm-none-eabi/include/c++/10.3.1/bits/stl_deque.h ****        *  specified location.
1600:/Library/DaisyToolchain/0.2.0/arm/arm-none-eabi/include/c++/10.3.1/bits/stl_deque.h ****        */
1601:/Library/DaisyToolchain/0.2.0/arm/arm-none-eabi/include/c++/10.3.1/bits/stl_deque.h ****       iterator
1602:/Library/DaisyToolchain/0.2.0/arm/arm-none-eabi/include/c++/10.3.1/bits/stl_deque.h ****       insert(iterator __position, const value_type& __x);
1603:/Library/DaisyToolchain/0.2.0/arm/arm-none-eabi/include/c++/10.3.1/bits/stl_deque.h **** #endif
1604:/Library/DaisyToolchain/0.2.0/arm/arm-none-eabi/include/c++/10.3.1/bits/stl_deque.h **** 
1605:/Library/DaisyToolchain/0.2.0/arm/arm-none-eabi/include/c++/10.3.1/bits/stl_deque.h **** #if __cplusplus >= 201103L
1606:/Library/DaisyToolchain/0.2.0/arm/arm-none-eabi/include/c++/10.3.1/bits/stl_deque.h ****       /**
ARM GAS  /var/folders/s6/2bsynnl15rj0bwtb9pgx4dc00000gn/T//cc76hY55.s 			page 108


1607:/Library/DaisyToolchain/0.2.0/arm/arm-none-eabi/include/c++/10.3.1/bits/stl_deque.h ****        *  @brief  Inserts given rvalue into %deque before specified iterator.
1608:/Library/DaisyToolchain/0.2.0/arm/arm-none-eabi/include/c++/10.3.1/bits/stl_deque.h ****        *  @param  __position  A const_iterator into the %deque.
1609:/Library/DaisyToolchain/0.2.0/arm/arm-none-eabi/include/c++/10.3.1/bits/stl_deque.h ****        *  @param  __x  Data to be inserted.
1610:/Library/DaisyToolchain/0.2.0/arm/arm-none-eabi/include/c++/10.3.1/bits/stl_deque.h ****        *  @return  An iterator that points to the inserted data.
1611:/Library/DaisyToolchain/0.2.0/arm/arm-none-eabi/include/c++/10.3.1/bits/stl_deque.h ****        *
1612:/Library/DaisyToolchain/0.2.0/arm/arm-none-eabi/include/c++/10.3.1/bits/stl_deque.h ****        *  This function will insert a copy of the given rvalue before the
1613:/Library/DaisyToolchain/0.2.0/arm/arm-none-eabi/include/c++/10.3.1/bits/stl_deque.h ****        *  specified location.
1614:/Library/DaisyToolchain/0.2.0/arm/arm-none-eabi/include/c++/10.3.1/bits/stl_deque.h ****        */
1615:/Library/DaisyToolchain/0.2.0/arm/arm-none-eabi/include/c++/10.3.1/bits/stl_deque.h ****       iterator
1616:/Library/DaisyToolchain/0.2.0/arm/arm-none-eabi/include/c++/10.3.1/bits/stl_deque.h ****       insert(const_iterator __position, value_type&& __x)
1617:/Library/DaisyToolchain/0.2.0/arm/arm-none-eabi/include/c++/10.3.1/bits/stl_deque.h ****       { return emplace(__position, std::move(__x)); }
1618:/Library/DaisyToolchain/0.2.0/arm/arm-none-eabi/include/c++/10.3.1/bits/stl_deque.h **** 
1619:/Library/DaisyToolchain/0.2.0/arm/arm-none-eabi/include/c++/10.3.1/bits/stl_deque.h ****       /**
1620:/Library/DaisyToolchain/0.2.0/arm/arm-none-eabi/include/c++/10.3.1/bits/stl_deque.h ****        *  @brief  Inserts an initializer list into the %deque.
1621:/Library/DaisyToolchain/0.2.0/arm/arm-none-eabi/include/c++/10.3.1/bits/stl_deque.h ****        *  @param  __p  An iterator into the %deque.
1622:/Library/DaisyToolchain/0.2.0/arm/arm-none-eabi/include/c++/10.3.1/bits/stl_deque.h ****        *  @param  __l  An initializer_list.
1623:/Library/DaisyToolchain/0.2.0/arm/arm-none-eabi/include/c++/10.3.1/bits/stl_deque.h ****        *  @return  An iterator that points to the inserted data.
1624:/Library/DaisyToolchain/0.2.0/arm/arm-none-eabi/include/c++/10.3.1/bits/stl_deque.h ****        *
1625:/Library/DaisyToolchain/0.2.0/arm/arm-none-eabi/include/c++/10.3.1/bits/stl_deque.h ****        *  This function will insert copies of the data in the
1626:/Library/DaisyToolchain/0.2.0/arm/arm-none-eabi/include/c++/10.3.1/bits/stl_deque.h ****        *  initializer_list @a __l into the %deque before the location
1627:/Library/DaisyToolchain/0.2.0/arm/arm-none-eabi/include/c++/10.3.1/bits/stl_deque.h ****        *  specified by @a __p.  This is known as <em>list insert</em>.
1628:/Library/DaisyToolchain/0.2.0/arm/arm-none-eabi/include/c++/10.3.1/bits/stl_deque.h ****        */
1629:/Library/DaisyToolchain/0.2.0/arm/arm-none-eabi/include/c++/10.3.1/bits/stl_deque.h ****       iterator
1630:/Library/DaisyToolchain/0.2.0/arm/arm-none-eabi/include/c++/10.3.1/bits/stl_deque.h ****       insert(const_iterator __p, initializer_list<value_type> __l)
1631:/Library/DaisyToolchain/0.2.0/arm/arm-none-eabi/include/c++/10.3.1/bits/stl_deque.h ****       {
1632:/Library/DaisyToolchain/0.2.0/arm/arm-none-eabi/include/c++/10.3.1/bits/stl_deque.h **** 	auto __offset = __p - cbegin();
1633:/Library/DaisyToolchain/0.2.0/arm/arm-none-eabi/include/c++/10.3.1/bits/stl_deque.h **** 	_M_range_insert_aux(__p._M_const_cast(), __l.begin(), __l.end(),
1634:/Library/DaisyToolchain/0.2.0/arm/arm-none-eabi/include/c++/10.3.1/bits/stl_deque.h **** 			    std::random_access_iterator_tag());
1635:/Library/DaisyToolchain/0.2.0/arm/arm-none-eabi/include/c++/10.3.1/bits/stl_deque.h **** 	return begin() + __offset;
1636:/Library/DaisyToolchain/0.2.0/arm/arm-none-eabi/include/c++/10.3.1/bits/stl_deque.h ****       }
1637:/Library/DaisyToolchain/0.2.0/arm/arm-none-eabi/include/c++/10.3.1/bits/stl_deque.h **** 
1638:/Library/DaisyToolchain/0.2.0/arm/arm-none-eabi/include/c++/10.3.1/bits/stl_deque.h ****       /**
1639:/Library/DaisyToolchain/0.2.0/arm/arm-none-eabi/include/c++/10.3.1/bits/stl_deque.h ****        *  @brief  Inserts a number of copies of given data into the %deque.
1640:/Library/DaisyToolchain/0.2.0/arm/arm-none-eabi/include/c++/10.3.1/bits/stl_deque.h ****        *  @param  __position  A const_iterator into the %deque.
1641:/Library/DaisyToolchain/0.2.0/arm/arm-none-eabi/include/c++/10.3.1/bits/stl_deque.h ****        *  @param  __n  Number of elements to be inserted.
1642:/Library/DaisyToolchain/0.2.0/arm/arm-none-eabi/include/c++/10.3.1/bits/stl_deque.h ****        *  @param  __x  Data to be inserted.
1643:/Library/DaisyToolchain/0.2.0/arm/arm-none-eabi/include/c++/10.3.1/bits/stl_deque.h ****        *  @return  An iterator that points to the inserted data.
1644:/Library/DaisyToolchain/0.2.0/arm/arm-none-eabi/include/c++/10.3.1/bits/stl_deque.h ****        *
1645:/Library/DaisyToolchain/0.2.0/arm/arm-none-eabi/include/c++/10.3.1/bits/stl_deque.h ****        *  This function will insert a specified number of copies of the given
1646:/Library/DaisyToolchain/0.2.0/arm/arm-none-eabi/include/c++/10.3.1/bits/stl_deque.h ****        *  data before the location specified by @a __position.
1647:/Library/DaisyToolchain/0.2.0/arm/arm-none-eabi/include/c++/10.3.1/bits/stl_deque.h ****        */
1648:/Library/DaisyToolchain/0.2.0/arm/arm-none-eabi/include/c++/10.3.1/bits/stl_deque.h ****       iterator
1649:/Library/DaisyToolchain/0.2.0/arm/arm-none-eabi/include/c++/10.3.1/bits/stl_deque.h ****       insert(const_iterator __position, size_type __n, const value_type& __x)
1650:/Library/DaisyToolchain/0.2.0/arm/arm-none-eabi/include/c++/10.3.1/bits/stl_deque.h ****       {
1651:/Library/DaisyToolchain/0.2.0/arm/arm-none-eabi/include/c++/10.3.1/bits/stl_deque.h **** 	difference_type __offset = __position - cbegin();
1652:/Library/DaisyToolchain/0.2.0/arm/arm-none-eabi/include/c++/10.3.1/bits/stl_deque.h **** 	_M_fill_insert(__position._M_const_cast(), __n, __x);
1653:/Library/DaisyToolchain/0.2.0/arm/arm-none-eabi/include/c++/10.3.1/bits/stl_deque.h **** 	return begin() + __offset;
1654:/Library/DaisyToolchain/0.2.0/arm/arm-none-eabi/include/c++/10.3.1/bits/stl_deque.h ****       }
1655:/Library/DaisyToolchain/0.2.0/arm/arm-none-eabi/include/c++/10.3.1/bits/stl_deque.h **** #else
1656:/Library/DaisyToolchain/0.2.0/arm/arm-none-eabi/include/c++/10.3.1/bits/stl_deque.h ****       /**
1657:/Library/DaisyToolchain/0.2.0/arm/arm-none-eabi/include/c++/10.3.1/bits/stl_deque.h ****        *  @brief  Inserts a number of copies of given data into the %deque.
1658:/Library/DaisyToolchain/0.2.0/arm/arm-none-eabi/include/c++/10.3.1/bits/stl_deque.h ****        *  @param  __position  An iterator into the %deque.
1659:/Library/DaisyToolchain/0.2.0/arm/arm-none-eabi/include/c++/10.3.1/bits/stl_deque.h ****        *  @param  __n  Number of elements to be inserted.
1660:/Library/DaisyToolchain/0.2.0/arm/arm-none-eabi/include/c++/10.3.1/bits/stl_deque.h ****        *  @param  __x  Data to be inserted.
1661:/Library/DaisyToolchain/0.2.0/arm/arm-none-eabi/include/c++/10.3.1/bits/stl_deque.h ****        *
1662:/Library/DaisyToolchain/0.2.0/arm/arm-none-eabi/include/c++/10.3.1/bits/stl_deque.h ****        *  This function will insert a specified number of copies of the given
1663:/Library/DaisyToolchain/0.2.0/arm/arm-none-eabi/include/c++/10.3.1/bits/stl_deque.h ****        *  data before the location specified by @a __position.
ARM GAS  /var/folders/s6/2bsynnl15rj0bwtb9pgx4dc00000gn/T//cc76hY55.s 			page 109


1664:/Library/DaisyToolchain/0.2.0/arm/arm-none-eabi/include/c++/10.3.1/bits/stl_deque.h ****        */
1665:/Library/DaisyToolchain/0.2.0/arm/arm-none-eabi/include/c++/10.3.1/bits/stl_deque.h ****       void
1666:/Library/DaisyToolchain/0.2.0/arm/arm-none-eabi/include/c++/10.3.1/bits/stl_deque.h ****       insert(iterator __position, size_type __n, const value_type& __x)
1667:/Library/DaisyToolchain/0.2.0/arm/arm-none-eabi/include/c++/10.3.1/bits/stl_deque.h ****       { _M_fill_insert(__position, __n, __x); }
1668:/Library/DaisyToolchain/0.2.0/arm/arm-none-eabi/include/c++/10.3.1/bits/stl_deque.h **** #endif
1669:/Library/DaisyToolchain/0.2.0/arm/arm-none-eabi/include/c++/10.3.1/bits/stl_deque.h **** 
1670:/Library/DaisyToolchain/0.2.0/arm/arm-none-eabi/include/c++/10.3.1/bits/stl_deque.h **** #if __cplusplus >= 201103L
1671:/Library/DaisyToolchain/0.2.0/arm/arm-none-eabi/include/c++/10.3.1/bits/stl_deque.h ****       /**
1672:/Library/DaisyToolchain/0.2.0/arm/arm-none-eabi/include/c++/10.3.1/bits/stl_deque.h ****        *  @brief  Inserts a range into the %deque.
1673:/Library/DaisyToolchain/0.2.0/arm/arm-none-eabi/include/c++/10.3.1/bits/stl_deque.h ****        *  @param  __position  A const_iterator into the %deque.
1674:/Library/DaisyToolchain/0.2.0/arm/arm-none-eabi/include/c++/10.3.1/bits/stl_deque.h ****        *  @param  __first  An input iterator.
1675:/Library/DaisyToolchain/0.2.0/arm/arm-none-eabi/include/c++/10.3.1/bits/stl_deque.h ****        *  @param  __last   An input iterator.
1676:/Library/DaisyToolchain/0.2.0/arm/arm-none-eabi/include/c++/10.3.1/bits/stl_deque.h ****        *  @return  An iterator that points to the inserted data.
1677:/Library/DaisyToolchain/0.2.0/arm/arm-none-eabi/include/c++/10.3.1/bits/stl_deque.h ****        *
1678:/Library/DaisyToolchain/0.2.0/arm/arm-none-eabi/include/c++/10.3.1/bits/stl_deque.h ****        *  This function will insert copies of the data in the range
1679:/Library/DaisyToolchain/0.2.0/arm/arm-none-eabi/include/c++/10.3.1/bits/stl_deque.h ****        *  [__first,__last) into the %deque before the location specified
1680:/Library/DaisyToolchain/0.2.0/arm/arm-none-eabi/include/c++/10.3.1/bits/stl_deque.h ****        *  by @a __position.  This is known as <em>range insert</em>.
1681:/Library/DaisyToolchain/0.2.0/arm/arm-none-eabi/include/c++/10.3.1/bits/stl_deque.h ****        */
1682:/Library/DaisyToolchain/0.2.0/arm/arm-none-eabi/include/c++/10.3.1/bits/stl_deque.h ****       template<typename _InputIterator,
1683:/Library/DaisyToolchain/0.2.0/arm/arm-none-eabi/include/c++/10.3.1/bits/stl_deque.h **** 	       typename = std::_RequireInputIter<_InputIterator>>
1684:/Library/DaisyToolchain/0.2.0/arm/arm-none-eabi/include/c++/10.3.1/bits/stl_deque.h **** 	iterator
1685:/Library/DaisyToolchain/0.2.0/arm/arm-none-eabi/include/c++/10.3.1/bits/stl_deque.h **** 	insert(const_iterator __position, _InputIterator __first,
1686:/Library/DaisyToolchain/0.2.0/arm/arm-none-eabi/include/c++/10.3.1/bits/stl_deque.h **** 	       _InputIterator __last)
1687:/Library/DaisyToolchain/0.2.0/arm/arm-none-eabi/include/c++/10.3.1/bits/stl_deque.h **** 	{
1688:/Library/DaisyToolchain/0.2.0/arm/arm-none-eabi/include/c++/10.3.1/bits/stl_deque.h **** 	  difference_type __offset = __position - cbegin();
1689:/Library/DaisyToolchain/0.2.0/arm/arm-none-eabi/include/c++/10.3.1/bits/stl_deque.h **** 	  _M_range_insert_aux(__position._M_const_cast(), __first, __last,
1690:/Library/DaisyToolchain/0.2.0/arm/arm-none-eabi/include/c++/10.3.1/bits/stl_deque.h **** 			      std::__iterator_category(__first));
1691:/Library/DaisyToolchain/0.2.0/arm/arm-none-eabi/include/c++/10.3.1/bits/stl_deque.h **** 	  return begin() + __offset;
1692:/Library/DaisyToolchain/0.2.0/arm/arm-none-eabi/include/c++/10.3.1/bits/stl_deque.h **** 	}
1693:/Library/DaisyToolchain/0.2.0/arm/arm-none-eabi/include/c++/10.3.1/bits/stl_deque.h **** #else
1694:/Library/DaisyToolchain/0.2.0/arm/arm-none-eabi/include/c++/10.3.1/bits/stl_deque.h ****       /**
1695:/Library/DaisyToolchain/0.2.0/arm/arm-none-eabi/include/c++/10.3.1/bits/stl_deque.h ****        *  @brief  Inserts a range into the %deque.
1696:/Library/DaisyToolchain/0.2.0/arm/arm-none-eabi/include/c++/10.3.1/bits/stl_deque.h ****        *  @param  __position  An iterator into the %deque.
1697:/Library/DaisyToolchain/0.2.0/arm/arm-none-eabi/include/c++/10.3.1/bits/stl_deque.h ****        *  @param  __first  An input iterator.
1698:/Library/DaisyToolchain/0.2.0/arm/arm-none-eabi/include/c++/10.3.1/bits/stl_deque.h ****        *  @param  __last   An input iterator.
1699:/Library/DaisyToolchain/0.2.0/arm/arm-none-eabi/include/c++/10.3.1/bits/stl_deque.h ****        *
1700:/Library/DaisyToolchain/0.2.0/arm/arm-none-eabi/include/c++/10.3.1/bits/stl_deque.h ****        *  This function will insert copies of the data in the range
1701:/Library/DaisyToolchain/0.2.0/arm/arm-none-eabi/include/c++/10.3.1/bits/stl_deque.h ****        *  [__first,__last) into the %deque before the location specified
1702:/Library/DaisyToolchain/0.2.0/arm/arm-none-eabi/include/c++/10.3.1/bits/stl_deque.h ****        *  by @a __position.  This is known as <em>range insert</em>.
1703:/Library/DaisyToolchain/0.2.0/arm/arm-none-eabi/include/c++/10.3.1/bits/stl_deque.h ****        */
1704:/Library/DaisyToolchain/0.2.0/arm/arm-none-eabi/include/c++/10.3.1/bits/stl_deque.h ****       template<typename _InputIterator>
1705:/Library/DaisyToolchain/0.2.0/arm/arm-none-eabi/include/c++/10.3.1/bits/stl_deque.h **** 	void
1706:/Library/DaisyToolchain/0.2.0/arm/arm-none-eabi/include/c++/10.3.1/bits/stl_deque.h **** 	insert(iterator __position, _InputIterator __first,
1707:/Library/DaisyToolchain/0.2.0/arm/arm-none-eabi/include/c++/10.3.1/bits/stl_deque.h **** 	       _InputIterator __last)
1708:/Library/DaisyToolchain/0.2.0/arm/arm-none-eabi/include/c++/10.3.1/bits/stl_deque.h **** 	{
1709:/Library/DaisyToolchain/0.2.0/arm/arm-none-eabi/include/c++/10.3.1/bits/stl_deque.h **** 	  // Check whether it's an integral type.  If so, it's not an iterator.
1710:/Library/DaisyToolchain/0.2.0/arm/arm-none-eabi/include/c++/10.3.1/bits/stl_deque.h **** 	  typedef typename std::__is_integer<_InputIterator>::__type _Integral;
1711:/Library/DaisyToolchain/0.2.0/arm/arm-none-eabi/include/c++/10.3.1/bits/stl_deque.h **** 	  _M_insert_dispatch(__position, __first, __last, _Integral());
1712:/Library/DaisyToolchain/0.2.0/arm/arm-none-eabi/include/c++/10.3.1/bits/stl_deque.h **** 	}
1713:/Library/DaisyToolchain/0.2.0/arm/arm-none-eabi/include/c++/10.3.1/bits/stl_deque.h **** #endif
1714:/Library/DaisyToolchain/0.2.0/arm/arm-none-eabi/include/c++/10.3.1/bits/stl_deque.h **** 
1715:/Library/DaisyToolchain/0.2.0/arm/arm-none-eabi/include/c++/10.3.1/bits/stl_deque.h ****       /**
1716:/Library/DaisyToolchain/0.2.0/arm/arm-none-eabi/include/c++/10.3.1/bits/stl_deque.h ****        *  @brief  Remove element at given position.
1717:/Library/DaisyToolchain/0.2.0/arm/arm-none-eabi/include/c++/10.3.1/bits/stl_deque.h ****        *  @param  __position  Iterator pointing to element to be erased.
1718:/Library/DaisyToolchain/0.2.0/arm/arm-none-eabi/include/c++/10.3.1/bits/stl_deque.h ****        *  @return  An iterator pointing to the next element (or end()).
1719:/Library/DaisyToolchain/0.2.0/arm/arm-none-eabi/include/c++/10.3.1/bits/stl_deque.h ****        *
1720:/Library/DaisyToolchain/0.2.0/arm/arm-none-eabi/include/c++/10.3.1/bits/stl_deque.h ****        *  This function will erase the element at the given position and thus
ARM GAS  /var/folders/s6/2bsynnl15rj0bwtb9pgx4dc00000gn/T//cc76hY55.s 			page 110


1721:/Library/DaisyToolchain/0.2.0/arm/arm-none-eabi/include/c++/10.3.1/bits/stl_deque.h ****        *  shorten the %deque by one.
1722:/Library/DaisyToolchain/0.2.0/arm/arm-none-eabi/include/c++/10.3.1/bits/stl_deque.h ****        *
1723:/Library/DaisyToolchain/0.2.0/arm/arm-none-eabi/include/c++/10.3.1/bits/stl_deque.h ****        *  The user is cautioned that
1724:/Library/DaisyToolchain/0.2.0/arm/arm-none-eabi/include/c++/10.3.1/bits/stl_deque.h ****        *  this function only erases the element, and that if the element is
1725:/Library/DaisyToolchain/0.2.0/arm/arm-none-eabi/include/c++/10.3.1/bits/stl_deque.h ****        *  itself a pointer, the pointed-to memory is not touched in any way.
1726:/Library/DaisyToolchain/0.2.0/arm/arm-none-eabi/include/c++/10.3.1/bits/stl_deque.h ****        *  Managing the pointer is the user's responsibility.
1727:/Library/DaisyToolchain/0.2.0/arm/arm-none-eabi/include/c++/10.3.1/bits/stl_deque.h ****        */
1728:/Library/DaisyToolchain/0.2.0/arm/arm-none-eabi/include/c++/10.3.1/bits/stl_deque.h ****       iterator
1729:/Library/DaisyToolchain/0.2.0/arm/arm-none-eabi/include/c++/10.3.1/bits/stl_deque.h **** #if __cplusplus >= 201103L
1730:/Library/DaisyToolchain/0.2.0/arm/arm-none-eabi/include/c++/10.3.1/bits/stl_deque.h ****       erase(const_iterator __position)
1731:/Library/DaisyToolchain/0.2.0/arm/arm-none-eabi/include/c++/10.3.1/bits/stl_deque.h **** #else
1732:/Library/DaisyToolchain/0.2.0/arm/arm-none-eabi/include/c++/10.3.1/bits/stl_deque.h ****       erase(iterator __position)
1733:/Library/DaisyToolchain/0.2.0/arm/arm-none-eabi/include/c++/10.3.1/bits/stl_deque.h **** #endif
1734:/Library/DaisyToolchain/0.2.0/arm/arm-none-eabi/include/c++/10.3.1/bits/stl_deque.h ****       { return _M_erase(__position._M_const_cast()); }
1735:/Library/DaisyToolchain/0.2.0/arm/arm-none-eabi/include/c++/10.3.1/bits/stl_deque.h **** 
1736:/Library/DaisyToolchain/0.2.0/arm/arm-none-eabi/include/c++/10.3.1/bits/stl_deque.h ****       /**
1737:/Library/DaisyToolchain/0.2.0/arm/arm-none-eabi/include/c++/10.3.1/bits/stl_deque.h ****        *  @brief  Remove a range of elements.
1738:/Library/DaisyToolchain/0.2.0/arm/arm-none-eabi/include/c++/10.3.1/bits/stl_deque.h ****        *  @param  __first  Iterator pointing to the first element to be erased.
1739:/Library/DaisyToolchain/0.2.0/arm/arm-none-eabi/include/c++/10.3.1/bits/stl_deque.h ****        *  @param  __last  Iterator pointing to one past the last element to be
1740:/Library/DaisyToolchain/0.2.0/arm/arm-none-eabi/include/c++/10.3.1/bits/stl_deque.h ****        *                erased.
1741:/Library/DaisyToolchain/0.2.0/arm/arm-none-eabi/include/c++/10.3.1/bits/stl_deque.h ****        *  @return  An iterator pointing to the element pointed to by @a last
1742:/Library/DaisyToolchain/0.2.0/arm/arm-none-eabi/include/c++/10.3.1/bits/stl_deque.h ****        *           prior to erasing (or end()).
1743:/Library/DaisyToolchain/0.2.0/arm/arm-none-eabi/include/c++/10.3.1/bits/stl_deque.h ****        *
1744:/Library/DaisyToolchain/0.2.0/arm/arm-none-eabi/include/c++/10.3.1/bits/stl_deque.h ****        *  This function will erase the elements in the range
1745:/Library/DaisyToolchain/0.2.0/arm/arm-none-eabi/include/c++/10.3.1/bits/stl_deque.h ****        *  [__first,__last) and shorten the %deque accordingly.
1746:/Library/DaisyToolchain/0.2.0/arm/arm-none-eabi/include/c++/10.3.1/bits/stl_deque.h ****        *
1747:/Library/DaisyToolchain/0.2.0/arm/arm-none-eabi/include/c++/10.3.1/bits/stl_deque.h ****        *  The user is cautioned that
1748:/Library/DaisyToolchain/0.2.0/arm/arm-none-eabi/include/c++/10.3.1/bits/stl_deque.h ****        *  this function only erases the elements, and that if the elements
1749:/Library/DaisyToolchain/0.2.0/arm/arm-none-eabi/include/c++/10.3.1/bits/stl_deque.h ****        *  themselves are pointers, the pointed-to memory is not touched in any
1750:/Library/DaisyToolchain/0.2.0/arm/arm-none-eabi/include/c++/10.3.1/bits/stl_deque.h ****        *  way.  Managing the pointer is the user's responsibility.
1751:/Library/DaisyToolchain/0.2.0/arm/arm-none-eabi/include/c++/10.3.1/bits/stl_deque.h ****        */
1752:/Library/DaisyToolchain/0.2.0/arm/arm-none-eabi/include/c++/10.3.1/bits/stl_deque.h ****       iterator
1753:/Library/DaisyToolchain/0.2.0/arm/arm-none-eabi/include/c++/10.3.1/bits/stl_deque.h **** #if __cplusplus >= 201103L
1754:/Library/DaisyToolchain/0.2.0/arm/arm-none-eabi/include/c++/10.3.1/bits/stl_deque.h ****       erase(const_iterator __first, const_iterator __last)
1755:/Library/DaisyToolchain/0.2.0/arm/arm-none-eabi/include/c++/10.3.1/bits/stl_deque.h **** #else
1756:/Library/DaisyToolchain/0.2.0/arm/arm-none-eabi/include/c++/10.3.1/bits/stl_deque.h ****       erase(iterator __first, iterator __last)
1757:/Library/DaisyToolchain/0.2.0/arm/arm-none-eabi/include/c++/10.3.1/bits/stl_deque.h **** #endif
1758:/Library/DaisyToolchain/0.2.0/arm/arm-none-eabi/include/c++/10.3.1/bits/stl_deque.h ****       { return _M_erase(__first._M_const_cast(), __last._M_const_cast()); }
1759:/Library/DaisyToolchain/0.2.0/arm/arm-none-eabi/include/c++/10.3.1/bits/stl_deque.h **** 
1760:/Library/DaisyToolchain/0.2.0/arm/arm-none-eabi/include/c++/10.3.1/bits/stl_deque.h ****       /**
1761:/Library/DaisyToolchain/0.2.0/arm/arm-none-eabi/include/c++/10.3.1/bits/stl_deque.h ****        *  @brief  Swaps data with another %deque.
1762:/Library/DaisyToolchain/0.2.0/arm/arm-none-eabi/include/c++/10.3.1/bits/stl_deque.h ****        *  @param  __x  A %deque of the same element and allocator types.
1763:/Library/DaisyToolchain/0.2.0/arm/arm-none-eabi/include/c++/10.3.1/bits/stl_deque.h ****        *
1764:/Library/DaisyToolchain/0.2.0/arm/arm-none-eabi/include/c++/10.3.1/bits/stl_deque.h ****        *  This exchanges the elements between two deques in constant time.
1765:/Library/DaisyToolchain/0.2.0/arm/arm-none-eabi/include/c++/10.3.1/bits/stl_deque.h ****        *  (Four pointers, so it should be quite fast.)
1766:/Library/DaisyToolchain/0.2.0/arm/arm-none-eabi/include/c++/10.3.1/bits/stl_deque.h ****        *  Note that the global std::swap() function is specialized such that
1767:/Library/DaisyToolchain/0.2.0/arm/arm-none-eabi/include/c++/10.3.1/bits/stl_deque.h ****        *  std::swap(d1,d2) will feed to this function.
1768:/Library/DaisyToolchain/0.2.0/arm/arm-none-eabi/include/c++/10.3.1/bits/stl_deque.h ****        *
1769:/Library/DaisyToolchain/0.2.0/arm/arm-none-eabi/include/c++/10.3.1/bits/stl_deque.h ****        *  Whether the allocators are swapped depends on the allocator traits.
1770:/Library/DaisyToolchain/0.2.0/arm/arm-none-eabi/include/c++/10.3.1/bits/stl_deque.h ****        */
1771:/Library/DaisyToolchain/0.2.0/arm/arm-none-eabi/include/c++/10.3.1/bits/stl_deque.h ****       void
1772:/Library/DaisyToolchain/0.2.0/arm/arm-none-eabi/include/c++/10.3.1/bits/stl_deque.h ****       swap(deque& __x) _GLIBCXX_NOEXCEPT
1773:/Library/DaisyToolchain/0.2.0/arm/arm-none-eabi/include/c++/10.3.1/bits/stl_deque.h ****       {
1774:/Library/DaisyToolchain/0.2.0/arm/arm-none-eabi/include/c++/10.3.1/bits/stl_deque.h **** #if __cplusplus >= 201103L
1775:/Library/DaisyToolchain/0.2.0/arm/arm-none-eabi/include/c++/10.3.1/bits/stl_deque.h **** 	__glibcxx_assert(_Alloc_traits::propagate_on_container_swap::value
1776:/Library/DaisyToolchain/0.2.0/arm/arm-none-eabi/include/c++/10.3.1/bits/stl_deque.h **** 			 || _M_get_Tp_allocator() == __x._M_get_Tp_allocator());
1777:/Library/DaisyToolchain/0.2.0/arm/arm-none-eabi/include/c++/10.3.1/bits/stl_deque.h **** #endif
ARM GAS  /var/folders/s6/2bsynnl15rj0bwtb9pgx4dc00000gn/T//cc76hY55.s 			page 111


1778:/Library/DaisyToolchain/0.2.0/arm/arm-none-eabi/include/c++/10.3.1/bits/stl_deque.h **** 	_M_impl._M_swap_data(__x._M_impl);
1779:/Library/DaisyToolchain/0.2.0/arm/arm-none-eabi/include/c++/10.3.1/bits/stl_deque.h **** 	_Alloc_traits::_S_on_swap(_M_get_Tp_allocator(),
1780:/Library/DaisyToolchain/0.2.0/arm/arm-none-eabi/include/c++/10.3.1/bits/stl_deque.h **** 				  __x._M_get_Tp_allocator());
1781:/Library/DaisyToolchain/0.2.0/arm/arm-none-eabi/include/c++/10.3.1/bits/stl_deque.h ****       }
1782:/Library/DaisyToolchain/0.2.0/arm/arm-none-eabi/include/c++/10.3.1/bits/stl_deque.h **** 
1783:/Library/DaisyToolchain/0.2.0/arm/arm-none-eabi/include/c++/10.3.1/bits/stl_deque.h ****       /**
1784:/Library/DaisyToolchain/0.2.0/arm/arm-none-eabi/include/c++/10.3.1/bits/stl_deque.h ****        *  Erases all the elements.  Note that this function only erases the
1785:/Library/DaisyToolchain/0.2.0/arm/arm-none-eabi/include/c++/10.3.1/bits/stl_deque.h ****        *  elements, and that if the elements themselves are pointers, the
1786:/Library/DaisyToolchain/0.2.0/arm/arm-none-eabi/include/c++/10.3.1/bits/stl_deque.h ****        *  pointed-to memory is not touched in any way.  Managing the pointer is
1787:/Library/DaisyToolchain/0.2.0/arm/arm-none-eabi/include/c++/10.3.1/bits/stl_deque.h ****        *  the user's responsibility.
1788:/Library/DaisyToolchain/0.2.0/arm/arm-none-eabi/include/c++/10.3.1/bits/stl_deque.h ****        */
1789:/Library/DaisyToolchain/0.2.0/arm/arm-none-eabi/include/c++/10.3.1/bits/stl_deque.h ****       void
1790:/Library/DaisyToolchain/0.2.0/arm/arm-none-eabi/include/c++/10.3.1/bits/stl_deque.h ****       clear() _GLIBCXX_NOEXCEPT
1791:/Library/DaisyToolchain/0.2.0/arm/arm-none-eabi/include/c++/10.3.1/bits/stl_deque.h ****       { _M_erase_at_end(begin()); }
1792:/Library/DaisyToolchain/0.2.0/arm/arm-none-eabi/include/c++/10.3.1/bits/stl_deque.h **** 
1793:/Library/DaisyToolchain/0.2.0/arm/arm-none-eabi/include/c++/10.3.1/bits/stl_deque.h ****     protected:
1794:/Library/DaisyToolchain/0.2.0/arm/arm-none-eabi/include/c++/10.3.1/bits/stl_deque.h ****       // Internal constructor functions follow.
1795:/Library/DaisyToolchain/0.2.0/arm/arm-none-eabi/include/c++/10.3.1/bits/stl_deque.h **** 
1796:/Library/DaisyToolchain/0.2.0/arm/arm-none-eabi/include/c++/10.3.1/bits/stl_deque.h **** #if __cplusplus < 201103L
1797:/Library/DaisyToolchain/0.2.0/arm/arm-none-eabi/include/c++/10.3.1/bits/stl_deque.h ****       // called by the range constructor to implement [23.1.1]/9
1798:/Library/DaisyToolchain/0.2.0/arm/arm-none-eabi/include/c++/10.3.1/bits/stl_deque.h **** 
1799:/Library/DaisyToolchain/0.2.0/arm/arm-none-eabi/include/c++/10.3.1/bits/stl_deque.h ****       // _GLIBCXX_RESOLVE_LIB_DEFECTS
1800:/Library/DaisyToolchain/0.2.0/arm/arm-none-eabi/include/c++/10.3.1/bits/stl_deque.h ****       // 438. Ambiguity in the "do the right thing" clause
1801:/Library/DaisyToolchain/0.2.0/arm/arm-none-eabi/include/c++/10.3.1/bits/stl_deque.h ****       template<typename _Integer>
1802:/Library/DaisyToolchain/0.2.0/arm/arm-none-eabi/include/c++/10.3.1/bits/stl_deque.h **** 	void
1803:/Library/DaisyToolchain/0.2.0/arm/arm-none-eabi/include/c++/10.3.1/bits/stl_deque.h **** 	_M_initialize_dispatch(_Integer __n, _Integer __x, __true_type)
1804:/Library/DaisyToolchain/0.2.0/arm/arm-none-eabi/include/c++/10.3.1/bits/stl_deque.h **** 	{
1805:/Library/DaisyToolchain/0.2.0/arm/arm-none-eabi/include/c++/10.3.1/bits/stl_deque.h **** 	  _M_initialize_map(_S_check_init_len(static_cast<size_type>(__n),
1806:/Library/DaisyToolchain/0.2.0/arm/arm-none-eabi/include/c++/10.3.1/bits/stl_deque.h **** 					      _M_get_Tp_allocator()));
1807:/Library/DaisyToolchain/0.2.0/arm/arm-none-eabi/include/c++/10.3.1/bits/stl_deque.h **** 	  _M_fill_initialize(__x);
1808:/Library/DaisyToolchain/0.2.0/arm/arm-none-eabi/include/c++/10.3.1/bits/stl_deque.h **** 	}
1809:/Library/DaisyToolchain/0.2.0/arm/arm-none-eabi/include/c++/10.3.1/bits/stl_deque.h **** 
1810:/Library/DaisyToolchain/0.2.0/arm/arm-none-eabi/include/c++/10.3.1/bits/stl_deque.h ****       // called by the range constructor to implement [23.1.1]/9
1811:/Library/DaisyToolchain/0.2.0/arm/arm-none-eabi/include/c++/10.3.1/bits/stl_deque.h ****       template<typename _InputIterator>
1812:/Library/DaisyToolchain/0.2.0/arm/arm-none-eabi/include/c++/10.3.1/bits/stl_deque.h **** 	void
1813:/Library/DaisyToolchain/0.2.0/arm/arm-none-eabi/include/c++/10.3.1/bits/stl_deque.h **** 	_M_initialize_dispatch(_InputIterator __first, _InputIterator __last,
1814:/Library/DaisyToolchain/0.2.0/arm/arm-none-eabi/include/c++/10.3.1/bits/stl_deque.h **** 			       __false_type)
1815:/Library/DaisyToolchain/0.2.0/arm/arm-none-eabi/include/c++/10.3.1/bits/stl_deque.h **** 	{
1816:/Library/DaisyToolchain/0.2.0/arm/arm-none-eabi/include/c++/10.3.1/bits/stl_deque.h **** 	  _M_range_initialize(__first, __last,
1817:/Library/DaisyToolchain/0.2.0/arm/arm-none-eabi/include/c++/10.3.1/bits/stl_deque.h **** 			      std::__iterator_category(__first));
1818:/Library/DaisyToolchain/0.2.0/arm/arm-none-eabi/include/c++/10.3.1/bits/stl_deque.h **** 	}
1819:/Library/DaisyToolchain/0.2.0/arm/arm-none-eabi/include/c++/10.3.1/bits/stl_deque.h **** #endif
1820:/Library/DaisyToolchain/0.2.0/arm/arm-none-eabi/include/c++/10.3.1/bits/stl_deque.h **** 
1821:/Library/DaisyToolchain/0.2.0/arm/arm-none-eabi/include/c++/10.3.1/bits/stl_deque.h ****       static size_t
1822:/Library/DaisyToolchain/0.2.0/arm/arm-none-eabi/include/c++/10.3.1/bits/stl_deque.h ****       _S_check_init_len(size_t __n, const allocator_type& __a)
1823:/Library/DaisyToolchain/0.2.0/arm/arm-none-eabi/include/c++/10.3.1/bits/stl_deque.h ****       {
1824:/Library/DaisyToolchain/0.2.0/arm/arm-none-eabi/include/c++/10.3.1/bits/stl_deque.h **** 	if (__n > _S_max_size(__a))
1825:/Library/DaisyToolchain/0.2.0/arm/arm-none-eabi/include/c++/10.3.1/bits/stl_deque.h **** 	  __throw_length_error(
1826:/Library/DaisyToolchain/0.2.0/arm/arm-none-eabi/include/c++/10.3.1/bits/stl_deque.h **** 	      __N("cannot create std::deque larger than max_size()"));
1827:/Library/DaisyToolchain/0.2.0/arm/arm-none-eabi/include/c++/10.3.1/bits/stl_deque.h **** 	return __n;
1828:/Library/DaisyToolchain/0.2.0/arm/arm-none-eabi/include/c++/10.3.1/bits/stl_deque.h ****       }
1829:/Library/DaisyToolchain/0.2.0/arm/arm-none-eabi/include/c++/10.3.1/bits/stl_deque.h **** 
1830:/Library/DaisyToolchain/0.2.0/arm/arm-none-eabi/include/c++/10.3.1/bits/stl_deque.h ****       static size_type
1831:/Library/DaisyToolchain/0.2.0/arm/arm-none-eabi/include/c++/10.3.1/bits/stl_deque.h ****       _S_max_size(const _Tp_alloc_type& __a) _GLIBCXX_NOEXCEPT
1832:/Library/DaisyToolchain/0.2.0/arm/arm-none-eabi/include/c++/10.3.1/bits/stl_deque.h ****       {
1833:/Library/DaisyToolchain/0.2.0/arm/arm-none-eabi/include/c++/10.3.1/bits/stl_deque.h **** 	const size_t __diffmax = __gnu_cxx::__numeric_traits<ptrdiff_t>::__max;
1834:/Library/DaisyToolchain/0.2.0/arm/arm-none-eabi/include/c++/10.3.1/bits/stl_deque.h **** 	const size_t __allocmax = _Alloc_traits::max_size(__a);
ARM GAS  /var/folders/s6/2bsynnl15rj0bwtb9pgx4dc00000gn/T//cc76hY55.s 			page 112


1835:/Library/DaisyToolchain/0.2.0/arm/arm-none-eabi/include/c++/10.3.1/bits/stl_deque.h **** 	return (std::min)(__diffmax, __allocmax);
1836:/Library/DaisyToolchain/0.2.0/arm/arm-none-eabi/include/c++/10.3.1/bits/stl_deque.h ****       }
1837:/Library/DaisyToolchain/0.2.0/arm/arm-none-eabi/include/c++/10.3.1/bits/stl_deque.h **** 
1838:/Library/DaisyToolchain/0.2.0/arm/arm-none-eabi/include/c++/10.3.1/bits/stl_deque.h ****       // called by the second initialize_dispatch above
1839:/Library/DaisyToolchain/0.2.0/arm/arm-none-eabi/include/c++/10.3.1/bits/stl_deque.h ****       ///@{
1840:/Library/DaisyToolchain/0.2.0/arm/arm-none-eabi/include/c++/10.3.1/bits/stl_deque.h ****       /**
1841:/Library/DaisyToolchain/0.2.0/arm/arm-none-eabi/include/c++/10.3.1/bits/stl_deque.h ****        *  @brief Fills the deque with whatever is in [first,last).
1842:/Library/DaisyToolchain/0.2.0/arm/arm-none-eabi/include/c++/10.3.1/bits/stl_deque.h ****        *  @param  __first  An input iterator.
1843:/Library/DaisyToolchain/0.2.0/arm/arm-none-eabi/include/c++/10.3.1/bits/stl_deque.h ****        *  @param  __last  An input iterator.
1844:/Library/DaisyToolchain/0.2.0/arm/arm-none-eabi/include/c++/10.3.1/bits/stl_deque.h ****        *  @return   Nothing.
1845:/Library/DaisyToolchain/0.2.0/arm/arm-none-eabi/include/c++/10.3.1/bits/stl_deque.h ****        *
1846:/Library/DaisyToolchain/0.2.0/arm/arm-none-eabi/include/c++/10.3.1/bits/stl_deque.h ****        *  If the iterators are actually forward iterators (or better), then the
1847:/Library/DaisyToolchain/0.2.0/arm/arm-none-eabi/include/c++/10.3.1/bits/stl_deque.h ****        *  memory layout can be done all at once.  Else we move forward using
1848:/Library/DaisyToolchain/0.2.0/arm/arm-none-eabi/include/c++/10.3.1/bits/stl_deque.h ****        *  push_back on each value from the iterator.
1849:/Library/DaisyToolchain/0.2.0/arm/arm-none-eabi/include/c++/10.3.1/bits/stl_deque.h ****        */
1850:/Library/DaisyToolchain/0.2.0/arm/arm-none-eabi/include/c++/10.3.1/bits/stl_deque.h ****       template<typename _InputIterator>
1851:/Library/DaisyToolchain/0.2.0/arm/arm-none-eabi/include/c++/10.3.1/bits/stl_deque.h **** 	void
1852:/Library/DaisyToolchain/0.2.0/arm/arm-none-eabi/include/c++/10.3.1/bits/stl_deque.h **** 	_M_range_initialize(_InputIterator __first, _InputIterator __last,
1853:/Library/DaisyToolchain/0.2.0/arm/arm-none-eabi/include/c++/10.3.1/bits/stl_deque.h **** 			    std::input_iterator_tag);
1854:/Library/DaisyToolchain/0.2.0/arm/arm-none-eabi/include/c++/10.3.1/bits/stl_deque.h **** 
1855:/Library/DaisyToolchain/0.2.0/arm/arm-none-eabi/include/c++/10.3.1/bits/stl_deque.h ****       // called by the second initialize_dispatch above
1856:/Library/DaisyToolchain/0.2.0/arm/arm-none-eabi/include/c++/10.3.1/bits/stl_deque.h ****       template<typename _ForwardIterator>
1857:/Library/DaisyToolchain/0.2.0/arm/arm-none-eabi/include/c++/10.3.1/bits/stl_deque.h **** 	void
1858:/Library/DaisyToolchain/0.2.0/arm/arm-none-eabi/include/c++/10.3.1/bits/stl_deque.h **** 	_M_range_initialize(_ForwardIterator __first, _ForwardIterator __last,
1859:/Library/DaisyToolchain/0.2.0/arm/arm-none-eabi/include/c++/10.3.1/bits/stl_deque.h **** 			    std::forward_iterator_tag);
1860:/Library/DaisyToolchain/0.2.0/arm/arm-none-eabi/include/c++/10.3.1/bits/stl_deque.h ****       ///@}
1861:/Library/DaisyToolchain/0.2.0/arm/arm-none-eabi/include/c++/10.3.1/bits/stl_deque.h **** 
1862:/Library/DaisyToolchain/0.2.0/arm/arm-none-eabi/include/c++/10.3.1/bits/stl_deque.h ****       /**
1863:/Library/DaisyToolchain/0.2.0/arm/arm-none-eabi/include/c++/10.3.1/bits/stl_deque.h ****        *  @brief Fills the %deque with copies of value.
1864:/Library/DaisyToolchain/0.2.0/arm/arm-none-eabi/include/c++/10.3.1/bits/stl_deque.h ****        *  @param  __value  Initial value.
1865:/Library/DaisyToolchain/0.2.0/arm/arm-none-eabi/include/c++/10.3.1/bits/stl_deque.h ****        *  @return   Nothing.
1866:/Library/DaisyToolchain/0.2.0/arm/arm-none-eabi/include/c++/10.3.1/bits/stl_deque.h ****        *  @pre _M_start and _M_finish have already been initialized,
1867:/Library/DaisyToolchain/0.2.0/arm/arm-none-eabi/include/c++/10.3.1/bits/stl_deque.h ****        *  but none of the %deque's elements have yet been constructed.
1868:/Library/DaisyToolchain/0.2.0/arm/arm-none-eabi/include/c++/10.3.1/bits/stl_deque.h ****        *
1869:/Library/DaisyToolchain/0.2.0/arm/arm-none-eabi/include/c++/10.3.1/bits/stl_deque.h ****        *  This function is called only when the user provides an explicit size
1870:/Library/DaisyToolchain/0.2.0/arm/arm-none-eabi/include/c++/10.3.1/bits/stl_deque.h ****        *  (with or without an explicit exemplar value).
1871:/Library/DaisyToolchain/0.2.0/arm/arm-none-eabi/include/c++/10.3.1/bits/stl_deque.h ****        */
1872:/Library/DaisyToolchain/0.2.0/arm/arm-none-eabi/include/c++/10.3.1/bits/stl_deque.h ****       void
1873:/Library/DaisyToolchain/0.2.0/arm/arm-none-eabi/include/c++/10.3.1/bits/stl_deque.h ****       _M_fill_initialize(const value_type& __value);
1874:/Library/DaisyToolchain/0.2.0/arm/arm-none-eabi/include/c++/10.3.1/bits/stl_deque.h **** 
1875:/Library/DaisyToolchain/0.2.0/arm/arm-none-eabi/include/c++/10.3.1/bits/stl_deque.h **** #if __cplusplus >= 201103L
1876:/Library/DaisyToolchain/0.2.0/arm/arm-none-eabi/include/c++/10.3.1/bits/stl_deque.h ****       // called by deque(n).
1877:/Library/DaisyToolchain/0.2.0/arm/arm-none-eabi/include/c++/10.3.1/bits/stl_deque.h ****       void
1878:/Library/DaisyToolchain/0.2.0/arm/arm-none-eabi/include/c++/10.3.1/bits/stl_deque.h ****       _M_default_initialize();
1879:/Library/DaisyToolchain/0.2.0/arm/arm-none-eabi/include/c++/10.3.1/bits/stl_deque.h **** #endif
1880:/Library/DaisyToolchain/0.2.0/arm/arm-none-eabi/include/c++/10.3.1/bits/stl_deque.h **** 
1881:/Library/DaisyToolchain/0.2.0/arm/arm-none-eabi/include/c++/10.3.1/bits/stl_deque.h ****       // Internal assign functions follow.  The *_aux functions do the actual
1882:/Library/DaisyToolchain/0.2.0/arm/arm-none-eabi/include/c++/10.3.1/bits/stl_deque.h ****       // assignment work for the range versions.
1883:/Library/DaisyToolchain/0.2.0/arm/arm-none-eabi/include/c++/10.3.1/bits/stl_deque.h **** 
1884:/Library/DaisyToolchain/0.2.0/arm/arm-none-eabi/include/c++/10.3.1/bits/stl_deque.h **** #if __cplusplus < 201103L
1885:/Library/DaisyToolchain/0.2.0/arm/arm-none-eabi/include/c++/10.3.1/bits/stl_deque.h ****       // called by the range assign to implement [23.1.1]/9
1886:/Library/DaisyToolchain/0.2.0/arm/arm-none-eabi/include/c++/10.3.1/bits/stl_deque.h **** 
1887:/Library/DaisyToolchain/0.2.0/arm/arm-none-eabi/include/c++/10.3.1/bits/stl_deque.h ****       // _GLIBCXX_RESOLVE_LIB_DEFECTS
1888:/Library/DaisyToolchain/0.2.0/arm/arm-none-eabi/include/c++/10.3.1/bits/stl_deque.h ****       // 438. Ambiguity in the "do the right thing" clause
1889:/Library/DaisyToolchain/0.2.0/arm/arm-none-eabi/include/c++/10.3.1/bits/stl_deque.h ****       template<typename _Integer>
1890:/Library/DaisyToolchain/0.2.0/arm/arm-none-eabi/include/c++/10.3.1/bits/stl_deque.h **** 	void
1891:/Library/DaisyToolchain/0.2.0/arm/arm-none-eabi/include/c++/10.3.1/bits/stl_deque.h **** 	_M_assign_dispatch(_Integer __n, _Integer __val, __true_type)
ARM GAS  /var/folders/s6/2bsynnl15rj0bwtb9pgx4dc00000gn/T//cc76hY55.s 			page 113


1892:/Library/DaisyToolchain/0.2.0/arm/arm-none-eabi/include/c++/10.3.1/bits/stl_deque.h **** 	{ _M_fill_assign(__n, __val); }
1893:/Library/DaisyToolchain/0.2.0/arm/arm-none-eabi/include/c++/10.3.1/bits/stl_deque.h **** 
1894:/Library/DaisyToolchain/0.2.0/arm/arm-none-eabi/include/c++/10.3.1/bits/stl_deque.h ****       // called by the range assign to implement [23.1.1]/9
1895:/Library/DaisyToolchain/0.2.0/arm/arm-none-eabi/include/c++/10.3.1/bits/stl_deque.h ****       template<typename _InputIterator>
1896:/Library/DaisyToolchain/0.2.0/arm/arm-none-eabi/include/c++/10.3.1/bits/stl_deque.h **** 	void
1897:/Library/DaisyToolchain/0.2.0/arm/arm-none-eabi/include/c++/10.3.1/bits/stl_deque.h **** 	_M_assign_dispatch(_InputIterator __first, _InputIterator __last,
1898:/Library/DaisyToolchain/0.2.0/arm/arm-none-eabi/include/c++/10.3.1/bits/stl_deque.h **** 			   __false_type)
1899:/Library/DaisyToolchain/0.2.0/arm/arm-none-eabi/include/c++/10.3.1/bits/stl_deque.h **** 	{ _M_assign_aux(__first, __last, std::__iterator_category(__first)); }
1900:/Library/DaisyToolchain/0.2.0/arm/arm-none-eabi/include/c++/10.3.1/bits/stl_deque.h **** #endif
1901:/Library/DaisyToolchain/0.2.0/arm/arm-none-eabi/include/c++/10.3.1/bits/stl_deque.h **** 
1902:/Library/DaisyToolchain/0.2.0/arm/arm-none-eabi/include/c++/10.3.1/bits/stl_deque.h ****       // called by the second assign_dispatch above
1903:/Library/DaisyToolchain/0.2.0/arm/arm-none-eabi/include/c++/10.3.1/bits/stl_deque.h ****       template<typename _InputIterator>
1904:/Library/DaisyToolchain/0.2.0/arm/arm-none-eabi/include/c++/10.3.1/bits/stl_deque.h **** 	void
1905:/Library/DaisyToolchain/0.2.0/arm/arm-none-eabi/include/c++/10.3.1/bits/stl_deque.h **** 	_M_assign_aux(_InputIterator __first, _InputIterator __last,
1906:/Library/DaisyToolchain/0.2.0/arm/arm-none-eabi/include/c++/10.3.1/bits/stl_deque.h **** 		      std::input_iterator_tag);
1907:/Library/DaisyToolchain/0.2.0/arm/arm-none-eabi/include/c++/10.3.1/bits/stl_deque.h **** 
1908:/Library/DaisyToolchain/0.2.0/arm/arm-none-eabi/include/c++/10.3.1/bits/stl_deque.h ****       // called by the second assign_dispatch above
1909:/Library/DaisyToolchain/0.2.0/arm/arm-none-eabi/include/c++/10.3.1/bits/stl_deque.h ****       template<typename _ForwardIterator>
1910:/Library/DaisyToolchain/0.2.0/arm/arm-none-eabi/include/c++/10.3.1/bits/stl_deque.h **** 	void
1911:/Library/DaisyToolchain/0.2.0/arm/arm-none-eabi/include/c++/10.3.1/bits/stl_deque.h **** 	_M_assign_aux(_ForwardIterator __first, _ForwardIterator __last,
1912:/Library/DaisyToolchain/0.2.0/arm/arm-none-eabi/include/c++/10.3.1/bits/stl_deque.h **** 		      std::forward_iterator_tag)
1913:/Library/DaisyToolchain/0.2.0/arm/arm-none-eabi/include/c++/10.3.1/bits/stl_deque.h **** 	{
1914:/Library/DaisyToolchain/0.2.0/arm/arm-none-eabi/include/c++/10.3.1/bits/stl_deque.h **** 	  const size_type __len = std::distance(__first, __last);
1915:/Library/DaisyToolchain/0.2.0/arm/arm-none-eabi/include/c++/10.3.1/bits/stl_deque.h **** 	  if (__len > size())
1916:/Library/DaisyToolchain/0.2.0/arm/arm-none-eabi/include/c++/10.3.1/bits/stl_deque.h **** 	    {
1917:/Library/DaisyToolchain/0.2.0/arm/arm-none-eabi/include/c++/10.3.1/bits/stl_deque.h **** 	      _ForwardIterator __mid = __first;
1918:/Library/DaisyToolchain/0.2.0/arm/arm-none-eabi/include/c++/10.3.1/bits/stl_deque.h **** 	      std::advance(__mid, size());
1919:/Library/DaisyToolchain/0.2.0/arm/arm-none-eabi/include/c++/10.3.1/bits/stl_deque.h **** 	      std::copy(__first, __mid, begin());
1920:/Library/DaisyToolchain/0.2.0/arm/arm-none-eabi/include/c++/10.3.1/bits/stl_deque.h **** 	      _M_range_insert_aux(end(), __mid, __last,
1921:/Library/DaisyToolchain/0.2.0/arm/arm-none-eabi/include/c++/10.3.1/bits/stl_deque.h **** 				  std::__iterator_category(__first));
1922:/Library/DaisyToolchain/0.2.0/arm/arm-none-eabi/include/c++/10.3.1/bits/stl_deque.h **** 	    }
1923:/Library/DaisyToolchain/0.2.0/arm/arm-none-eabi/include/c++/10.3.1/bits/stl_deque.h **** 	  else
1924:/Library/DaisyToolchain/0.2.0/arm/arm-none-eabi/include/c++/10.3.1/bits/stl_deque.h **** 	    _M_erase_at_end(std::copy(__first, __last, begin()));
1925:/Library/DaisyToolchain/0.2.0/arm/arm-none-eabi/include/c++/10.3.1/bits/stl_deque.h **** 	}
1926:/Library/DaisyToolchain/0.2.0/arm/arm-none-eabi/include/c++/10.3.1/bits/stl_deque.h **** 
1927:/Library/DaisyToolchain/0.2.0/arm/arm-none-eabi/include/c++/10.3.1/bits/stl_deque.h ****       // Called by assign(n,t), and the range assign when it turns out
1928:/Library/DaisyToolchain/0.2.0/arm/arm-none-eabi/include/c++/10.3.1/bits/stl_deque.h ****       // to be the same thing.
1929:/Library/DaisyToolchain/0.2.0/arm/arm-none-eabi/include/c++/10.3.1/bits/stl_deque.h ****       void
1930:/Library/DaisyToolchain/0.2.0/arm/arm-none-eabi/include/c++/10.3.1/bits/stl_deque.h ****       _M_fill_assign(size_type __n, const value_type& __val)
1931:/Library/DaisyToolchain/0.2.0/arm/arm-none-eabi/include/c++/10.3.1/bits/stl_deque.h ****       {
1932:/Library/DaisyToolchain/0.2.0/arm/arm-none-eabi/include/c++/10.3.1/bits/stl_deque.h **** 	if (__n > size())
1933:/Library/DaisyToolchain/0.2.0/arm/arm-none-eabi/include/c++/10.3.1/bits/stl_deque.h **** 	  {
1934:/Library/DaisyToolchain/0.2.0/arm/arm-none-eabi/include/c++/10.3.1/bits/stl_deque.h **** 	    std::fill(begin(), end(), __val);
1935:/Library/DaisyToolchain/0.2.0/arm/arm-none-eabi/include/c++/10.3.1/bits/stl_deque.h **** 	    _M_fill_insert(end(), __n - size(), __val);
1936:/Library/DaisyToolchain/0.2.0/arm/arm-none-eabi/include/c++/10.3.1/bits/stl_deque.h **** 	  }
1937:/Library/DaisyToolchain/0.2.0/arm/arm-none-eabi/include/c++/10.3.1/bits/stl_deque.h **** 	else
1938:/Library/DaisyToolchain/0.2.0/arm/arm-none-eabi/include/c++/10.3.1/bits/stl_deque.h **** 	  {
1939:/Library/DaisyToolchain/0.2.0/arm/arm-none-eabi/include/c++/10.3.1/bits/stl_deque.h **** 	    _M_erase_at_end(begin() + difference_type(__n));
1940:/Library/DaisyToolchain/0.2.0/arm/arm-none-eabi/include/c++/10.3.1/bits/stl_deque.h **** 	    std::fill(begin(), end(), __val);
1941:/Library/DaisyToolchain/0.2.0/arm/arm-none-eabi/include/c++/10.3.1/bits/stl_deque.h **** 	  }
1942:/Library/DaisyToolchain/0.2.0/arm/arm-none-eabi/include/c++/10.3.1/bits/stl_deque.h ****       }
1943:/Library/DaisyToolchain/0.2.0/arm/arm-none-eabi/include/c++/10.3.1/bits/stl_deque.h **** 
1944:/Library/DaisyToolchain/0.2.0/arm/arm-none-eabi/include/c++/10.3.1/bits/stl_deque.h ****       ///@{
1945:/Library/DaisyToolchain/0.2.0/arm/arm-none-eabi/include/c++/10.3.1/bits/stl_deque.h ****       /// Helper functions for push_* and pop_*.
1946:/Library/DaisyToolchain/0.2.0/arm/arm-none-eabi/include/c++/10.3.1/bits/stl_deque.h **** #if __cplusplus < 201103L
1947:/Library/DaisyToolchain/0.2.0/arm/arm-none-eabi/include/c++/10.3.1/bits/stl_deque.h ****       void _M_push_back_aux(const value_type&);
1948:/Library/DaisyToolchain/0.2.0/arm/arm-none-eabi/include/c++/10.3.1/bits/stl_deque.h **** 
ARM GAS  /var/folders/s6/2bsynnl15rj0bwtb9pgx4dc00000gn/T//cc76hY55.s 			page 114


1949:/Library/DaisyToolchain/0.2.0/arm/arm-none-eabi/include/c++/10.3.1/bits/stl_deque.h ****       void _M_push_front_aux(const value_type&);
1950:/Library/DaisyToolchain/0.2.0/arm/arm-none-eabi/include/c++/10.3.1/bits/stl_deque.h **** #else
1951:/Library/DaisyToolchain/0.2.0/arm/arm-none-eabi/include/c++/10.3.1/bits/stl_deque.h ****       template<typename... _Args>
1952:/Library/DaisyToolchain/0.2.0/arm/arm-none-eabi/include/c++/10.3.1/bits/stl_deque.h **** 	void _M_push_back_aux(_Args&&... __args);
1953:/Library/DaisyToolchain/0.2.0/arm/arm-none-eabi/include/c++/10.3.1/bits/stl_deque.h **** 
1954:/Library/DaisyToolchain/0.2.0/arm/arm-none-eabi/include/c++/10.3.1/bits/stl_deque.h ****       template<typename... _Args>
1955:/Library/DaisyToolchain/0.2.0/arm/arm-none-eabi/include/c++/10.3.1/bits/stl_deque.h **** 	void _M_push_front_aux(_Args&&... __args);
1956:/Library/DaisyToolchain/0.2.0/arm/arm-none-eabi/include/c++/10.3.1/bits/stl_deque.h **** #endif
1957:/Library/DaisyToolchain/0.2.0/arm/arm-none-eabi/include/c++/10.3.1/bits/stl_deque.h **** 
1958:/Library/DaisyToolchain/0.2.0/arm/arm-none-eabi/include/c++/10.3.1/bits/stl_deque.h ****       void _M_pop_back_aux();
1959:/Library/DaisyToolchain/0.2.0/arm/arm-none-eabi/include/c++/10.3.1/bits/stl_deque.h **** 
1960:/Library/DaisyToolchain/0.2.0/arm/arm-none-eabi/include/c++/10.3.1/bits/stl_deque.h ****       void _M_pop_front_aux();
1961:/Library/DaisyToolchain/0.2.0/arm/arm-none-eabi/include/c++/10.3.1/bits/stl_deque.h ****       ///@}
1962:/Library/DaisyToolchain/0.2.0/arm/arm-none-eabi/include/c++/10.3.1/bits/stl_deque.h **** 
1963:/Library/DaisyToolchain/0.2.0/arm/arm-none-eabi/include/c++/10.3.1/bits/stl_deque.h ****       // Internal insert functions follow.  The *_aux functions do the actual
1964:/Library/DaisyToolchain/0.2.0/arm/arm-none-eabi/include/c++/10.3.1/bits/stl_deque.h ****       // insertion work when all shortcuts fail.
1965:/Library/DaisyToolchain/0.2.0/arm/arm-none-eabi/include/c++/10.3.1/bits/stl_deque.h **** 
1966:/Library/DaisyToolchain/0.2.0/arm/arm-none-eabi/include/c++/10.3.1/bits/stl_deque.h **** #if __cplusplus < 201103L
1967:/Library/DaisyToolchain/0.2.0/arm/arm-none-eabi/include/c++/10.3.1/bits/stl_deque.h ****       // called by the range insert to implement [23.1.1]/9
1968:/Library/DaisyToolchain/0.2.0/arm/arm-none-eabi/include/c++/10.3.1/bits/stl_deque.h **** 
1969:/Library/DaisyToolchain/0.2.0/arm/arm-none-eabi/include/c++/10.3.1/bits/stl_deque.h ****       // _GLIBCXX_RESOLVE_LIB_DEFECTS
1970:/Library/DaisyToolchain/0.2.0/arm/arm-none-eabi/include/c++/10.3.1/bits/stl_deque.h ****       // 438. Ambiguity in the "do the right thing" clause
1971:/Library/DaisyToolchain/0.2.0/arm/arm-none-eabi/include/c++/10.3.1/bits/stl_deque.h ****       template<typename _Integer>
1972:/Library/DaisyToolchain/0.2.0/arm/arm-none-eabi/include/c++/10.3.1/bits/stl_deque.h **** 	void
1973:/Library/DaisyToolchain/0.2.0/arm/arm-none-eabi/include/c++/10.3.1/bits/stl_deque.h **** 	_M_insert_dispatch(iterator __pos,
1974:/Library/DaisyToolchain/0.2.0/arm/arm-none-eabi/include/c++/10.3.1/bits/stl_deque.h **** 			   _Integer __n, _Integer __x, __true_type)
1975:/Library/DaisyToolchain/0.2.0/arm/arm-none-eabi/include/c++/10.3.1/bits/stl_deque.h **** 	{ _M_fill_insert(__pos, __n, __x); }
1976:/Library/DaisyToolchain/0.2.0/arm/arm-none-eabi/include/c++/10.3.1/bits/stl_deque.h **** 
1977:/Library/DaisyToolchain/0.2.0/arm/arm-none-eabi/include/c++/10.3.1/bits/stl_deque.h ****       // called by the range insert to implement [23.1.1]/9
1978:/Library/DaisyToolchain/0.2.0/arm/arm-none-eabi/include/c++/10.3.1/bits/stl_deque.h ****       template<typename _InputIterator>
1979:/Library/DaisyToolchain/0.2.0/arm/arm-none-eabi/include/c++/10.3.1/bits/stl_deque.h **** 	void
1980:/Library/DaisyToolchain/0.2.0/arm/arm-none-eabi/include/c++/10.3.1/bits/stl_deque.h **** 	_M_insert_dispatch(iterator __pos,
1981:/Library/DaisyToolchain/0.2.0/arm/arm-none-eabi/include/c++/10.3.1/bits/stl_deque.h **** 			   _InputIterator __first, _InputIterator __last,
1982:/Library/DaisyToolchain/0.2.0/arm/arm-none-eabi/include/c++/10.3.1/bits/stl_deque.h **** 			   __false_type)
1983:/Library/DaisyToolchain/0.2.0/arm/arm-none-eabi/include/c++/10.3.1/bits/stl_deque.h **** 	{
1984:/Library/DaisyToolchain/0.2.0/arm/arm-none-eabi/include/c++/10.3.1/bits/stl_deque.h **** 	  _M_range_insert_aux(__pos, __first, __last,
1985:/Library/DaisyToolchain/0.2.0/arm/arm-none-eabi/include/c++/10.3.1/bits/stl_deque.h **** 			      std::__iterator_category(__first));
1986:/Library/DaisyToolchain/0.2.0/arm/arm-none-eabi/include/c++/10.3.1/bits/stl_deque.h **** 	}
1987:/Library/DaisyToolchain/0.2.0/arm/arm-none-eabi/include/c++/10.3.1/bits/stl_deque.h **** #endif
1988:/Library/DaisyToolchain/0.2.0/arm/arm-none-eabi/include/c++/10.3.1/bits/stl_deque.h **** 
1989:/Library/DaisyToolchain/0.2.0/arm/arm-none-eabi/include/c++/10.3.1/bits/stl_deque.h ****       // called by the second insert_dispatch above
1990:/Library/DaisyToolchain/0.2.0/arm/arm-none-eabi/include/c++/10.3.1/bits/stl_deque.h ****       template<typename _InputIterator>
1991:/Library/DaisyToolchain/0.2.0/arm/arm-none-eabi/include/c++/10.3.1/bits/stl_deque.h **** 	void
1992:/Library/DaisyToolchain/0.2.0/arm/arm-none-eabi/include/c++/10.3.1/bits/stl_deque.h **** 	_M_range_insert_aux(iterator __pos, _InputIterator __first,
1993:/Library/DaisyToolchain/0.2.0/arm/arm-none-eabi/include/c++/10.3.1/bits/stl_deque.h **** 			    _InputIterator __last, std::input_iterator_tag);
1994:/Library/DaisyToolchain/0.2.0/arm/arm-none-eabi/include/c++/10.3.1/bits/stl_deque.h **** 
1995:/Library/DaisyToolchain/0.2.0/arm/arm-none-eabi/include/c++/10.3.1/bits/stl_deque.h ****       // called by the second insert_dispatch above
1996:/Library/DaisyToolchain/0.2.0/arm/arm-none-eabi/include/c++/10.3.1/bits/stl_deque.h ****       template<typename _ForwardIterator>
1997:/Library/DaisyToolchain/0.2.0/arm/arm-none-eabi/include/c++/10.3.1/bits/stl_deque.h **** 	void
1998:/Library/DaisyToolchain/0.2.0/arm/arm-none-eabi/include/c++/10.3.1/bits/stl_deque.h **** 	_M_range_insert_aux(iterator __pos, _ForwardIterator __first,
1999:/Library/DaisyToolchain/0.2.0/arm/arm-none-eabi/include/c++/10.3.1/bits/stl_deque.h **** 			    _ForwardIterator __last, std::forward_iterator_tag);
2000:/Library/DaisyToolchain/0.2.0/arm/arm-none-eabi/include/c++/10.3.1/bits/stl_deque.h **** 
2001:/Library/DaisyToolchain/0.2.0/arm/arm-none-eabi/include/c++/10.3.1/bits/stl_deque.h ****       // Called by insert(p,n,x), and the range insert when it turns out to be
2002:/Library/DaisyToolchain/0.2.0/arm/arm-none-eabi/include/c++/10.3.1/bits/stl_deque.h ****       // the same thing.  Can use fill functions in optimal situations,
2003:/Library/DaisyToolchain/0.2.0/arm/arm-none-eabi/include/c++/10.3.1/bits/stl_deque.h ****       // otherwise passes off to insert_aux(p,n,x).
2004:/Library/DaisyToolchain/0.2.0/arm/arm-none-eabi/include/c++/10.3.1/bits/stl_deque.h ****       void
2005:/Library/DaisyToolchain/0.2.0/arm/arm-none-eabi/include/c++/10.3.1/bits/stl_deque.h ****       _M_fill_insert(iterator __pos, size_type __n, const value_type& __x);
ARM GAS  /var/folders/s6/2bsynnl15rj0bwtb9pgx4dc00000gn/T//cc76hY55.s 			page 115


2006:/Library/DaisyToolchain/0.2.0/arm/arm-none-eabi/include/c++/10.3.1/bits/stl_deque.h **** 
2007:/Library/DaisyToolchain/0.2.0/arm/arm-none-eabi/include/c++/10.3.1/bits/stl_deque.h ****       // called by insert(p,x)
2008:/Library/DaisyToolchain/0.2.0/arm/arm-none-eabi/include/c++/10.3.1/bits/stl_deque.h **** #if __cplusplus < 201103L
2009:/Library/DaisyToolchain/0.2.0/arm/arm-none-eabi/include/c++/10.3.1/bits/stl_deque.h ****       iterator
2010:/Library/DaisyToolchain/0.2.0/arm/arm-none-eabi/include/c++/10.3.1/bits/stl_deque.h ****       _M_insert_aux(iterator __pos, const value_type& __x);
2011:/Library/DaisyToolchain/0.2.0/arm/arm-none-eabi/include/c++/10.3.1/bits/stl_deque.h **** #else
2012:/Library/DaisyToolchain/0.2.0/arm/arm-none-eabi/include/c++/10.3.1/bits/stl_deque.h ****       template<typename... _Args>
2013:/Library/DaisyToolchain/0.2.0/arm/arm-none-eabi/include/c++/10.3.1/bits/stl_deque.h **** 	iterator
2014:/Library/DaisyToolchain/0.2.0/arm/arm-none-eabi/include/c++/10.3.1/bits/stl_deque.h **** 	_M_insert_aux(iterator __pos, _Args&&... __args);
2015:/Library/DaisyToolchain/0.2.0/arm/arm-none-eabi/include/c++/10.3.1/bits/stl_deque.h **** #endif
2016:/Library/DaisyToolchain/0.2.0/arm/arm-none-eabi/include/c++/10.3.1/bits/stl_deque.h **** 
2017:/Library/DaisyToolchain/0.2.0/arm/arm-none-eabi/include/c++/10.3.1/bits/stl_deque.h ****       // called by insert(p,n,x) via fill_insert
2018:/Library/DaisyToolchain/0.2.0/arm/arm-none-eabi/include/c++/10.3.1/bits/stl_deque.h ****       void
2019:/Library/DaisyToolchain/0.2.0/arm/arm-none-eabi/include/c++/10.3.1/bits/stl_deque.h ****       _M_insert_aux(iterator __pos, size_type __n, const value_type& __x);
2020:/Library/DaisyToolchain/0.2.0/arm/arm-none-eabi/include/c++/10.3.1/bits/stl_deque.h **** 
2021:/Library/DaisyToolchain/0.2.0/arm/arm-none-eabi/include/c++/10.3.1/bits/stl_deque.h ****       // called by range_insert_aux for forward iterators
2022:/Library/DaisyToolchain/0.2.0/arm/arm-none-eabi/include/c++/10.3.1/bits/stl_deque.h ****       template<typename _ForwardIterator>
2023:/Library/DaisyToolchain/0.2.0/arm/arm-none-eabi/include/c++/10.3.1/bits/stl_deque.h **** 	void
2024:/Library/DaisyToolchain/0.2.0/arm/arm-none-eabi/include/c++/10.3.1/bits/stl_deque.h **** 	_M_insert_aux(iterator __pos,
2025:/Library/DaisyToolchain/0.2.0/arm/arm-none-eabi/include/c++/10.3.1/bits/stl_deque.h **** 		      _ForwardIterator __first, _ForwardIterator __last,
2026:/Library/DaisyToolchain/0.2.0/arm/arm-none-eabi/include/c++/10.3.1/bits/stl_deque.h **** 		      size_type __n);
2027:/Library/DaisyToolchain/0.2.0/arm/arm-none-eabi/include/c++/10.3.1/bits/stl_deque.h **** 
2028:/Library/DaisyToolchain/0.2.0/arm/arm-none-eabi/include/c++/10.3.1/bits/stl_deque.h **** 
2029:/Library/DaisyToolchain/0.2.0/arm/arm-none-eabi/include/c++/10.3.1/bits/stl_deque.h ****       // Internal erase functions follow.
2030:/Library/DaisyToolchain/0.2.0/arm/arm-none-eabi/include/c++/10.3.1/bits/stl_deque.h **** 
2031:/Library/DaisyToolchain/0.2.0/arm/arm-none-eabi/include/c++/10.3.1/bits/stl_deque.h ****       void
2032:/Library/DaisyToolchain/0.2.0/arm/arm-none-eabi/include/c++/10.3.1/bits/stl_deque.h ****       _M_destroy_data_aux(iterator __first, iterator __last);
2033:/Library/DaisyToolchain/0.2.0/arm/arm-none-eabi/include/c++/10.3.1/bits/stl_deque.h **** 
2034:/Library/DaisyToolchain/0.2.0/arm/arm-none-eabi/include/c++/10.3.1/bits/stl_deque.h ****       // Called by ~deque().
2035:/Library/DaisyToolchain/0.2.0/arm/arm-none-eabi/include/c++/10.3.1/bits/stl_deque.h ****       // NB: Doesn't deallocate the nodes.
2036:/Library/DaisyToolchain/0.2.0/arm/arm-none-eabi/include/c++/10.3.1/bits/stl_deque.h ****       template<typename _Alloc1>
2037:/Library/DaisyToolchain/0.2.0/arm/arm-none-eabi/include/c++/10.3.1/bits/stl_deque.h **** 	void
2038:/Library/DaisyToolchain/0.2.0/arm/arm-none-eabi/include/c++/10.3.1/bits/stl_deque.h **** 	_M_destroy_data(iterator __first, iterator __last, const _Alloc1&)
2039:/Library/DaisyToolchain/0.2.0/arm/arm-none-eabi/include/c++/10.3.1/bits/stl_deque.h **** 	{ _M_destroy_data_aux(__first, __last); }
2040:/Library/DaisyToolchain/0.2.0/arm/arm-none-eabi/include/c++/10.3.1/bits/stl_deque.h **** 
2041:/Library/DaisyToolchain/0.2.0/arm/arm-none-eabi/include/c++/10.3.1/bits/stl_deque.h ****       void
2042:/Library/DaisyToolchain/0.2.0/arm/arm-none-eabi/include/c++/10.3.1/bits/stl_deque.h ****       _M_destroy_data(iterator __first, iterator __last,
2043:/Library/DaisyToolchain/0.2.0/arm/arm-none-eabi/include/c++/10.3.1/bits/stl_deque.h **** 		      const std::allocator<_Tp>&)
2044:/Library/DaisyToolchain/0.2.0/arm/arm-none-eabi/include/c++/10.3.1/bits/stl_deque.h ****       {
2045:/Library/DaisyToolchain/0.2.0/arm/arm-none-eabi/include/c++/10.3.1/bits/stl_deque.h **** 	if (!__has_trivial_destructor(value_type))
2046:/Library/DaisyToolchain/0.2.0/arm/arm-none-eabi/include/c++/10.3.1/bits/stl_deque.h **** 	  _M_destroy_data_aux(__first, __last);
2047:/Library/DaisyToolchain/0.2.0/arm/arm-none-eabi/include/c++/10.3.1/bits/stl_deque.h ****       }
2048:/Library/DaisyToolchain/0.2.0/arm/arm-none-eabi/include/c++/10.3.1/bits/stl_deque.h **** 
2049:/Library/DaisyToolchain/0.2.0/arm/arm-none-eabi/include/c++/10.3.1/bits/stl_deque.h ****       // Called by erase(q1, q2).
2050:/Library/DaisyToolchain/0.2.0/arm/arm-none-eabi/include/c++/10.3.1/bits/stl_deque.h ****       void
2051:/Library/DaisyToolchain/0.2.0/arm/arm-none-eabi/include/c++/10.3.1/bits/stl_deque.h ****       _M_erase_at_begin(iterator __pos)
2052:/Library/DaisyToolchain/0.2.0/arm/arm-none-eabi/include/c++/10.3.1/bits/stl_deque.h ****       {
2053:/Library/DaisyToolchain/0.2.0/arm/arm-none-eabi/include/c++/10.3.1/bits/stl_deque.h **** 	_M_destroy_data(begin(), __pos, _M_get_Tp_allocator());
2054:/Library/DaisyToolchain/0.2.0/arm/arm-none-eabi/include/c++/10.3.1/bits/stl_deque.h **** 	_M_destroy_nodes(this->_M_impl._M_start._M_node, __pos._M_node);
2055:/Library/DaisyToolchain/0.2.0/arm/arm-none-eabi/include/c++/10.3.1/bits/stl_deque.h **** 	this->_M_impl._M_start = __pos;
2056:/Library/DaisyToolchain/0.2.0/arm/arm-none-eabi/include/c++/10.3.1/bits/stl_deque.h ****       }
2057:/Library/DaisyToolchain/0.2.0/arm/arm-none-eabi/include/c++/10.3.1/bits/stl_deque.h **** 
2058:/Library/DaisyToolchain/0.2.0/arm/arm-none-eabi/include/c++/10.3.1/bits/stl_deque.h ****       // Called by erase(q1, q2), resize(), clear(), _M_assign_aux,
2059:/Library/DaisyToolchain/0.2.0/arm/arm-none-eabi/include/c++/10.3.1/bits/stl_deque.h ****       // _M_fill_assign, operator=.
2060:/Library/DaisyToolchain/0.2.0/arm/arm-none-eabi/include/c++/10.3.1/bits/stl_deque.h ****       void
2061:/Library/DaisyToolchain/0.2.0/arm/arm-none-eabi/include/c++/10.3.1/bits/stl_deque.h ****       _M_erase_at_end(iterator __pos)
2062:/Library/DaisyToolchain/0.2.0/arm/arm-none-eabi/include/c++/10.3.1/bits/stl_deque.h ****       {
ARM GAS  /var/folders/s6/2bsynnl15rj0bwtb9pgx4dc00000gn/T//cc76hY55.s 			page 116


2063:/Library/DaisyToolchain/0.2.0/arm/arm-none-eabi/include/c++/10.3.1/bits/stl_deque.h **** 	_M_destroy_data(__pos, end(), _M_get_Tp_allocator());
2064:/Library/DaisyToolchain/0.2.0/arm/arm-none-eabi/include/c++/10.3.1/bits/stl_deque.h **** 	_M_destroy_nodes(__pos._M_node + 1,
2065:/Library/DaisyToolchain/0.2.0/arm/arm-none-eabi/include/c++/10.3.1/bits/stl_deque.h **** 			 this->_M_impl._M_finish._M_node + 1);
2066:/Library/DaisyToolchain/0.2.0/arm/arm-none-eabi/include/c++/10.3.1/bits/stl_deque.h **** 	this->_M_impl._M_finish = __pos;
2067:/Library/DaisyToolchain/0.2.0/arm/arm-none-eabi/include/c++/10.3.1/bits/stl_deque.h ****       }
2068:/Library/DaisyToolchain/0.2.0/arm/arm-none-eabi/include/c++/10.3.1/bits/stl_deque.h **** 
2069:/Library/DaisyToolchain/0.2.0/arm/arm-none-eabi/include/c++/10.3.1/bits/stl_deque.h ****       iterator
2070:/Library/DaisyToolchain/0.2.0/arm/arm-none-eabi/include/c++/10.3.1/bits/stl_deque.h ****       _M_erase(iterator __pos);
2071:/Library/DaisyToolchain/0.2.0/arm/arm-none-eabi/include/c++/10.3.1/bits/stl_deque.h **** 
2072:/Library/DaisyToolchain/0.2.0/arm/arm-none-eabi/include/c++/10.3.1/bits/stl_deque.h ****       iterator
2073:/Library/DaisyToolchain/0.2.0/arm/arm-none-eabi/include/c++/10.3.1/bits/stl_deque.h ****       _M_erase(iterator __first, iterator __last);
2074:/Library/DaisyToolchain/0.2.0/arm/arm-none-eabi/include/c++/10.3.1/bits/stl_deque.h **** 
2075:/Library/DaisyToolchain/0.2.0/arm/arm-none-eabi/include/c++/10.3.1/bits/stl_deque.h **** #if __cplusplus >= 201103L
2076:/Library/DaisyToolchain/0.2.0/arm/arm-none-eabi/include/c++/10.3.1/bits/stl_deque.h ****       // Called by resize(sz).
2077:/Library/DaisyToolchain/0.2.0/arm/arm-none-eabi/include/c++/10.3.1/bits/stl_deque.h ****       void
2078:/Library/DaisyToolchain/0.2.0/arm/arm-none-eabi/include/c++/10.3.1/bits/stl_deque.h ****       _M_default_append(size_type __n);
2079:/Library/DaisyToolchain/0.2.0/arm/arm-none-eabi/include/c++/10.3.1/bits/stl_deque.h **** 
2080:/Library/DaisyToolchain/0.2.0/arm/arm-none-eabi/include/c++/10.3.1/bits/stl_deque.h ****       bool
2081:/Library/DaisyToolchain/0.2.0/arm/arm-none-eabi/include/c++/10.3.1/bits/stl_deque.h ****       _M_shrink_to_fit();
2082:/Library/DaisyToolchain/0.2.0/arm/arm-none-eabi/include/c++/10.3.1/bits/stl_deque.h **** #endif
2083:/Library/DaisyToolchain/0.2.0/arm/arm-none-eabi/include/c++/10.3.1/bits/stl_deque.h **** 
2084:/Library/DaisyToolchain/0.2.0/arm/arm-none-eabi/include/c++/10.3.1/bits/stl_deque.h ****       ///@{
2085:/Library/DaisyToolchain/0.2.0/arm/arm-none-eabi/include/c++/10.3.1/bits/stl_deque.h ****       /// Memory-handling helpers for the previous internal insert functions.
2086:/Library/DaisyToolchain/0.2.0/arm/arm-none-eabi/include/c++/10.3.1/bits/stl_deque.h ****       iterator
2087:/Library/DaisyToolchain/0.2.0/arm/arm-none-eabi/include/c++/10.3.1/bits/stl_deque.h ****       _M_reserve_elements_at_front(size_type __n)
2088:/Library/DaisyToolchain/0.2.0/arm/arm-none-eabi/include/c++/10.3.1/bits/stl_deque.h ****       {
2089:/Library/DaisyToolchain/0.2.0/arm/arm-none-eabi/include/c++/10.3.1/bits/stl_deque.h **** 	const size_type __vacancies = this->_M_impl._M_start._M_cur
2090:/Library/DaisyToolchain/0.2.0/arm/arm-none-eabi/include/c++/10.3.1/bits/stl_deque.h **** 				      - this->_M_impl._M_start._M_first;
2091:/Library/DaisyToolchain/0.2.0/arm/arm-none-eabi/include/c++/10.3.1/bits/stl_deque.h **** 	if (__n > __vacancies)
2092:/Library/DaisyToolchain/0.2.0/arm/arm-none-eabi/include/c++/10.3.1/bits/stl_deque.h **** 	  _M_new_elements_at_front(__n - __vacancies);
2093:/Library/DaisyToolchain/0.2.0/arm/arm-none-eabi/include/c++/10.3.1/bits/stl_deque.h **** 	return this->_M_impl._M_start - difference_type(__n);
2094:/Library/DaisyToolchain/0.2.0/arm/arm-none-eabi/include/c++/10.3.1/bits/stl_deque.h ****       }
2095:/Library/DaisyToolchain/0.2.0/arm/arm-none-eabi/include/c++/10.3.1/bits/stl_deque.h **** 
2096:/Library/DaisyToolchain/0.2.0/arm/arm-none-eabi/include/c++/10.3.1/bits/stl_deque.h ****       iterator
2097:/Library/DaisyToolchain/0.2.0/arm/arm-none-eabi/include/c++/10.3.1/bits/stl_deque.h ****       _M_reserve_elements_at_back(size_type __n)
2098:/Library/DaisyToolchain/0.2.0/arm/arm-none-eabi/include/c++/10.3.1/bits/stl_deque.h ****       {
2099:/Library/DaisyToolchain/0.2.0/arm/arm-none-eabi/include/c++/10.3.1/bits/stl_deque.h **** 	const size_type __vacancies = (this->_M_impl._M_finish._M_last
2100:/Library/DaisyToolchain/0.2.0/arm/arm-none-eabi/include/c++/10.3.1/bits/stl_deque.h **** 				       - this->_M_impl._M_finish._M_cur) - 1;
2101:/Library/DaisyToolchain/0.2.0/arm/arm-none-eabi/include/c++/10.3.1/bits/stl_deque.h **** 	if (__n > __vacancies)
2102:/Library/DaisyToolchain/0.2.0/arm/arm-none-eabi/include/c++/10.3.1/bits/stl_deque.h **** 	  _M_new_elements_at_back(__n - __vacancies);
2103:/Library/DaisyToolchain/0.2.0/arm/arm-none-eabi/include/c++/10.3.1/bits/stl_deque.h **** 	return this->_M_impl._M_finish + difference_type(__n);
2104:/Library/DaisyToolchain/0.2.0/arm/arm-none-eabi/include/c++/10.3.1/bits/stl_deque.h ****       }
2105:/Library/DaisyToolchain/0.2.0/arm/arm-none-eabi/include/c++/10.3.1/bits/stl_deque.h **** 
2106:/Library/DaisyToolchain/0.2.0/arm/arm-none-eabi/include/c++/10.3.1/bits/stl_deque.h ****       void
2107:/Library/DaisyToolchain/0.2.0/arm/arm-none-eabi/include/c++/10.3.1/bits/stl_deque.h ****       _M_new_elements_at_front(size_type __new_elements);
2108:/Library/DaisyToolchain/0.2.0/arm/arm-none-eabi/include/c++/10.3.1/bits/stl_deque.h **** 
2109:/Library/DaisyToolchain/0.2.0/arm/arm-none-eabi/include/c++/10.3.1/bits/stl_deque.h ****       void
2110:/Library/DaisyToolchain/0.2.0/arm/arm-none-eabi/include/c++/10.3.1/bits/stl_deque.h ****       _M_new_elements_at_back(size_type __new_elements);
2111:/Library/DaisyToolchain/0.2.0/arm/arm-none-eabi/include/c++/10.3.1/bits/stl_deque.h ****       ///@}
2112:/Library/DaisyToolchain/0.2.0/arm/arm-none-eabi/include/c++/10.3.1/bits/stl_deque.h **** 
2113:/Library/DaisyToolchain/0.2.0/arm/arm-none-eabi/include/c++/10.3.1/bits/stl_deque.h **** 
2114:/Library/DaisyToolchain/0.2.0/arm/arm-none-eabi/include/c++/10.3.1/bits/stl_deque.h ****       ///@{
2115:/Library/DaisyToolchain/0.2.0/arm/arm-none-eabi/include/c++/10.3.1/bits/stl_deque.h ****       /**
2116:/Library/DaisyToolchain/0.2.0/arm/arm-none-eabi/include/c++/10.3.1/bits/stl_deque.h ****        *  @brief Memory-handling helpers for the major %map.
2117:/Library/DaisyToolchain/0.2.0/arm/arm-none-eabi/include/c++/10.3.1/bits/stl_deque.h ****        *
2118:/Library/DaisyToolchain/0.2.0/arm/arm-none-eabi/include/c++/10.3.1/bits/stl_deque.h ****        *  Makes sure the _M_map has space for new nodes.  Does not
2119:/Library/DaisyToolchain/0.2.0/arm/arm-none-eabi/include/c++/10.3.1/bits/stl_deque.h ****        *  actually add the nodes.  Can invalidate _M_map pointers.
ARM GAS  /var/folders/s6/2bsynnl15rj0bwtb9pgx4dc00000gn/T//cc76hY55.s 			page 117


2120:/Library/DaisyToolchain/0.2.0/arm/arm-none-eabi/include/c++/10.3.1/bits/stl_deque.h ****        *  (And consequently, %deque iterators.)
2121:/Library/DaisyToolchain/0.2.0/arm/arm-none-eabi/include/c++/10.3.1/bits/stl_deque.h ****        */
2122:/Library/DaisyToolchain/0.2.0/arm/arm-none-eabi/include/c++/10.3.1/bits/stl_deque.h ****       void
2123:/Library/DaisyToolchain/0.2.0/arm/arm-none-eabi/include/c++/10.3.1/bits/stl_deque.h ****       _M_reserve_map_at_back(size_type __nodes_to_add = 1)
 1620              		.loc 14 2123 7 is_stmt 1 view .LVU419
 1621              	.LBB707:
2124:/Library/DaisyToolchain/0.2.0/arm/arm-none-eabi/include/c++/10.3.1/bits/stl_deque.h ****       {
2125:/Library/DaisyToolchain/0.2.0/arm/arm-none-eabi/include/c++/10.3.1/bits/stl_deque.h **** 	if (__nodes_to_add + 1 > this->_M_impl._M_map_size
 1622              		.loc 14 2125 41 is_stmt 0 view .LVU420
 1623 0196 D8E90002 		ldrd	r0, r2, [r8]
2126:/Library/DaisyToolchain/0.2.0/arm/arm-none-eabi/include/c++/10.3.1/bits/stl_deque.h **** 	    - (this->_M_impl._M_finish._M_node - this->_M_impl._M_map))
 1624              		.loc 14 2126 41 view .LVU421
 1625 019a A9EB0003 		sub	r3, r9, r0
 1626              		.loc 14 2126 6 view .LVU422
 1627 019e A2EBA303 		sub	r3, r2, r3, asr #2
2125:/Library/DaisyToolchain/0.2.0/arm/arm-none-eabi/include/c++/10.3.1/bits/stl_deque.h **** 	    - (this->_M_impl._M_finish._M_node - this->_M_impl._M_map))
 1628              		.loc 14 2125 2 view .LVU423
 1629 01a2 012B     		cmp	r3, #1
 1630 01a4 28D9     		bls	.L140
 1631              	.L99:
 1632              	.LVL128:
2125:/Library/DaisyToolchain/0.2.0/arm/arm-none-eabi/include/c++/10.3.1/bits/stl_deque.h **** 	    - (this->_M_impl._M_finish._M_node - this->_M_impl._M_map))
 1633              		.loc 14 2125 2 view .LVU424
 1634              	.LBE707:
 1635              	.LBE706:
 1636              	.LBB781:
 1637              	.LBI781:
 556:/Library/DaisyToolchain/0.2.0/arm/arm-none-eabi/include/c++/10.3.1/bits/stl_deque.h ****       {
 1638              		.loc 14 556 7 is_stmt 1 view .LVU425
 1639              	.LBB782:
 1640              	.LBB783:
 1641              	.LBI783:
 459:/Library/DaisyToolchain/0.2.0/arm/arm-none-eabi/include/c++/10.3.1/bits/alloc_traits.h ****       { return __a.allocate(__n); }
 1642              		.loc 15 459 7 view .LVU426
 1643              	.LBB784:
 1644              	.LBI784:
 103:/Library/DaisyToolchain/0.2.0/arm/arm-none-eabi/include/c++/10.3.1/ext/new_allocator.h ****       {
 1645              		.loc 16 103 7 view .LVU427
 1646              	.LBB785:
 121:/Library/DaisyToolchain/0.2.0/arm/arm-none-eabi/include/c++/10.3.1/ext/new_allocator.h ****       }
 1647              		.loc 16 121 41 is_stmt 0 view .LVU428
 1648 01a6 4FF40070 		mov	r0, #512
 1649 01aa FFF7FEFF 		bl	_Znwj
 1650              	.LVL129:
 121:/Library/DaisyToolchain/0.2.0/arm/arm-none-eabi/include/c++/10.3.1/ext/new_allocator.h ****       }
 1651              		.loc 16 121 41 view .LVU429
 1652              	.LBE785:
 1653              	.LBE784:
 1654              	.LBE783:
 1655              	.LBE782:
 1656              	.LBE781:
 490:/Library/DaisyToolchain/0.2.0/arm/arm-none-eabi/include/c++/10.3.1/bits/deque.tcc **** 	  __throw_length_error(
 491:/Library/DaisyToolchain/0.2.0/arm/arm-none-eabi/include/c++/10.3.1/bits/deque.tcc **** 	      __N("cannot create std::deque larger than max_size()"));
 492:/Library/DaisyToolchain/0.2.0/arm/arm-none-eabi/include/c++/10.3.1/bits/deque.tcc **** 
 493:/Library/DaisyToolchain/0.2.0/arm/arm-none-eabi/include/c++/10.3.1/bits/deque.tcc **** 	_M_reserve_map_at_back();
 494:/Library/DaisyToolchain/0.2.0/arm/arm-none-eabi/include/c++/10.3.1/bits/deque.tcc **** 	*(this->_M_impl._M_finish._M_node + 1) = this->_M_allocate_node();
 495:/Library/DaisyToolchain/0.2.0/arm/arm-none-eabi/include/c++/10.3.1/bits/deque.tcc **** 	__try
ARM GAS  /var/folders/s6/2bsynnl15rj0bwtb9pgx4dc00000gn/T//cc76hY55.s 			page 118


 496:/Library/DaisyToolchain/0.2.0/arm/arm-none-eabi/include/c++/10.3.1/bits/deque.tcc **** 	  {
 497:/Library/DaisyToolchain/0.2.0/arm/arm-none-eabi/include/c++/10.3.1/bits/deque.tcc **** #if __cplusplus >= 201103L
 498:/Library/DaisyToolchain/0.2.0/arm/arm-none-eabi/include/c++/10.3.1/bits/deque.tcc **** 	    _Alloc_traits::construct(this->_M_impl,
 499:/Library/DaisyToolchain/0.2.0/arm/arm-none-eabi/include/c++/10.3.1/bits/deque.tcc **** 				     this->_M_impl._M_finish._M_cur,
 500:/Library/DaisyToolchain/0.2.0/arm/arm-none-eabi/include/c++/10.3.1/bits/deque.tcc **** 				     std::forward<_Args>(__args)...);
 501:/Library/DaisyToolchain/0.2.0/arm/arm-none-eabi/include/c++/10.3.1/bits/deque.tcc **** #else
 502:/Library/DaisyToolchain/0.2.0/arm/arm-none-eabi/include/c++/10.3.1/bits/deque.tcc **** 	    this->_M_impl.construct(this->_M_impl._M_finish._M_cur, __t);
 503:/Library/DaisyToolchain/0.2.0/arm/arm-none-eabi/include/c++/10.3.1/bits/deque.tcc **** #endif
 504:/Library/DaisyToolchain/0.2.0/arm/arm-none-eabi/include/c++/10.3.1/bits/deque.tcc **** 	    this->_M_impl._M_finish._M_set_node(this->_M_impl._M_finish._M_node
 1657              		.loc 18 504 66 view .LVU430
 1658 01ae D8F82430 		ldr	r3, [r8, #36]
 1659              	.LBB786:
 1660              	.LBB787:
 1661              	.LBB788:
 1662              		.loc 16 156 4 view .LVU431
 1663 01b2 94F800C0 		ldrb	ip, [r4]	@ zero_extendqisi2
 1664              	.LBE788:
 1665              	.LBE787:
 1666              	.LBE786:
 494:/Library/DaisyToolchain/0.2.0/arm/arm-none-eabi/include/c++/10.3.1/bits/deque.tcc **** 	__try
 1667              		.loc 18 494 41 view .LVU432
 1668 01b6 C9F80400 		str	r0, [r9, #4]
 1669              	.LVL130:
 1670              	.LBB792:
 1671              	.LBI786:
 1672              		.loc 15 507 2 is_stmt 1 view .LVU433
 1673              	.LBB790:
 1674              	.LBI787:
 154:/Library/DaisyToolchain/0.2.0/arm/arm-none-eabi/include/c++/10.3.1/ext/new_allocator.h **** 	noexcept(std::is_nothrow_constructible<_Up, _Args...>::value)
 1675              		.loc 16 154 2 view .LVU434
 154:/Library/DaisyToolchain/0.2.0/arm/arm-none-eabi/include/c++/10.3.1/ext/new_allocator.h **** 	noexcept(std::is_nothrow_constructible<_Up, _Args...>::value)
 1676              		.loc 16 154 2 is_stmt 0 view .LVU435
 1677              	.LBE790:
 1678              	.LBE792:
 1679              	.LBE702:
 1680              	.LBE701:
 1681              	.LBE804:
 1682              	.LBE808:
 1683              	.LBE821:
 1684              	.LBE831:
 1685              		.loc 17 175 3 is_stmt 1 view .LVU436
 1686              	.LBB832:
 1687              	.LBB822:
 1688              	.LBB809:
 1689              	.LBB805:
 1690              	.LBB801:
 1691              	.LBB799:
 1692              		.loc 18 504 41 is_stmt 0 view .LVU437
 1693 01ba 0433     		adds	r3, r3, #4
 1694              	.LBB793:
 1695              	.LBB794:
 263:/Library/DaisyToolchain/0.2.0/arm/arm-none-eabi/include/c++/10.3.1/bits/stl_deque.h **** 	_M_last = _M_first + difference_type(_S_buffer_size());
 1696              		.loc 14 263 11 view .LVU438
 1697 01bc 1A68     		ldr	r2, [r3]
 1698              	.LBE794:
 1699              	.LBE793:
 1700              	.LBB796:
ARM GAS  /var/folders/s6/2bsynnl15rj0bwtb9pgx4dc00000gn/T//cc76hY55.s 			page 119


 1701              	.LBB791:
 1702              	.LBB789:
 1703              		.loc 16 156 4 view .LVU439
 1704 01be D8F81810 		ldr	r1, [r8, #24]
 1705 01c2 81F800C0 		strb	ip, [r1]
 1706              	.LVL131:
 1707              		.loc 16 156 4 view .LVU440
 1708              	.LBE789:
 1709              	.LBE791:
 1710              	.LBE796:
 1711              	.LBB797:
 1712              	.LBI793:
 260:/Library/DaisyToolchain/0.2.0/arm/arm-none-eabi/include/c++/10.3.1/bits/stl_deque.h ****       {
 1713              		.loc 14 260 7 is_stmt 1 view .LVU441
 1714              	.LBB795:
 264:/Library/DaisyToolchain/0.2.0/arm/arm-none-eabi/include/c++/10.3.1/bits/stl_deque.h ****       }
 1715              		.loc 14 264 21 is_stmt 0 view .LVU442
 1716 01c6 02F50071 		add	r1, r2, #512
 262:/Library/DaisyToolchain/0.2.0/arm/arm-none-eabi/include/c++/10.3.1/bits/stl_deque.h **** 	_M_first = *__new_node;
 1717              		.loc 14 262 10 view .LVU443
 1718 01ca C8F82430 		str	r3, [r8, #36]
 264:/Library/DaisyToolchain/0.2.0/arm/arm-none-eabi/include/c++/10.3.1/bits/stl_deque.h ****       }
 1719              		.loc 14 264 10 view .LVU444
 1720 01ce C8F82010 		str	r1, [r8, #32]
 1721              	.LVL132:
 264:/Library/DaisyToolchain/0.2.0/arm/arm-none-eabi/include/c++/10.3.1/bits/stl_deque.h ****       }
 1722              		.loc 14 264 10 view .LVU445
 1723              	.LBE795:
 1724              	.LBE797:
 505:/Library/DaisyToolchain/0.2.0/arm/arm-none-eabi/include/c++/10.3.1/bits/deque.tcc **** 						+ 1);
 506:/Library/DaisyToolchain/0.2.0/arm/arm-none-eabi/include/c++/10.3.1/bits/deque.tcc **** 	    this->_M_impl._M_finish._M_cur = this->_M_impl._M_finish._M_first;
 1725              		.loc 18 506 37 view .LVU446
 1726 01d2 C8E90622 		strd	r2, r2, [r8, #24]
 507:/Library/DaisyToolchain/0.2.0/arm/arm-none-eabi/include/c++/10.3.1/bits/deque.tcc **** 	  }
 508:/Library/DaisyToolchain/0.2.0/arm/arm-none-eabi/include/c++/10.3.1/bits/deque.tcc **** 	__catch(...)
 509:/Library/DaisyToolchain/0.2.0/arm/arm-none-eabi/include/c++/10.3.1/bits/deque.tcc **** 	  {
 510:/Library/DaisyToolchain/0.2.0/arm/arm-none-eabi/include/c++/10.3.1/bits/deque.tcc **** 	    _M_deallocate_node(*(this->_M_impl._M_finish._M_node + 1));
 511:/Library/DaisyToolchain/0.2.0/arm/arm-none-eabi/include/c++/10.3.1/bits/deque.tcc **** 	    __throw_exception_again;
 512:/Library/DaisyToolchain/0.2.0/arm/arm-none-eabi/include/c++/10.3.1/bits/deque.tcc **** 	  }
 513:/Library/DaisyToolchain/0.2.0/arm/arm-none-eabi/include/c++/10.3.1/bits/deque.tcc ****       }
 1727              		.loc 18 513 7 view .LVU447
 1728 01d6 9EE7     		b	.L97
 1729              	.LVL133:
 1730              	.L137:
 1731              		.loc 18 513 7 view .LVU448
 1732              	.LBE799:
 1733              	.LBE801:
 1734              	.LBE805:
 1735              	.LBE809:
 1736              	.LBE822:
 183:TestTFT.cpp   ****                 hw.PrintLine("G Major triggered");
 1737              		.loc 8 183 17 is_stmt 1 view .LVU449
 183:TestTFT.cpp   ****                 hw.PrintLine("G Major triggered");
 1738              		.loc 8 183 32 is_stmt 0 view .LVU450
 1739 01d8 0421     		movs	r1, #4
 1740 01da 4B48     		ldr	r0, .L143+60
 1741 01dc FFF7FEFF 		bl	_ZN7Spirits7TriggerEi
ARM GAS  /var/folders/s6/2bsynnl15rj0bwtb9pgx4dc00000gn/T//cc76hY55.s 			page 120


 1742              	.LVL134:
 184:TestTFT.cpp   ****             } else if (buttonAm.Pressed()) {
 1743              		.loc 8 184 17 is_stmt 1 view .LVU451
 1744              	.LBB823:
 1745              	.LBI823:
 126:./libDaisy/src/daisy_seed.h ****     {
 1746              		.loc 3 126 17 view .LVU452
 1747              	.LBB824:
 128:./libDaisy/src/daisy_seed.h ****     }
 1748              		.loc 3 128 23 is_stmt 0 view .LVU453
 1749 01e0 4F48     		ldr	r0, .L143+84
 1750 01e2 FFF7FEFF 		bl	_ZN5daisy6LoggerILNS_17LoggerDestinationE1EE9PrintLineEPKcz
 1751              	.LVL135:
 1752              		.loc 3 129 5 view .LVU454
 1753 01e6 56E7     		b	.L83
 1754              	.LVL136:
 1755              	.L138:
 1756              		.loc 3 129 5 view .LVU455
 1757              	.LBE824:
 1758              	.LBE823:
 186:TestTFT.cpp   ****                 hw.PrintLine("A Minor triggered");
 1759              		.loc 8 186 17 is_stmt 1 view .LVU456
 186:TestTFT.cpp   ****                 hw.PrintLine("A Minor triggered");
 1760              		.loc 8 186 32 is_stmt 0 view .LVU457
 1761 01e8 0521     		movs	r1, #5
 1762 01ea 4748     		ldr	r0, .L143+60
 1763 01ec FFF7FEFF 		bl	_ZN7Spirits7TriggerEi
 1764              	.LVL137:
 187:TestTFT.cpp   ****             } else if (buttonBdim.Pressed()) {
 1765              		.loc 8 187 17 is_stmt 1 view .LVU458
 1766              	.LBB825:
 1767              	.LBI825:
 126:./libDaisy/src/daisy_seed.h ****     {
 1768              		.loc 3 126 17 view .LVU459
 1769              	.LBB826:
 128:./libDaisy/src/daisy_seed.h ****     }
 1770              		.loc 3 128 23 is_stmt 0 view .LVU460
 1771 01f0 4C48     		ldr	r0, .L143+88
 1772 01f2 FFF7FEFF 		bl	_ZN5daisy6LoggerILNS_17LoggerDestinationE1EE9PrintLineEPKcz
 1773              	.LVL138:
 1774              		.loc 3 129 5 view .LVU461
 1775 01f6 4EE7     		b	.L83
 1776              	.LVL139:
 1777              	.L140:
 1778              		.loc 3 129 5 view .LVU462
 1779              	.LBE826:
 1780              	.LBE825:
 1781              	.LBB827:
 1782              	.LBB810:
 1783              	.LBB806:
 1784              	.LBB802:
 1785              	.LBB800:
 1786              	.LBB798:
 1787              	.LBB780:
 1788              	.LBB708:
 1789              	.LBI708:
 514:/Library/DaisyToolchain/0.2.0/arm/arm-none-eabi/include/c++/10.3.1/bits/deque.tcc **** 
ARM GAS  /var/folders/s6/2bsynnl15rj0bwtb9pgx4dc00000gn/T//cc76hY55.s 			page 121


 515:/Library/DaisyToolchain/0.2.0/arm/arm-none-eabi/include/c++/10.3.1/bits/deque.tcc ****   // Called only if _M_impl._M_start._M_cur == _M_impl._M_start._M_first.
 516:/Library/DaisyToolchain/0.2.0/arm/arm-none-eabi/include/c++/10.3.1/bits/deque.tcc ****   template<typename _Tp, typename _Alloc>
 517:/Library/DaisyToolchain/0.2.0/arm/arm-none-eabi/include/c++/10.3.1/bits/deque.tcc **** #if __cplusplus >= 201103L
 518:/Library/DaisyToolchain/0.2.0/arm/arm-none-eabi/include/c++/10.3.1/bits/deque.tcc ****     template<typename... _Args>
 519:/Library/DaisyToolchain/0.2.0/arm/arm-none-eabi/include/c++/10.3.1/bits/deque.tcc ****       void
 520:/Library/DaisyToolchain/0.2.0/arm/arm-none-eabi/include/c++/10.3.1/bits/deque.tcc ****       deque<_Tp, _Alloc>::
 521:/Library/DaisyToolchain/0.2.0/arm/arm-none-eabi/include/c++/10.3.1/bits/deque.tcc ****       _M_push_front_aux(_Args&&... __args)
 522:/Library/DaisyToolchain/0.2.0/arm/arm-none-eabi/include/c++/10.3.1/bits/deque.tcc **** #else
 523:/Library/DaisyToolchain/0.2.0/arm/arm-none-eabi/include/c++/10.3.1/bits/deque.tcc ****       void
 524:/Library/DaisyToolchain/0.2.0/arm/arm-none-eabi/include/c++/10.3.1/bits/deque.tcc ****       deque<_Tp, _Alloc>::
 525:/Library/DaisyToolchain/0.2.0/arm/arm-none-eabi/include/c++/10.3.1/bits/deque.tcc ****       _M_push_front_aux(const value_type& __t)
 526:/Library/DaisyToolchain/0.2.0/arm/arm-none-eabi/include/c++/10.3.1/bits/deque.tcc **** #endif
 527:/Library/DaisyToolchain/0.2.0/arm/arm-none-eabi/include/c++/10.3.1/bits/deque.tcc ****       {
 528:/Library/DaisyToolchain/0.2.0/arm/arm-none-eabi/include/c++/10.3.1/bits/deque.tcc **** 	if (size() == max_size())
 529:/Library/DaisyToolchain/0.2.0/arm/arm-none-eabi/include/c++/10.3.1/bits/deque.tcc **** 	  __throw_length_error(
 530:/Library/DaisyToolchain/0.2.0/arm/arm-none-eabi/include/c++/10.3.1/bits/deque.tcc **** 	      __N("cannot create std::deque larger than max_size()"));
 531:/Library/DaisyToolchain/0.2.0/arm/arm-none-eabi/include/c++/10.3.1/bits/deque.tcc **** 
 532:/Library/DaisyToolchain/0.2.0/arm/arm-none-eabi/include/c++/10.3.1/bits/deque.tcc **** 	_M_reserve_map_at_front();
 533:/Library/DaisyToolchain/0.2.0/arm/arm-none-eabi/include/c++/10.3.1/bits/deque.tcc **** 	*(this->_M_impl._M_start._M_node - 1) = this->_M_allocate_node();
 534:/Library/DaisyToolchain/0.2.0/arm/arm-none-eabi/include/c++/10.3.1/bits/deque.tcc **** 	__try
 535:/Library/DaisyToolchain/0.2.0/arm/arm-none-eabi/include/c++/10.3.1/bits/deque.tcc **** 	  {
 536:/Library/DaisyToolchain/0.2.0/arm/arm-none-eabi/include/c++/10.3.1/bits/deque.tcc **** 	    this->_M_impl._M_start._M_set_node(this->_M_impl._M_start._M_node
 537:/Library/DaisyToolchain/0.2.0/arm/arm-none-eabi/include/c++/10.3.1/bits/deque.tcc **** 					       - 1);
 538:/Library/DaisyToolchain/0.2.0/arm/arm-none-eabi/include/c++/10.3.1/bits/deque.tcc **** 	    this->_M_impl._M_start._M_cur = this->_M_impl._M_start._M_last - 1;
 539:/Library/DaisyToolchain/0.2.0/arm/arm-none-eabi/include/c++/10.3.1/bits/deque.tcc **** #if __cplusplus >= 201103L
 540:/Library/DaisyToolchain/0.2.0/arm/arm-none-eabi/include/c++/10.3.1/bits/deque.tcc **** 	    _Alloc_traits::construct(this->_M_impl,
 541:/Library/DaisyToolchain/0.2.0/arm/arm-none-eabi/include/c++/10.3.1/bits/deque.tcc **** 				     this->_M_impl._M_start._M_cur,
 542:/Library/DaisyToolchain/0.2.0/arm/arm-none-eabi/include/c++/10.3.1/bits/deque.tcc **** 				     std::forward<_Args>(__args)...);
 543:/Library/DaisyToolchain/0.2.0/arm/arm-none-eabi/include/c++/10.3.1/bits/deque.tcc **** #else
 544:/Library/DaisyToolchain/0.2.0/arm/arm-none-eabi/include/c++/10.3.1/bits/deque.tcc **** 	    this->_M_impl.construct(this->_M_impl._M_start._M_cur, __t);
 545:/Library/DaisyToolchain/0.2.0/arm/arm-none-eabi/include/c++/10.3.1/bits/deque.tcc **** #endif
 546:/Library/DaisyToolchain/0.2.0/arm/arm-none-eabi/include/c++/10.3.1/bits/deque.tcc **** 	  }
 547:/Library/DaisyToolchain/0.2.0/arm/arm-none-eabi/include/c++/10.3.1/bits/deque.tcc **** 	__catch(...)
 548:/Library/DaisyToolchain/0.2.0/arm/arm-none-eabi/include/c++/10.3.1/bits/deque.tcc **** 	  {
 549:/Library/DaisyToolchain/0.2.0/arm/arm-none-eabi/include/c++/10.3.1/bits/deque.tcc **** 	    ++this->_M_impl._M_start;
 550:/Library/DaisyToolchain/0.2.0/arm/arm-none-eabi/include/c++/10.3.1/bits/deque.tcc **** 	    _M_deallocate_node(*(this->_M_impl._M_start._M_node - 1));
 551:/Library/DaisyToolchain/0.2.0/arm/arm-none-eabi/include/c++/10.3.1/bits/deque.tcc **** 	    __throw_exception_again;
 552:/Library/DaisyToolchain/0.2.0/arm/arm-none-eabi/include/c++/10.3.1/bits/deque.tcc **** 	  }
 553:/Library/DaisyToolchain/0.2.0/arm/arm-none-eabi/include/c++/10.3.1/bits/deque.tcc ****       }
 554:/Library/DaisyToolchain/0.2.0/arm/arm-none-eabi/include/c++/10.3.1/bits/deque.tcc **** 
 555:/Library/DaisyToolchain/0.2.0/arm/arm-none-eabi/include/c++/10.3.1/bits/deque.tcc ****   // Called only if _M_impl._M_finish._M_cur == _M_impl._M_finish._M_first.
 556:/Library/DaisyToolchain/0.2.0/arm/arm-none-eabi/include/c++/10.3.1/bits/deque.tcc ****   template <typename _Tp, typename _Alloc>
 557:/Library/DaisyToolchain/0.2.0/arm/arm-none-eabi/include/c++/10.3.1/bits/deque.tcc ****     void deque<_Tp, _Alloc>::
 558:/Library/DaisyToolchain/0.2.0/arm/arm-none-eabi/include/c++/10.3.1/bits/deque.tcc ****     _M_pop_back_aux()
 559:/Library/DaisyToolchain/0.2.0/arm/arm-none-eabi/include/c++/10.3.1/bits/deque.tcc ****     {
 560:/Library/DaisyToolchain/0.2.0/arm/arm-none-eabi/include/c++/10.3.1/bits/deque.tcc ****       _M_deallocate_node(this->_M_impl._M_finish._M_first);
 561:/Library/DaisyToolchain/0.2.0/arm/arm-none-eabi/include/c++/10.3.1/bits/deque.tcc ****       this->_M_impl._M_finish._M_set_node(this->_M_impl._M_finish._M_node - 1);
 562:/Library/DaisyToolchain/0.2.0/arm/arm-none-eabi/include/c++/10.3.1/bits/deque.tcc ****       this->_M_impl._M_finish._M_cur = this->_M_impl._M_finish._M_last - 1;
 563:/Library/DaisyToolchain/0.2.0/arm/arm-none-eabi/include/c++/10.3.1/bits/deque.tcc ****       _Alloc_traits::destroy(_M_get_Tp_allocator(),
 564:/Library/DaisyToolchain/0.2.0/arm/arm-none-eabi/include/c++/10.3.1/bits/deque.tcc **** 			     this->_M_impl._M_finish._M_cur);
 565:/Library/DaisyToolchain/0.2.0/arm/arm-none-eabi/include/c++/10.3.1/bits/deque.tcc ****     }
 566:/Library/DaisyToolchain/0.2.0/arm/arm-none-eabi/include/c++/10.3.1/bits/deque.tcc **** 
 567:/Library/DaisyToolchain/0.2.0/arm/arm-none-eabi/include/c++/10.3.1/bits/deque.tcc ****   // Called only if _M_impl._M_start._M_cur == _M_impl._M_start._M_last - 1.
 568:/Library/DaisyToolchain/0.2.0/arm/arm-none-eabi/include/c++/10.3.1/bits/deque.tcc ****   // Note that if the deque has at least one element (a precondition for this
 569:/Library/DaisyToolchain/0.2.0/arm/arm-none-eabi/include/c++/10.3.1/bits/deque.tcc ****   // member function), and if
 570:/Library/DaisyToolchain/0.2.0/arm/arm-none-eabi/include/c++/10.3.1/bits/deque.tcc ****   //   _M_impl._M_start._M_cur == _M_impl._M_start._M_last,
 571:/Library/DaisyToolchain/0.2.0/arm/arm-none-eabi/include/c++/10.3.1/bits/deque.tcc ****   // then the deque must have at least two nodes.
ARM GAS  /var/folders/s6/2bsynnl15rj0bwtb9pgx4dc00000gn/T//cc76hY55.s 			page 122


 572:/Library/DaisyToolchain/0.2.0/arm/arm-none-eabi/include/c++/10.3.1/bits/deque.tcc ****   template <typename _Tp, typename _Alloc>
 573:/Library/DaisyToolchain/0.2.0/arm/arm-none-eabi/include/c++/10.3.1/bits/deque.tcc ****     void deque<_Tp, _Alloc>::
 574:/Library/DaisyToolchain/0.2.0/arm/arm-none-eabi/include/c++/10.3.1/bits/deque.tcc ****     _M_pop_front_aux()
 575:/Library/DaisyToolchain/0.2.0/arm/arm-none-eabi/include/c++/10.3.1/bits/deque.tcc ****     {
 576:/Library/DaisyToolchain/0.2.0/arm/arm-none-eabi/include/c++/10.3.1/bits/deque.tcc ****       _Alloc_traits::destroy(_M_get_Tp_allocator(),
 577:/Library/DaisyToolchain/0.2.0/arm/arm-none-eabi/include/c++/10.3.1/bits/deque.tcc **** 			     this->_M_impl._M_start._M_cur);
 578:/Library/DaisyToolchain/0.2.0/arm/arm-none-eabi/include/c++/10.3.1/bits/deque.tcc ****       _M_deallocate_node(this->_M_impl._M_start._M_first);
 579:/Library/DaisyToolchain/0.2.0/arm/arm-none-eabi/include/c++/10.3.1/bits/deque.tcc ****       this->_M_impl._M_start._M_set_node(this->_M_impl._M_start._M_node + 1);
 580:/Library/DaisyToolchain/0.2.0/arm/arm-none-eabi/include/c++/10.3.1/bits/deque.tcc ****       this->_M_impl._M_start._M_cur = this->_M_impl._M_start._M_first;
 581:/Library/DaisyToolchain/0.2.0/arm/arm-none-eabi/include/c++/10.3.1/bits/deque.tcc ****     }
 582:/Library/DaisyToolchain/0.2.0/arm/arm-none-eabi/include/c++/10.3.1/bits/deque.tcc **** 
 583:/Library/DaisyToolchain/0.2.0/arm/arm-none-eabi/include/c++/10.3.1/bits/deque.tcc ****   template <typename _Tp, typename _Alloc>
 584:/Library/DaisyToolchain/0.2.0/arm/arm-none-eabi/include/c++/10.3.1/bits/deque.tcc ****     template <typename _InputIterator>
 585:/Library/DaisyToolchain/0.2.0/arm/arm-none-eabi/include/c++/10.3.1/bits/deque.tcc ****       void
 586:/Library/DaisyToolchain/0.2.0/arm/arm-none-eabi/include/c++/10.3.1/bits/deque.tcc ****       deque<_Tp, _Alloc>::
 587:/Library/DaisyToolchain/0.2.0/arm/arm-none-eabi/include/c++/10.3.1/bits/deque.tcc ****       _M_range_insert_aux(iterator __pos,
 588:/Library/DaisyToolchain/0.2.0/arm/arm-none-eabi/include/c++/10.3.1/bits/deque.tcc **** 			  _InputIterator __first, _InputIterator __last,
 589:/Library/DaisyToolchain/0.2.0/arm/arm-none-eabi/include/c++/10.3.1/bits/deque.tcc **** 			  std::input_iterator_tag)
 590:/Library/DaisyToolchain/0.2.0/arm/arm-none-eabi/include/c++/10.3.1/bits/deque.tcc ****       { std::copy(__first, __last, std::inserter(*this, __pos)); }
 591:/Library/DaisyToolchain/0.2.0/arm/arm-none-eabi/include/c++/10.3.1/bits/deque.tcc **** 
 592:/Library/DaisyToolchain/0.2.0/arm/arm-none-eabi/include/c++/10.3.1/bits/deque.tcc ****   template <typename _Tp, typename _Alloc>
 593:/Library/DaisyToolchain/0.2.0/arm/arm-none-eabi/include/c++/10.3.1/bits/deque.tcc ****     template <typename _ForwardIterator>
 594:/Library/DaisyToolchain/0.2.0/arm/arm-none-eabi/include/c++/10.3.1/bits/deque.tcc ****       void
 595:/Library/DaisyToolchain/0.2.0/arm/arm-none-eabi/include/c++/10.3.1/bits/deque.tcc ****       deque<_Tp, _Alloc>::
 596:/Library/DaisyToolchain/0.2.0/arm/arm-none-eabi/include/c++/10.3.1/bits/deque.tcc ****       _M_range_insert_aux(iterator __pos,
 597:/Library/DaisyToolchain/0.2.0/arm/arm-none-eabi/include/c++/10.3.1/bits/deque.tcc **** 			  _ForwardIterator __first, _ForwardIterator __last,
 598:/Library/DaisyToolchain/0.2.0/arm/arm-none-eabi/include/c++/10.3.1/bits/deque.tcc **** 			  std::forward_iterator_tag)
 599:/Library/DaisyToolchain/0.2.0/arm/arm-none-eabi/include/c++/10.3.1/bits/deque.tcc ****       {
 600:/Library/DaisyToolchain/0.2.0/arm/arm-none-eabi/include/c++/10.3.1/bits/deque.tcc **** 	const size_type __n = std::distance(__first, __last);
 601:/Library/DaisyToolchain/0.2.0/arm/arm-none-eabi/include/c++/10.3.1/bits/deque.tcc **** 	if (__pos._M_cur == this->_M_impl._M_start._M_cur)
 602:/Library/DaisyToolchain/0.2.0/arm/arm-none-eabi/include/c++/10.3.1/bits/deque.tcc **** 	  {
 603:/Library/DaisyToolchain/0.2.0/arm/arm-none-eabi/include/c++/10.3.1/bits/deque.tcc **** 	    iterator __new_start = _M_reserve_elements_at_front(__n);
 604:/Library/DaisyToolchain/0.2.0/arm/arm-none-eabi/include/c++/10.3.1/bits/deque.tcc **** 	    __try
 605:/Library/DaisyToolchain/0.2.0/arm/arm-none-eabi/include/c++/10.3.1/bits/deque.tcc **** 	      {
 606:/Library/DaisyToolchain/0.2.0/arm/arm-none-eabi/include/c++/10.3.1/bits/deque.tcc **** 		std::__uninitialized_copy_a(__first, __last, __new_start,
 607:/Library/DaisyToolchain/0.2.0/arm/arm-none-eabi/include/c++/10.3.1/bits/deque.tcc **** 					    _M_get_Tp_allocator());
 608:/Library/DaisyToolchain/0.2.0/arm/arm-none-eabi/include/c++/10.3.1/bits/deque.tcc **** 		this->_M_impl._M_start = __new_start;
 609:/Library/DaisyToolchain/0.2.0/arm/arm-none-eabi/include/c++/10.3.1/bits/deque.tcc **** 	      }
 610:/Library/DaisyToolchain/0.2.0/arm/arm-none-eabi/include/c++/10.3.1/bits/deque.tcc **** 	    __catch(...)
 611:/Library/DaisyToolchain/0.2.0/arm/arm-none-eabi/include/c++/10.3.1/bits/deque.tcc **** 	      {
 612:/Library/DaisyToolchain/0.2.0/arm/arm-none-eabi/include/c++/10.3.1/bits/deque.tcc **** 		_M_destroy_nodes(__new_start._M_node,
 613:/Library/DaisyToolchain/0.2.0/arm/arm-none-eabi/include/c++/10.3.1/bits/deque.tcc **** 				 this->_M_impl._M_start._M_node);
 614:/Library/DaisyToolchain/0.2.0/arm/arm-none-eabi/include/c++/10.3.1/bits/deque.tcc **** 		__throw_exception_again;
 615:/Library/DaisyToolchain/0.2.0/arm/arm-none-eabi/include/c++/10.3.1/bits/deque.tcc **** 	      }
 616:/Library/DaisyToolchain/0.2.0/arm/arm-none-eabi/include/c++/10.3.1/bits/deque.tcc **** 	  }
 617:/Library/DaisyToolchain/0.2.0/arm/arm-none-eabi/include/c++/10.3.1/bits/deque.tcc **** 	else if (__pos._M_cur == this->_M_impl._M_finish._M_cur)
 618:/Library/DaisyToolchain/0.2.0/arm/arm-none-eabi/include/c++/10.3.1/bits/deque.tcc **** 	  {
 619:/Library/DaisyToolchain/0.2.0/arm/arm-none-eabi/include/c++/10.3.1/bits/deque.tcc **** 	    iterator __new_finish = _M_reserve_elements_at_back(__n);
 620:/Library/DaisyToolchain/0.2.0/arm/arm-none-eabi/include/c++/10.3.1/bits/deque.tcc **** 	    __try
 621:/Library/DaisyToolchain/0.2.0/arm/arm-none-eabi/include/c++/10.3.1/bits/deque.tcc **** 	      {
 622:/Library/DaisyToolchain/0.2.0/arm/arm-none-eabi/include/c++/10.3.1/bits/deque.tcc **** 		std::__uninitialized_copy_a(__first, __last,
 623:/Library/DaisyToolchain/0.2.0/arm/arm-none-eabi/include/c++/10.3.1/bits/deque.tcc **** 					    this->_M_impl._M_finish,
 624:/Library/DaisyToolchain/0.2.0/arm/arm-none-eabi/include/c++/10.3.1/bits/deque.tcc **** 					    _M_get_Tp_allocator());
 625:/Library/DaisyToolchain/0.2.0/arm/arm-none-eabi/include/c++/10.3.1/bits/deque.tcc **** 		this->_M_impl._M_finish = __new_finish;
 626:/Library/DaisyToolchain/0.2.0/arm/arm-none-eabi/include/c++/10.3.1/bits/deque.tcc **** 	      }
 627:/Library/DaisyToolchain/0.2.0/arm/arm-none-eabi/include/c++/10.3.1/bits/deque.tcc **** 	    __catch(...)
 628:/Library/DaisyToolchain/0.2.0/arm/arm-none-eabi/include/c++/10.3.1/bits/deque.tcc **** 	      {
ARM GAS  /var/folders/s6/2bsynnl15rj0bwtb9pgx4dc00000gn/T//cc76hY55.s 			page 123


 629:/Library/DaisyToolchain/0.2.0/arm/arm-none-eabi/include/c++/10.3.1/bits/deque.tcc **** 		_M_destroy_nodes(this->_M_impl._M_finish._M_node + 1,
 630:/Library/DaisyToolchain/0.2.0/arm/arm-none-eabi/include/c++/10.3.1/bits/deque.tcc **** 				 __new_finish._M_node + 1);
 631:/Library/DaisyToolchain/0.2.0/arm/arm-none-eabi/include/c++/10.3.1/bits/deque.tcc **** 		__throw_exception_again;
 632:/Library/DaisyToolchain/0.2.0/arm/arm-none-eabi/include/c++/10.3.1/bits/deque.tcc **** 	      }
 633:/Library/DaisyToolchain/0.2.0/arm/arm-none-eabi/include/c++/10.3.1/bits/deque.tcc **** 	  }
 634:/Library/DaisyToolchain/0.2.0/arm/arm-none-eabi/include/c++/10.3.1/bits/deque.tcc **** 	else
 635:/Library/DaisyToolchain/0.2.0/arm/arm-none-eabi/include/c++/10.3.1/bits/deque.tcc **** 	  _M_insert_aux(__pos, __first, __last, __n);
 636:/Library/DaisyToolchain/0.2.0/arm/arm-none-eabi/include/c++/10.3.1/bits/deque.tcc ****       }
 637:/Library/DaisyToolchain/0.2.0/arm/arm-none-eabi/include/c++/10.3.1/bits/deque.tcc **** 
 638:/Library/DaisyToolchain/0.2.0/arm/arm-none-eabi/include/c++/10.3.1/bits/deque.tcc ****   template<typename _Tp, typename _Alloc>
 639:/Library/DaisyToolchain/0.2.0/arm/arm-none-eabi/include/c++/10.3.1/bits/deque.tcc **** #if __cplusplus >= 201103L
 640:/Library/DaisyToolchain/0.2.0/arm/arm-none-eabi/include/c++/10.3.1/bits/deque.tcc ****     template<typename... _Args>
 641:/Library/DaisyToolchain/0.2.0/arm/arm-none-eabi/include/c++/10.3.1/bits/deque.tcc ****       typename deque<_Tp, _Alloc>::iterator
 642:/Library/DaisyToolchain/0.2.0/arm/arm-none-eabi/include/c++/10.3.1/bits/deque.tcc ****       deque<_Tp, _Alloc>::
 643:/Library/DaisyToolchain/0.2.0/arm/arm-none-eabi/include/c++/10.3.1/bits/deque.tcc ****       _M_insert_aux(iterator __pos, _Args&&... __args)
 644:/Library/DaisyToolchain/0.2.0/arm/arm-none-eabi/include/c++/10.3.1/bits/deque.tcc ****       {
 645:/Library/DaisyToolchain/0.2.0/arm/arm-none-eabi/include/c++/10.3.1/bits/deque.tcc **** 	value_type __x_copy(std::forward<_Args>(__args)...); // XXX copy
 646:/Library/DaisyToolchain/0.2.0/arm/arm-none-eabi/include/c++/10.3.1/bits/deque.tcc **** #else
 647:/Library/DaisyToolchain/0.2.0/arm/arm-none-eabi/include/c++/10.3.1/bits/deque.tcc ****     typename deque<_Tp, _Alloc>::iterator
 648:/Library/DaisyToolchain/0.2.0/arm/arm-none-eabi/include/c++/10.3.1/bits/deque.tcc ****       deque<_Tp, _Alloc>::
 649:/Library/DaisyToolchain/0.2.0/arm/arm-none-eabi/include/c++/10.3.1/bits/deque.tcc ****       _M_insert_aux(iterator __pos, const value_type& __x)
 650:/Library/DaisyToolchain/0.2.0/arm/arm-none-eabi/include/c++/10.3.1/bits/deque.tcc ****       {
 651:/Library/DaisyToolchain/0.2.0/arm/arm-none-eabi/include/c++/10.3.1/bits/deque.tcc **** 	value_type __x_copy = __x; // XXX copy
 652:/Library/DaisyToolchain/0.2.0/arm/arm-none-eabi/include/c++/10.3.1/bits/deque.tcc **** #endif
 653:/Library/DaisyToolchain/0.2.0/arm/arm-none-eabi/include/c++/10.3.1/bits/deque.tcc **** 	difference_type __index = __pos - this->_M_impl._M_start;
 654:/Library/DaisyToolchain/0.2.0/arm/arm-none-eabi/include/c++/10.3.1/bits/deque.tcc **** 	if (static_cast<size_type>(__index) < size() / 2)
 655:/Library/DaisyToolchain/0.2.0/arm/arm-none-eabi/include/c++/10.3.1/bits/deque.tcc **** 	  {
 656:/Library/DaisyToolchain/0.2.0/arm/arm-none-eabi/include/c++/10.3.1/bits/deque.tcc **** 	    push_front(_GLIBCXX_MOVE(front()));
 657:/Library/DaisyToolchain/0.2.0/arm/arm-none-eabi/include/c++/10.3.1/bits/deque.tcc **** 	    iterator __front1 = this->_M_impl._M_start;
 658:/Library/DaisyToolchain/0.2.0/arm/arm-none-eabi/include/c++/10.3.1/bits/deque.tcc **** 	    ++__front1;
 659:/Library/DaisyToolchain/0.2.0/arm/arm-none-eabi/include/c++/10.3.1/bits/deque.tcc **** 	    iterator __front2 = __front1;
 660:/Library/DaisyToolchain/0.2.0/arm/arm-none-eabi/include/c++/10.3.1/bits/deque.tcc **** 	    ++__front2;
 661:/Library/DaisyToolchain/0.2.0/arm/arm-none-eabi/include/c++/10.3.1/bits/deque.tcc **** 	    __pos = this->_M_impl._M_start + __index;
 662:/Library/DaisyToolchain/0.2.0/arm/arm-none-eabi/include/c++/10.3.1/bits/deque.tcc **** 	    iterator __pos1 = __pos;
 663:/Library/DaisyToolchain/0.2.0/arm/arm-none-eabi/include/c++/10.3.1/bits/deque.tcc **** 	    ++__pos1;
 664:/Library/DaisyToolchain/0.2.0/arm/arm-none-eabi/include/c++/10.3.1/bits/deque.tcc **** 	    _GLIBCXX_MOVE3(__front2, __pos1, __front1);
 665:/Library/DaisyToolchain/0.2.0/arm/arm-none-eabi/include/c++/10.3.1/bits/deque.tcc **** 	  }
 666:/Library/DaisyToolchain/0.2.0/arm/arm-none-eabi/include/c++/10.3.1/bits/deque.tcc **** 	else
 667:/Library/DaisyToolchain/0.2.0/arm/arm-none-eabi/include/c++/10.3.1/bits/deque.tcc **** 	  {
 668:/Library/DaisyToolchain/0.2.0/arm/arm-none-eabi/include/c++/10.3.1/bits/deque.tcc **** 	    push_back(_GLIBCXX_MOVE(back()));
 669:/Library/DaisyToolchain/0.2.0/arm/arm-none-eabi/include/c++/10.3.1/bits/deque.tcc **** 	    iterator __back1 = this->_M_impl._M_finish;
 670:/Library/DaisyToolchain/0.2.0/arm/arm-none-eabi/include/c++/10.3.1/bits/deque.tcc **** 	    --__back1;
 671:/Library/DaisyToolchain/0.2.0/arm/arm-none-eabi/include/c++/10.3.1/bits/deque.tcc **** 	    iterator __back2 = __back1;
 672:/Library/DaisyToolchain/0.2.0/arm/arm-none-eabi/include/c++/10.3.1/bits/deque.tcc **** 	    --__back2;
 673:/Library/DaisyToolchain/0.2.0/arm/arm-none-eabi/include/c++/10.3.1/bits/deque.tcc **** 	    __pos = this->_M_impl._M_start + __index;
 674:/Library/DaisyToolchain/0.2.0/arm/arm-none-eabi/include/c++/10.3.1/bits/deque.tcc **** 	    _GLIBCXX_MOVE_BACKWARD3(__pos, __back2, __back1);
 675:/Library/DaisyToolchain/0.2.0/arm/arm-none-eabi/include/c++/10.3.1/bits/deque.tcc **** 	  }
 676:/Library/DaisyToolchain/0.2.0/arm/arm-none-eabi/include/c++/10.3.1/bits/deque.tcc **** 	*__pos = _GLIBCXX_MOVE(__x_copy);
 677:/Library/DaisyToolchain/0.2.0/arm/arm-none-eabi/include/c++/10.3.1/bits/deque.tcc **** 	return __pos;
 678:/Library/DaisyToolchain/0.2.0/arm/arm-none-eabi/include/c++/10.3.1/bits/deque.tcc ****       }
 679:/Library/DaisyToolchain/0.2.0/arm/arm-none-eabi/include/c++/10.3.1/bits/deque.tcc **** 
 680:/Library/DaisyToolchain/0.2.0/arm/arm-none-eabi/include/c++/10.3.1/bits/deque.tcc ****   template <typename _Tp, typename _Alloc>
 681:/Library/DaisyToolchain/0.2.0/arm/arm-none-eabi/include/c++/10.3.1/bits/deque.tcc ****     void
 682:/Library/DaisyToolchain/0.2.0/arm/arm-none-eabi/include/c++/10.3.1/bits/deque.tcc ****     deque<_Tp, _Alloc>::
 683:/Library/DaisyToolchain/0.2.0/arm/arm-none-eabi/include/c++/10.3.1/bits/deque.tcc ****     _M_insert_aux(iterator __pos, size_type __n, const value_type& __x)
 684:/Library/DaisyToolchain/0.2.0/arm/arm-none-eabi/include/c++/10.3.1/bits/deque.tcc ****     {
 685:/Library/DaisyToolchain/0.2.0/arm/arm-none-eabi/include/c++/10.3.1/bits/deque.tcc ****       const difference_type __elems_before = __pos - this->_M_impl._M_start;
ARM GAS  /var/folders/s6/2bsynnl15rj0bwtb9pgx4dc00000gn/T//cc76hY55.s 			page 124


 686:/Library/DaisyToolchain/0.2.0/arm/arm-none-eabi/include/c++/10.3.1/bits/deque.tcc ****       const size_type __length = this->size();
 687:/Library/DaisyToolchain/0.2.0/arm/arm-none-eabi/include/c++/10.3.1/bits/deque.tcc ****       value_type __x_copy = __x;
 688:/Library/DaisyToolchain/0.2.0/arm/arm-none-eabi/include/c++/10.3.1/bits/deque.tcc ****       if (__elems_before < difference_type(__length / 2))
 689:/Library/DaisyToolchain/0.2.0/arm/arm-none-eabi/include/c++/10.3.1/bits/deque.tcc **** 	{
 690:/Library/DaisyToolchain/0.2.0/arm/arm-none-eabi/include/c++/10.3.1/bits/deque.tcc **** 	  iterator __new_start = _M_reserve_elements_at_front(__n);
 691:/Library/DaisyToolchain/0.2.0/arm/arm-none-eabi/include/c++/10.3.1/bits/deque.tcc **** 	  iterator __old_start = this->_M_impl._M_start;
 692:/Library/DaisyToolchain/0.2.0/arm/arm-none-eabi/include/c++/10.3.1/bits/deque.tcc **** 	  __pos = this->_M_impl._M_start + __elems_before;
 693:/Library/DaisyToolchain/0.2.0/arm/arm-none-eabi/include/c++/10.3.1/bits/deque.tcc **** 	  __try
 694:/Library/DaisyToolchain/0.2.0/arm/arm-none-eabi/include/c++/10.3.1/bits/deque.tcc **** 	    {
 695:/Library/DaisyToolchain/0.2.0/arm/arm-none-eabi/include/c++/10.3.1/bits/deque.tcc **** 	      if (__elems_before >= difference_type(__n))
 696:/Library/DaisyToolchain/0.2.0/arm/arm-none-eabi/include/c++/10.3.1/bits/deque.tcc **** 		{
 697:/Library/DaisyToolchain/0.2.0/arm/arm-none-eabi/include/c++/10.3.1/bits/deque.tcc **** 		  iterator __start_n = (this->_M_impl._M_start
 698:/Library/DaisyToolchain/0.2.0/arm/arm-none-eabi/include/c++/10.3.1/bits/deque.tcc **** 					+ difference_type(__n));
 699:/Library/DaisyToolchain/0.2.0/arm/arm-none-eabi/include/c++/10.3.1/bits/deque.tcc **** 		  std::__uninitialized_move_a(this->_M_impl._M_start,
 700:/Library/DaisyToolchain/0.2.0/arm/arm-none-eabi/include/c++/10.3.1/bits/deque.tcc **** 					      __start_n, __new_start,
 701:/Library/DaisyToolchain/0.2.0/arm/arm-none-eabi/include/c++/10.3.1/bits/deque.tcc **** 					      _M_get_Tp_allocator());
 702:/Library/DaisyToolchain/0.2.0/arm/arm-none-eabi/include/c++/10.3.1/bits/deque.tcc **** 		  this->_M_impl._M_start = __new_start;
 703:/Library/DaisyToolchain/0.2.0/arm/arm-none-eabi/include/c++/10.3.1/bits/deque.tcc **** 		  _GLIBCXX_MOVE3(__start_n, __pos, __old_start);
 704:/Library/DaisyToolchain/0.2.0/arm/arm-none-eabi/include/c++/10.3.1/bits/deque.tcc **** 		  std::fill(__pos - difference_type(__n), __pos, __x_copy);
 705:/Library/DaisyToolchain/0.2.0/arm/arm-none-eabi/include/c++/10.3.1/bits/deque.tcc **** 		}
 706:/Library/DaisyToolchain/0.2.0/arm/arm-none-eabi/include/c++/10.3.1/bits/deque.tcc **** 	      else
 707:/Library/DaisyToolchain/0.2.0/arm/arm-none-eabi/include/c++/10.3.1/bits/deque.tcc **** 		{
 708:/Library/DaisyToolchain/0.2.0/arm/arm-none-eabi/include/c++/10.3.1/bits/deque.tcc **** 		  std::__uninitialized_move_fill(this->_M_impl._M_start,
 709:/Library/DaisyToolchain/0.2.0/arm/arm-none-eabi/include/c++/10.3.1/bits/deque.tcc **** 						 __pos, __new_start,
 710:/Library/DaisyToolchain/0.2.0/arm/arm-none-eabi/include/c++/10.3.1/bits/deque.tcc **** 						 this->_M_impl._M_start,
 711:/Library/DaisyToolchain/0.2.0/arm/arm-none-eabi/include/c++/10.3.1/bits/deque.tcc **** 						 __x_copy,
 712:/Library/DaisyToolchain/0.2.0/arm/arm-none-eabi/include/c++/10.3.1/bits/deque.tcc **** 						 _M_get_Tp_allocator());
 713:/Library/DaisyToolchain/0.2.0/arm/arm-none-eabi/include/c++/10.3.1/bits/deque.tcc **** 		  this->_M_impl._M_start = __new_start;
 714:/Library/DaisyToolchain/0.2.0/arm/arm-none-eabi/include/c++/10.3.1/bits/deque.tcc **** 		  std::fill(__old_start, __pos, __x_copy);
 715:/Library/DaisyToolchain/0.2.0/arm/arm-none-eabi/include/c++/10.3.1/bits/deque.tcc **** 		}
 716:/Library/DaisyToolchain/0.2.0/arm/arm-none-eabi/include/c++/10.3.1/bits/deque.tcc **** 	    }
 717:/Library/DaisyToolchain/0.2.0/arm/arm-none-eabi/include/c++/10.3.1/bits/deque.tcc **** 	  __catch(...)
 718:/Library/DaisyToolchain/0.2.0/arm/arm-none-eabi/include/c++/10.3.1/bits/deque.tcc **** 	    {
 719:/Library/DaisyToolchain/0.2.0/arm/arm-none-eabi/include/c++/10.3.1/bits/deque.tcc **** 	      _M_destroy_nodes(__new_start._M_node,
 720:/Library/DaisyToolchain/0.2.0/arm/arm-none-eabi/include/c++/10.3.1/bits/deque.tcc **** 			       this->_M_impl._M_start._M_node);
 721:/Library/DaisyToolchain/0.2.0/arm/arm-none-eabi/include/c++/10.3.1/bits/deque.tcc **** 	      __throw_exception_again;
 722:/Library/DaisyToolchain/0.2.0/arm/arm-none-eabi/include/c++/10.3.1/bits/deque.tcc **** 	    }
 723:/Library/DaisyToolchain/0.2.0/arm/arm-none-eabi/include/c++/10.3.1/bits/deque.tcc **** 	}
 724:/Library/DaisyToolchain/0.2.0/arm/arm-none-eabi/include/c++/10.3.1/bits/deque.tcc ****       else
 725:/Library/DaisyToolchain/0.2.0/arm/arm-none-eabi/include/c++/10.3.1/bits/deque.tcc **** 	{
 726:/Library/DaisyToolchain/0.2.0/arm/arm-none-eabi/include/c++/10.3.1/bits/deque.tcc **** 	  iterator __new_finish = _M_reserve_elements_at_back(__n);
 727:/Library/DaisyToolchain/0.2.0/arm/arm-none-eabi/include/c++/10.3.1/bits/deque.tcc **** 	  iterator __old_finish = this->_M_impl._M_finish;
 728:/Library/DaisyToolchain/0.2.0/arm/arm-none-eabi/include/c++/10.3.1/bits/deque.tcc **** 	  const difference_type __elems_after =
 729:/Library/DaisyToolchain/0.2.0/arm/arm-none-eabi/include/c++/10.3.1/bits/deque.tcc **** 	    difference_type(__length) - __elems_before;
 730:/Library/DaisyToolchain/0.2.0/arm/arm-none-eabi/include/c++/10.3.1/bits/deque.tcc **** 	  __pos = this->_M_impl._M_finish - __elems_after;
 731:/Library/DaisyToolchain/0.2.0/arm/arm-none-eabi/include/c++/10.3.1/bits/deque.tcc **** 	  __try
 732:/Library/DaisyToolchain/0.2.0/arm/arm-none-eabi/include/c++/10.3.1/bits/deque.tcc **** 	    {
 733:/Library/DaisyToolchain/0.2.0/arm/arm-none-eabi/include/c++/10.3.1/bits/deque.tcc **** 	      if (__elems_after > difference_type(__n))
 734:/Library/DaisyToolchain/0.2.0/arm/arm-none-eabi/include/c++/10.3.1/bits/deque.tcc **** 		{
 735:/Library/DaisyToolchain/0.2.0/arm/arm-none-eabi/include/c++/10.3.1/bits/deque.tcc **** 		  iterator __finish_n = (this->_M_impl._M_finish
 736:/Library/DaisyToolchain/0.2.0/arm/arm-none-eabi/include/c++/10.3.1/bits/deque.tcc **** 					 - difference_type(__n));
 737:/Library/DaisyToolchain/0.2.0/arm/arm-none-eabi/include/c++/10.3.1/bits/deque.tcc **** 		  std::__uninitialized_move_a(__finish_n,
 738:/Library/DaisyToolchain/0.2.0/arm/arm-none-eabi/include/c++/10.3.1/bits/deque.tcc **** 					      this->_M_impl._M_finish,
 739:/Library/DaisyToolchain/0.2.0/arm/arm-none-eabi/include/c++/10.3.1/bits/deque.tcc **** 					      this->_M_impl._M_finish,
 740:/Library/DaisyToolchain/0.2.0/arm/arm-none-eabi/include/c++/10.3.1/bits/deque.tcc **** 					      _M_get_Tp_allocator());
 741:/Library/DaisyToolchain/0.2.0/arm/arm-none-eabi/include/c++/10.3.1/bits/deque.tcc **** 		  this->_M_impl._M_finish = __new_finish;
 742:/Library/DaisyToolchain/0.2.0/arm/arm-none-eabi/include/c++/10.3.1/bits/deque.tcc **** 		  _GLIBCXX_MOVE_BACKWARD3(__pos, __finish_n, __old_finish);
ARM GAS  /var/folders/s6/2bsynnl15rj0bwtb9pgx4dc00000gn/T//cc76hY55.s 			page 125


 743:/Library/DaisyToolchain/0.2.0/arm/arm-none-eabi/include/c++/10.3.1/bits/deque.tcc **** 		  std::fill(__pos, __pos + difference_type(__n), __x_copy);
 744:/Library/DaisyToolchain/0.2.0/arm/arm-none-eabi/include/c++/10.3.1/bits/deque.tcc **** 		}
 745:/Library/DaisyToolchain/0.2.0/arm/arm-none-eabi/include/c++/10.3.1/bits/deque.tcc **** 	      else
 746:/Library/DaisyToolchain/0.2.0/arm/arm-none-eabi/include/c++/10.3.1/bits/deque.tcc **** 		{
 747:/Library/DaisyToolchain/0.2.0/arm/arm-none-eabi/include/c++/10.3.1/bits/deque.tcc **** 		  std::__uninitialized_fill_move(this->_M_impl._M_finish,
 748:/Library/DaisyToolchain/0.2.0/arm/arm-none-eabi/include/c++/10.3.1/bits/deque.tcc **** 						 __pos + difference_type(__n),
 749:/Library/DaisyToolchain/0.2.0/arm/arm-none-eabi/include/c++/10.3.1/bits/deque.tcc **** 						 __x_copy, __pos,
 750:/Library/DaisyToolchain/0.2.0/arm/arm-none-eabi/include/c++/10.3.1/bits/deque.tcc **** 						 this->_M_impl._M_finish,
 751:/Library/DaisyToolchain/0.2.0/arm/arm-none-eabi/include/c++/10.3.1/bits/deque.tcc **** 						 _M_get_Tp_allocator());
 752:/Library/DaisyToolchain/0.2.0/arm/arm-none-eabi/include/c++/10.3.1/bits/deque.tcc **** 		  this->_M_impl._M_finish = __new_finish;
 753:/Library/DaisyToolchain/0.2.0/arm/arm-none-eabi/include/c++/10.3.1/bits/deque.tcc **** 		  std::fill(__pos, __old_finish, __x_copy);
 754:/Library/DaisyToolchain/0.2.0/arm/arm-none-eabi/include/c++/10.3.1/bits/deque.tcc **** 		}
 755:/Library/DaisyToolchain/0.2.0/arm/arm-none-eabi/include/c++/10.3.1/bits/deque.tcc **** 	    }
 756:/Library/DaisyToolchain/0.2.0/arm/arm-none-eabi/include/c++/10.3.1/bits/deque.tcc **** 	  __catch(...)
 757:/Library/DaisyToolchain/0.2.0/arm/arm-none-eabi/include/c++/10.3.1/bits/deque.tcc **** 	    {
 758:/Library/DaisyToolchain/0.2.0/arm/arm-none-eabi/include/c++/10.3.1/bits/deque.tcc **** 	      _M_destroy_nodes(this->_M_impl._M_finish._M_node + 1,
 759:/Library/DaisyToolchain/0.2.0/arm/arm-none-eabi/include/c++/10.3.1/bits/deque.tcc **** 			       __new_finish._M_node + 1);
 760:/Library/DaisyToolchain/0.2.0/arm/arm-none-eabi/include/c++/10.3.1/bits/deque.tcc **** 	      __throw_exception_again;
 761:/Library/DaisyToolchain/0.2.0/arm/arm-none-eabi/include/c++/10.3.1/bits/deque.tcc **** 	    }
 762:/Library/DaisyToolchain/0.2.0/arm/arm-none-eabi/include/c++/10.3.1/bits/deque.tcc **** 	}
 763:/Library/DaisyToolchain/0.2.0/arm/arm-none-eabi/include/c++/10.3.1/bits/deque.tcc ****     }
 764:/Library/DaisyToolchain/0.2.0/arm/arm-none-eabi/include/c++/10.3.1/bits/deque.tcc **** 
 765:/Library/DaisyToolchain/0.2.0/arm/arm-none-eabi/include/c++/10.3.1/bits/deque.tcc ****   template <typename _Tp, typename _Alloc>
 766:/Library/DaisyToolchain/0.2.0/arm/arm-none-eabi/include/c++/10.3.1/bits/deque.tcc ****     template <typename _ForwardIterator>
 767:/Library/DaisyToolchain/0.2.0/arm/arm-none-eabi/include/c++/10.3.1/bits/deque.tcc ****       void
 768:/Library/DaisyToolchain/0.2.0/arm/arm-none-eabi/include/c++/10.3.1/bits/deque.tcc ****       deque<_Tp, _Alloc>::
 769:/Library/DaisyToolchain/0.2.0/arm/arm-none-eabi/include/c++/10.3.1/bits/deque.tcc ****       _M_insert_aux(iterator __pos,
 770:/Library/DaisyToolchain/0.2.0/arm/arm-none-eabi/include/c++/10.3.1/bits/deque.tcc **** 		    _ForwardIterator __first, _ForwardIterator __last,
 771:/Library/DaisyToolchain/0.2.0/arm/arm-none-eabi/include/c++/10.3.1/bits/deque.tcc **** 		    size_type __n)
 772:/Library/DaisyToolchain/0.2.0/arm/arm-none-eabi/include/c++/10.3.1/bits/deque.tcc ****       {
 773:/Library/DaisyToolchain/0.2.0/arm/arm-none-eabi/include/c++/10.3.1/bits/deque.tcc **** 	const difference_type __elemsbefore = __pos - this->_M_impl._M_start;
 774:/Library/DaisyToolchain/0.2.0/arm/arm-none-eabi/include/c++/10.3.1/bits/deque.tcc **** 	const size_type __length = size();
 775:/Library/DaisyToolchain/0.2.0/arm/arm-none-eabi/include/c++/10.3.1/bits/deque.tcc **** 	if (static_cast<size_type>(__elemsbefore) < __length / 2)
 776:/Library/DaisyToolchain/0.2.0/arm/arm-none-eabi/include/c++/10.3.1/bits/deque.tcc **** 	  {
 777:/Library/DaisyToolchain/0.2.0/arm/arm-none-eabi/include/c++/10.3.1/bits/deque.tcc **** 	    iterator __new_start = _M_reserve_elements_at_front(__n);
 778:/Library/DaisyToolchain/0.2.0/arm/arm-none-eabi/include/c++/10.3.1/bits/deque.tcc **** 	    iterator __old_start = this->_M_impl._M_start;
 779:/Library/DaisyToolchain/0.2.0/arm/arm-none-eabi/include/c++/10.3.1/bits/deque.tcc **** 	    __pos = this->_M_impl._M_start + __elemsbefore;
 780:/Library/DaisyToolchain/0.2.0/arm/arm-none-eabi/include/c++/10.3.1/bits/deque.tcc **** 	    __try
 781:/Library/DaisyToolchain/0.2.0/arm/arm-none-eabi/include/c++/10.3.1/bits/deque.tcc **** 	      {
 782:/Library/DaisyToolchain/0.2.0/arm/arm-none-eabi/include/c++/10.3.1/bits/deque.tcc **** 		if (__elemsbefore >= difference_type(__n))
 783:/Library/DaisyToolchain/0.2.0/arm/arm-none-eabi/include/c++/10.3.1/bits/deque.tcc **** 		  {
 784:/Library/DaisyToolchain/0.2.0/arm/arm-none-eabi/include/c++/10.3.1/bits/deque.tcc **** 		    iterator __start_n = (this->_M_impl._M_start
 785:/Library/DaisyToolchain/0.2.0/arm/arm-none-eabi/include/c++/10.3.1/bits/deque.tcc **** 					  + difference_type(__n));
 786:/Library/DaisyToolchain/0.2.0/arm/arm-none-eabi/include/c++/10.3.1/bits/deque.tcc **** 		    std::__uninitialized_move_a(this->_M_impl._M_start,
 787:/Library/DaisyToolchain/0.2.0/arm/arm-none-eabi/include/c++/10.3.1/bits/deque.tcc **** 						__start_n, __new_start,
 788:/Library/DaisyToolchain/0.2.0/arm/arm-none-eabi/include/c++/10.3.1/bits/deque.tcc **** 						_M_get_Tp_allocator());
 789:/Library/DaisyToolchain/0.2.0/arm/arm-none-eabi/include/c++/10.3.1/bits/deque.tcc **** 		    this->_M_impl._M_start = __new_start;
 790:/Library/DaisyToolchain/0.2.0/arm/arm-none-eabi/include/c++/10.3.1/bits/deque.tcc **** 		    _GLIBCXX_MOVE3(__start_n, __pos, __old_start);
 791:/Library/DaisyToolchain/0.2.0/arm/arm-none-eabi/include/c++/10.3.1/bits/deque.tcc **** 		    std::copy(__first, __last, __pos - difference_type(__n));
 792:/Library/DaisyToolchain/0.2.0/arm/arm-none-eabi/include/c++/10.3.1/bits/deque.tcc **** 		  }
 793:/Library/DaisyToolchain/0.2.0/arm/arm-none-eabi/include/c++/10.3.1/bits/deque.tcc **** 		else
 794:/Library/DaisyToolchain/0.2.0/arm/arm-none-eabi/include/c++/10.3.1/bits/deque.tcc **** 		  {
 795:/Library/DaisyToolchain/0.2.0/arm/arm-none-eabi/include/c++/10.3.1/bits/deque.tcc **** 		    _ForwardIterator __mid = __first;
 796:/Library/DaisyToolchain/0.2.0/arm/arm-none-eabi/include/c++/10.3.1/bits/deque.tcc **** 		    std::advance(__mid, difference_type(__n) - __elemsbefore);
 797:/Library/DaisyToolchain/0.2.0/arm/arm-none-eabi/include/c++/10.3.1/bits/deque.tcc **** 		    std::__uninitialized_move_copy(this->_M_impl._M_start,
 798:/Library/DaisyToolchain/0.2.0/arm/arm-none-eabi/include/c++/10.3.1/bits/deque.tcc **** 						   __pos, __first, __mid,
 799:/Library/DaisyToolchain/0.2.0/arm/arm-none-eabi/include/c++/10.3.1/bits/deque.tcc **** 						   __new_start,
ARM GAS  /var/folders/s6/2bsynnl15rj0bwtb9pgx4dc00000gn/T//cc76hY55.s 			page 126


 800:/Library/DaisyToolchain/0.2.0/arm/arm-none-eabi/include/c++/10.3.1/bits/deque.tcc **** 						   _M_get_Tp_allocator());
 801:/Library/DaisyToolchain/0.2.0/arm/arm-none-eabi/include/c++/10.3.1/bits/deque.tcc **** 		    this->_M_impl._M_start = __new_start;
 802:/Library/DaisyToolchain/0.2.0/arm/arm-none-eabi/include/c++/10.3.1/bits/deque.tcc **** 		    std::copy(__mid, __last, __old_start);
 803:/Library/DaisyToolchain/0.2.0/arm/arm-none-eabi/include/c++/10.3.1/bits/deque.tcc **** 		  }
 804:/Library/DaisyToolchain/0.2.0/arm/arm-none-eabi/include/c++/10.3.1/bits/deque.tcc **** 	      }
 805:/Library/DaisyToolchain/0.2.0/arm/arm-none-eabi/include/c++/10.3.1/bits/deque.tcc **** 	    __catch(...)
 806:/Library/DaisyToolchain/0.2.0/arm/arm-none-eabi/include/c++/10.3.1/bits/deque.tcc **** 	      {
 807:/Library/DaisyToolchain/0.2.0/arm/arm-none-eabi/include/c++/10.3.1/bits/deque.tcc **** 		_M_destroy_nodes(__new_start._M_node,
 808:/Library/DaisyToolchain/0.2.0/arm/arm-none-eabi/include/c++/10.3.1/bits/deque.tcc **** 				 this->_M_impl._M_start._M_node);
 809:/Library/DaisyToolchain/0.2.0/arm/arm-none-eabi/include/c++/10.3.1/bits/deque.tcc **** 		__throw_exception_again;
 810:/Library/DaisyToolchain/0.2.0/arm/arm-none-eabi/include/c++/10.3.1/bits/deque.tcc **** 	      }
 811:/Library/DaisyToolchain/0.2.0/arm/arm-none-eabi/include/c++/10.3.1/bits/deque.tcc **** 	  }
 812:/Library/DaisyToolchain/0.2.0/arm/arm-none-eabi/include/c++/10.3.1/bits/deque.tcc **** 	else
 813:/Library/DaisyToolchain/0.2.0/arm/arm-none-eabi/include/c++/10.3.1/bits/deque.tcc **** 	{
 814:/Library/DaisyToolchain/0.2.0/arm/arm-none-eabi/include/c++/10.3.1/bits/deque.tcc **** 	  iterator __new_finish = _M_reserve_elements_at_back(__n);
 815:/Library/DaisyToolchain/0.2.0/arm/arm-none-eabi/include/c++/10.3.1/bits/deque.tcc **** 	  iterator __old_finish = this->_M_impl._M_finish;
 816:/Library/DaisyToolchain/0.2.0/arm/arm-none-eabi/include/c++/10.3.1/bits/deque.tcc **** 	  const difference_type __elemsafter =
 817:/Library/DaisyToolchain/0.2.0/arm/arm-none-eabi/include/c++/10.3.1/bits/deque.tcc **** 	    difference_type(__length) - __elemsbefore;
 818:/Library/DaisyToolchain/0.2.0/arm/arm-none-eabi/include/c++/10.3.1/bits/deque.tcc **** 	  __pos = this->_M_impl._M_finish - __elemsafter;
 819:/Library/DaisyToolchain/0.2.0/arm/arm-none-eabi/include/c++/10.3.1/bits/deque.tcc **** 	  __try
 820:/Library/DaisyToolchain/0.2.0/arm/arm-none-eabi/include/c++/10.3.1/bits/deque.tcc **** 	    {
 821:/Library/DaisyToolchain/0.2.0/arm/arm-none-eabi/include/c++/10.3.1/bits/deque.tcc **** 	      if (__elemsafter > difference_type(__n))
 822:/Library/DaisyToolchain/0.2.0/arm/arm-none-eabi/include/c++/10.3.1/bits/deque.tcc **** 		{
 823:/Library/DaisyToolchain/0.2.0/arm/arm-none-eabi/include/c++/10.3.1/bits/deque.tcc **** 		  iterator __finish_n = (this->_M_impl._M_finish
 824:/Library/DaisyToolchain/0.2.0/arm/arm-none-eabi/include/c++/10.3.1/bits/deque.tcc **** 					 - difference_type(__n));
 825:/Library/DaisyToolchain/0.2.0/arm/arm-none-eabi/include/c++/10.3.1/bits/deque.tcc **** 		  std::__uninitialized_move_a(__finish_n,
 826:/Library/DaisyToolchain/0.2.0/arm/arm-none-eabi/include/c++/10.3.1/bits/deque.tcc **** 					      this->_M_impl._M_finish,
 827:/Library/DaisyToolchain/0.2.0/arm/arm-none-eabi/include/c++/10.3.1/bits/deque.tcc **** 					      this->_M_impl._M_finish,
 828:/Library/DaisyToolchain/0.2.0/arm/arm-none-eabi/include/c++/10.3.1/bits/deque.tcc **** 					      _M_get_Tp_allocator());
 829:/Library/DaisyToolchain/0.2.0/arm/arm-none-eabi/include/c++/10.3.1/bits/deque.tcc **** 		  this->_M_impl._M_finish = __new_finish;
 830:/Library/DaisyToolchain/0.2.0/arm/arm-none-eabi/include/c++/10.3.1/bits/deque.tcc **** 		  _GLIBCXX_MOVE_BACKWARD3(__pos, __finish_n, __old_finish);
 831:/Library/DaisyToolchain/0.2.0/arm/arm-none-eabi/include/c++/10.3.1/bits/deque.tcc **** 		  std::copy(__first, __last, __pos);
 832:/Library/DaisyToolchain/0.2.0/arm/arm-none-eabi/include/c++/10.3.1/bits/deque.tcc **** 		}
 833:/Library/DaisyToolchain/0.2.0/arm/arm-none-eabi/include/c++/10.3.1/bits/deque.tcc **** 	      else
 834:/Library/DaisyToolchain/0.2.0/arm/arm-none-eabi/include/c++/10.3.1/bits/deque.tcc **** 		{
 835:/Library/DaisyToolchain/0.2.0/arm/arm-none-eabi/include/c++/10.3.1/bits/deque.tcc **** 		  _ForwardIterator __mid = __first;
 836:/Library/DaisyToolchain/0.2.0/arm/arm-none-eabi/include/c++/10.3.1/bits/deque.tcc **** 		  std::advance(__mid, __elemsafter);
 837:/Library/DaisyToolchain/0.2.0/arm/arm-none-eabi/include/c++/10.3.1/bits/deque.tcc **** 		  std::__uninitialized_copy_move(__mid, __last, __pos,
 838:/Library/DaisyToolchain/0.2.0/arm/arm-none-eabi/include/c++/10.3.1/bits/deque.tcc **** 						 this->_M_impl._M_finish,
 839:/Library/DaisyToolchain/0.2.0/arm/arm-none-eabi/include/c++/10.3.1/bits/deque.tcc **** 						 this->_M_impl._M_finish,
 840:/Library/DaisyToolchain/0.2.0/arm/arm-none-eabi/include/c++/10.3.1/bits/deque.tcc **** 						 _M_get_Tp_allocator());
 841:/Library/DaisyToolchain/0.2.0/arm/arm-none-eabi/include/c++/10.3.1/bits/deque.tcc **** 		  this->_M_impl._M_finish = __new_finish;
 842:/Library/DaisyToolchain/0.2.0/arm/arm-none-eabi/include/c++/10.3.1/bits/deque.tcc **** 		  std::copy(__first, __mid, __pos);
 843:/Library/DaisyToolchain/0.2.0/arm/arm-none-eabi/include/c++/10.3.1/bits/deque.tcc **** 		}
 844:/Library/DaisyToolchain/0.2.0/arm/arm-none-eabi/include/c++/10.3.1/bits/deque.tcc **** 	    }
 845:/Library/DaisyToolchain/0.2.0/arm/arm-none-eabi/include/c++/10.3.1/bits/deque.tcc **** 	  __catch(...)
 846:/Library/DaisyToolchain/0.2.0/arm/arm-none-eabi/include/c++/10.3.1/bits/deque.tcc **** 	    {
 847:/Library/DaisyToolchain/0.2.0/arm/arm-none-eabi/include/c++/10.3.1/bits/deque.tcc **** 	      _M_destroy_nodes(this->_M_impl._M_finish._M_node + 1,
 848:/Library/DaisyToolchain/0.2.0/arm/arm-none-eabi/include/c++/10.3.1/bits/deque.tcc **** 			       __new_finish._M_node + 1);
 849:/Library/DaisyToolchain/0.2.0/arm/arm-none-eabi/include/c++/10.3.1/bits/deque.tcc **** 	      __throw_exception_again;
 850:/Library/DaisyToolchain/0.2.0/arm/arm-none-eabi/include/c++/10.3.1/bits/deque.tcc **** 	    }
 851:/Library/DaisyToolchain/0.2.0/arm/arm-none-eabi/include/c++/10.3.1/bits/deque.tcc **** 	}
 852:/Library/DaisyToolchain/0.2.0/arm/arm-none-eabi/include/c++/10.3.1/bits/deque.tcc ****       }
 853:/Library/DaisyToolchain/0.2.0/arm/arm-none-eabi/include/c++/10.3.1/bits/deque.tcc **** 
 854:/Library/DaisyToolchain/0.2.0/arm/arm-none-eabi/include/c++/10.3.1/bits/deque.tcc ****    template<typename _Tp, typename _Alloc>
 855:/Library/DaisyToolchain/0.2.0/arm/arm-none-eabi/include/c++/10.3.1/bits/deque.tcc ****      void
 856:/Library/DaisyToolchain/0.2.0/arm/arm-none-eabi/include/c++/10.3.1/bits/deque.tcc ****      deque<_Tp, _Alloc>::
ARM GAS  /var/folders/s6/2bsynnl15rj0bwtb9pgx4dc00000gn/T//cc76hY55.s 			page 127


 857:/Library/DaisyToolchain/0.2.0/arm/arm-none-eabi/include/c++/10.3.1/bits/deque.tcc ****      _M_destroy_data_aux(iterator __first, iterator __last)
 858:/Library/DaisyToolchain/0.2.0/arm/arm-none-eabi/include/c++/10.3.1/bits/deque.tcc ****      {
 859:/Library/DaisyToolchain/0.2.0/arm/arm-none-eabi/include/c++/10.3.1/bits/deque.tcc ****        for (_Map_pointer __node = __first._M_node + 1;
 860:/Library/DaisyToolchain/0.2.0/arm/arm-none-eabi/include/c++/10.3.1/bits/deque.tcc **** 	    __node < __last._M_node; ++__node)
 861:/Library/DaisyToolchain/0.2.0/arm/arm-none-eabi/include/c++/10.3.1/bits/deque.tcc **** 	 std::_Destroy(*__node, *__node + _S_buffer_size(),
 862:/Library/DaisyToolchain/0.2.0/arm/arm-none-eabi/include/c++/10.3.1/bits/deque.tcc **** 		       _M_get_Tp_allocator());
 863:/Library/DaisyToolchain/0.2.0/arm/arm-none-eabi/include/c++/10.3.1/bits/deque.tcc **** 
 864:/Library/DaisyToolchain/0.2.0/arm/arm-none-eabi/include/c++/10.3.1/bits/deque.tcc ****        if (__first._M_node != __last._M_node)
 865:/Library/DaisyToolchain/0.2.0/arm/arm-none-eabi/include/c++/10.3.1/bits/deque.tcc **** 	 {
 866:/Library/DaisyToolchain/0.2.0/arm/arm-none-eabi/include/c++/10.3.1/bits/deque.tcc **** 	   std::_Destroy(__first._M_cur, __first._M_last,
 867:/Library/DaisyToolchain/0.2.0/arm/arm-none-eabi/include/c++/10.3.1/bits/deque.tcc **** 			 _M_get_Tp_allocator());
 868:/Library/DaisyToolchain/0.2.0/arm/arm-none-eabi/include/c++/10.3.1/bits/deque.tcc **** 	   std::_Destroy(__last._M_first, __last._M_cur,
 869:/Library/DaisyToolchain/0.2.0/arm/arm-none-eabi/include/c++/10.3.1/bits/deque.tcc **** 			 _M_get_Tp_allocator());
 870:/Library/DaisyToolchain/0.2.0/arm/arm-none-eabi/include/c++/10.3.1/bits/deque.tcc **** 	 }
 871:/Library/DaisyToolchain/0.2.0/arm/arm-none-eabi/include/c++/10.3.1/bits/deque.tcc ****        else
 872:/Library/DaisyToolchain/0.2.0/arm/arm-none-eabi/include/c++/10.3.1/bits/deque.tcc **** 	 std::_Destroy(__first._M_cur, __last._M_cur,
 873:/Library/DaisyToolchain/0.2.0/arm/arm-none-eabi/include/c++/10.3.1/bits/deque.tcc **** 		       _M_get_Tp_allocator());
 874:/Library/DaisyToolchain/0.2.0/arm/arm-none-eabi/include/c++/10.3.1/bits/deque.tcc ****      }
 875:/Library/DaisyToolchain/0.2.0/arm/arm-none-eabi/include/c++/10.3.1/bits/deque.tcc **** 
 876:/Library/DaisyToolchain/0.2.0/arm/arm-none-eabi/include/c++/10.3.1/bits/deque.tcc ****   template <typename _Tp, typename _Alloc>
 877:/Library/DaisyToolchain/0.2.0/arm/arm-none-eabi/include/c++/10.3.1/bits/deque.tcc ****     void
 878:/Library/DaisyToolchain/0.2.0/arm/arm-none-eabi/include/c++/10.3.1/bits/deque.tcc ****     deque<_Tp, _Alloc>::
 879:/Library/DaisyToolchain/0.2.0/arm/arm-none-eabi/include/c++/10.3.1/bits/deque.tcc ****     _M_new_elements_at_front(size_type __new_elems)
 880:/Library/DaisyToolchain/0.2.0/arm/arm-none-eabi/include/c++/10.3.1/bits/deque.tcc ****     {
 881:/Library/DaisyToolchain/0.2.0/arm/arm-none-eabi/include/c++/10.3.1/bits/deque.tcc ****       if (this->max_size() - this->size() < __new_elems)
 882:/Library/DaisyToolchain/0.2.0/arm/arm-none-eabi/include/c++/10.3.1/bits/deque.tcc **** 	__throw_length_error(__N("deque::_M_new_elements_at_front"));
 883:/Library/DaisyToolchain/0.2.0/arm/arm-none-eabi/include/c++/10.3.1/bits/deque.tcc **** 
 884:/Library/DaisyToolchain/0.2.0/arm/arm-none-eabi/include/c++/10.3.1/bits/deque.tcc ****       const size_type __new_nodes = ((__new_elems + _S_buffer_size() - 1)
 885:/Library/DaisyToolchain/0.2.0/arm/arm-none-eabi/include/c++/10.3.1/bits/deque.tcc **** 				     / _S_buffer_size());
 886:/Library/DaisyToolchain/0.2.0/arm/arm-none-eabi/include/c++/10.3.1/bits/deque.tcc ****       _M_reserve_map_at_front(__new_nodes);
 887:/Library/DaisyToolchain/0.2.0/arm/arm-none-eabi/include/c++/10.3.1/bits/deque.tcc ****       size_type __i;
 888:/Library/DaisyToolchain/0.2.0/arm/arm-none-eabi/include/c++/10.3.1/bits/deque.tcc ****       __try
 889:/Library/DaisyToolchain/0.2.0/arm/arm-none-eabi/include/c++/10.3.1/bits/deque.tcc **** 	{
 890:/Library/DaisyToolchain/0.2.0/arm/arm-none-eabi/include/c++/10.3.1/bits/deque.tcc **** 	  for (__i = 1; __i <= __new_nodes; ++__i)
 891:/Library/DaisyToolchain/0.2.0/arm/arm-none-eabi/include/c++/10.3.1/bits/deque.tcc **** 	    *(this->_M_impl._M_start._M_node - __i) = this->_M_allocate_node();
 892:/Library/DaisyToolchain/0.2.0/arm/arm-none-eabi/include/c++/10.3.1/bits/deque.tcc **** 	}
 893:/Library/DaisyToolchain/0.2.0/arm/arm-none-eabi/include/c++/10.3.1/bits/deque.tcc ****       __catch(...)
 894:/Library/DaisyToolchain/0.2.0/arm/arm-none-eabi/include/c++/10.3.1/bits/deque.tcc **** 	{
 895:/Library/DaisyToolchain/0.2.0/arm/arm-none-eabi/include/c++/10.3.1/bits/deque.tcc **** 	  for (size_type __j = 1; __j < __i; ++__j)
 896:/Library/DaisyToolchain/0.2.0/arm/arm-none-eabi/include/c++/10.3.1/bits/deque.tcc **** 	    _M_deallocate_node(*(this->_M_impl._M_start._M_node - __j));
 897:/Library/DaisyToolchain/0.2.0/arm/arm-none-eabi/include/c++/10.3.1/bits/deque.tcc **** 	  __throw_exception_again;
 898:/Library/DaisyToolchain/0.2.0/arm/arm-none-eabi/include/c++/10.3.1/bits/deque.tcc **** 	}
 899:/Library/DaisyToolchain/0.2.0/arm/arm-none-eabi/include/c++/10.3.1/bits/deque.tcc ****     }
 900:/Library/DaisyToolchain/0.2.0/arm/arm-none-eabi/include/c++/10.3.1/bits/deque.tcc **** 
 901:/Library/DaisyToolchain/0.2.0/arm/arm-none-eabi/include/c++/10.3.1/bits/deque.tcc ****   template <typename _Tp, typename _Alloc>
 902:/Library/DaisyToolchain/0.2.0/arm/arm-none-eabi/include/c++/10.3.1/bits/deque.tcc ****     void
 903:/Library/DaisyToolchain/0.2.0/arm/arm-none-eabi/include/c++/10.3.1/bits/deque.tcc ****     deque<_Tp, _Alloc>::
 904:/Library/DaisyToolchain/0.2.0/arm/arm-none-eabi/include/c++/10.3.1/bits/deque.tcc ****     _M_new_elements_at_back(size_type __new_elems)
 905:/Library/DaisyToolchain/0.2.0/arm/arm-none-eabi/include/c++/10.3.1/bits/deque.tcc ****     {
 906:/Library/DaisyToolchain/0.2.0/arm/arm-none-eabi/include/c++/10.3.1/bits/deque.tcc ****       if (this->max_size() - this->size() < __new_elems)
 907:/Library/DaisyToolchain/0.2.0/arm/arm-none-eabi/include/c++/10.3.1/bits/deque.tcc **** 	__throw_length_error(__N("deque::_M_new_elements_at_back"));
 908:/Library/DaisyToolchain/0.2.0/arm/arm-none-eabi/include/c++/10.3.1/bits/deque.tcc **** 
 909:/Library/DaisyToolchain/0.2.0/arm/arm-none-eabi/include/c++/10.3.1/bits/deque.tcc ****       const size_type __new_nodes = ((__new_elems + _S_buffer_size() - 1)
 910:/Library/DaisyToolchain/0.2.0/arm/arm-none-eabi/include/c++/10.3.1/bits/deque.tcc **** 				     / _S_buffer_size());
 911:/Library/DaisyToolchain/0.2.0/arm/arm-none-eabi/include/c++/10.3.1/bits/deque.tcc ****       _M_reserve_map_at_back(__new_nodes);
 912:/Library/DaisyToolchain/0.2.0/arm/arm-none-eabi/include/c++/10.3.1/bits/deque.tcc ****       size_type __i;
 913:/Library/DaisyToolchain/0.2.0/arm/arm-none-eabi/include/c++/10.3.1/bits/deque.tcc ****       __try
ARM GAS  /var/folders/s6/2bsynnl15rj0bwtb9pgx4dc00000gn/T//cc76hY55.s 			page 128


 914:/Library/DaisyToolchain/0.2.0/arm/arm-none-eabi/include/c++/10.3.1/bits/deque.tcc **** 	{
 915:/Library/DaisyToolchain/0.2.0/arm/arm-none-eabi/include/c++/10.3.1/bits/deque.tcc **** 	  for (__i = 1; __i <= __new_nodes; ++__i)
 916:/Library/DaisyToolchain/0.2.0/arm/arm-none-eabi/include/c++/10.3.1/bits/deque.tcc **** 	    *(this->_M_impl._M_finish._M_node + __i) = this->_M_allocate_node();
 917:/Library/DaisyToolchain/0.2.0/arm/arm-none-eabi/include/c++/10.3.1/bits/deque.tcc **** 	}
 918:/Library/DaisyToolchain/0.2.0/arm/arm-none-eabi/include/c++/10.3.1/bits/deque.tcc ****       __catch(...)
 919:/Library/DaisyToolchain/0.2.0/arm/arm-none-eabi/include/c++/10.3.1/bits/deque.tcc **** 	{
 920:/Library/DaisyToolchain/0.2.0/arm/arm-none-eabi/include/c++/10.3.1/bits/deque.tcc **** 	  for (size_type __j = 1; __j < __i; ++__j)
 921:/Library/DaisyToolchain/0.2.0/arm/arm-none-eabi/include/c++/10.3.1/bits/deque.tcc **** 	    _M_deallocate_node(*(this->_M_impl._M_finish._M_node + __j));
 922:/Library/DaisyToolchain/0.2.0/arm/arm-none-eabi/include/c++/10.3.1/bits/deque.tcc **** 	  __throw_exception_again;
 923:/Library/DaisyToolchain/0.2.0/arm/arm-none-eabi/include/c++/10.3.1/bits/deque.tcc **** 	}
 924:/Library/DaisyToolchain/0.2.0/arm/arm-none-eabi/include/c++/10.3.1/bits/deque.tcc ****     }
 925:/Library/DaisyToolchain/0.2.0/arm/arm-none-eabi/include/c++/10.3.1/bits/deque.tcc **** 
 926:/Library/DaisyToolchain/0.2.0/arm/arm-none-eabi/include/c++/10.3.1/bits/deque.tcc ****   template <typename _Tp, typename _Alloc>
 927:/Library/DaisyToolchain/0.2.0/arm/arm-none-eabi/include/c++/10.3.1/bits/deque.tcc ****     void
 928:/Library/DaisyToolchain/0.2.0/arm/arm-none-eabi/include/c++/10.3.1/bits/deque.tcc ****     deque<_Tp, _Alloc>::
 1790              		.loc 18 928 5 is_stmt 1 view .LVU463
 1791              	.LBB709:
 929:/Library/DaisyToolchain/0.2.0/arm/arm-none-eabi/include/c++/10.3.1/bits/deque.tcc ****     _M_reallocate_map(size_type __nodes_to_add, bool __add_at_front)
 930:/Library/DaisyToolchain/0.2.0/arm/arm-none-eabi/include/c++/10.3.1/bits/deque.tcc ****     {
 931:/Library/DaisyToolchain/0.2.0/arm/arm-none-eabi/include/c++/10.3.1/bits/deque.tcc ****       const size_type __old_num_nodes
 932:/Library/DaisyToolchain/0.2.0/arm/arm-none-eabi/include/c++/10.3.1/bits/deque.tcc **** 	= this->_M_impl._M_finish._M_node - this->_M_impl._M_start._M_node + 1;
 933:/Library/DaisyToolchain/0.2.0/arm/arm-none-eabi/include/c++/10.3.1/bits/deque.tcc ****       const size_type __new_num_nodes = __old_num_nodes + __nodes_to_add;
 1792              		.loc 18 933 23 is_stmt 0 view .LVU464
 1793 01f8 0CF1020B 		add	fp, ip, #2
 1794              	.LVL140:
 1795              	.LBB710:
 934:/Library/DaisyToolchain/0.2.0/arm/arm-none-eabi/include/c++/10.3.1/bits/deque.tcc **** 
 935:/Library/DaisyToolchain/0.2.0/arm/arm-none-eabi/include/c++/10.3.1/bits/deque.tcc ****       _Map_pointer __new_nstart;
 936:/Library/DaisyToolchain/0.2.0/arm/arm-none-eabi/include/c++/10.3.1/bits/deque.tcc ****       if (this->_M_impl._M_map_size > 2 * __new_num_nodes)
 1796              		.loc 18 936 7 view .LVU465
 1797 01fc B2EB4B0F 		cmp	r2, fp, lsl #1
 1798 0200 41D8     		bhi	.L141
 1799              	.LBB711:
 937:/Library/DaisyToolchain/0.2.0/arm/arm-none-eabi/include/c++/10.3.1/bits/deque.tcc **** 	{
 938:/Library/DaisyToolchain/0.2.0/arm/arm-none-eabi/include/c++/10.3.1/bits/deque.tcc **** 	  __new_nstart = this->_M_impl._M_map + (this->_M_impl._M_map_size
 939:/Library/DaisyToolchain/0.2.0/arm/arm-none-eabi/include/c++/10.3.1/bits/deque.tcc **** 					 - __new_num_nodes) / 2
 940:/Library/DaisyToolchain/0.2.0/arm/arm-none-eabi/include/c++/10.3.1/bits/deque.tcc **** 			 + (__add_at_front ? __nodes_to_add : 0);
 941:/Library/DaisyToolchain/0.2.0/arm/arm-none-eabi/include/c++/10.3.1/bits/deque.tcc **** 	  if (__new_nstart < this->_M_impl._M_start._M_node)
 942:/Library/DaisyToolchain/0.2.0/arm/arm-none-eabi/include/c++/10.3.1/bits/deque.tcc **** 	    std::copy(this->_M_impl._M_start._M_node,
 943:/Library/DaisyToolchain/0.2.0/arm/arm-none-eabi/include/c++/10.3.1/bits/deque.tcc **** 		      this->_M_impl._M_finish._M_node + 1,
 944:/Library/DaisyToolchain/0.2.0/arm/arm-none-eabi/include/c++/10.3.1/bits/deque.tcc **** 		      __new_nstart);
 945:/Library/DaisyToolchain/0.2.0/arm/arm-none-eabi/include/c++/10.3.1/bits/deque.tcc **** 	  else
 946:/Library/DaisyToolchain/0.2.0/arm/arm-none-eabi/include/c++/10.3.1/bits/deque.tcc **** 	    std::copy_backward(this->_M_impl._M_start._M_node,
 947:/Library/DaisyToolchain/0.2.0/arm/arm-none-eabi/include/c++/10.3.1/bits/deque.tcc **** 			       this->_M_impl._M_finish._M_node + 1,
 948:/Library/DaisyToolchain/0.2.0/arm/arm-none-eabi/include/c++/10.3.1/bits/deque.tcc **** 			       __new_nstart + __old_num_nodes);
 949:/Library/DaisyToolchain/0.2.0/arm/arm-none-eabi/include/c++/10.3.1/bits/deque.tcc **** 	}
 950:/Library/DaisyToolchain/0.2.0/arm/arm-none-eabi/include/c++/10.3.1/bits/deque.tcc ****       else
 951:/Library/DaisyToolchain/0.2.0/arm/arm-none-eabi/include/c++/10.3.1/bits/deque.tcc **** 	{
 952:/Library/DaisyToolchain/0.2.0/arm/arm-none-eabi/include/c++/10.3.1/bits/deque.tcc **** 	  size_type __new_map_size = this->_M_impl._M_map_size
 1800              		.loc 18 952 14 view .LVU466
 1801 0202 02F10209 		add	r9, r2, #2
 1802 0206 012A     		cmp	r2, #1
 1803 0208 2CBF     		ite	cs
 1804 020a 9144     		addcs	r9, r9, r2
 1805 020c 09F10109 		addcc	r9, r9, #1
 1806              	.LVL141:
 1807              	.LBB712:
ARM GAS  /var/folders/s6/2bsynnl15rj0bwtb9pgx4dc00000gn/T//cc76hY55.s 			page 129


 1808              	.LBI712:
 570:/Library/DaisyToolchain/0.2.0/arm/arm-none-eabi/include/c++/10.3.1/bits/stl_deque.h ****       {
 1809              		.loc 14 570 7 is_stmt 1 view .LVU467
 1810              	.LBB713:
 1811              	.LBB714:
 1812              	.LBI714:
 552:/Library/DaisyToolchain/0.2.0/arm/arm-none-eabi/include/c++/10.3.1/bits/stl_deque.h ****       { return _Map_alloc_type(_M_get_Tp_allocator()); }
 1813              		.loc 14 552 7 view .LVU468
 1814              	.LBB715:
 1815              	.LBI715:
 1816              		.file 19 "/Library/DaisyToolchain/0.2.0/arm/arm-none-eabi/include/c++/10.3.1/bits/allocator.h"
   1:/Library/DaisyToolchain/0.2.0/arm/arm-none-eabi/include/c++/10.3.1/bits/allocator.h **** // Allocators -*- C++ -*-
   2:/Library/DaisyToolchain/0.2.0/arm/arm-none-eabi/include/c++/10.3.1/bits/allocator.h **** 
   3:/Library/DaisyToolchain/0.2.0/arm/arm-none-eabi/include/c++/10.3.1/bits/allocator.h **** // Copyright (C) 2001-2020 Free Software Foundation, Inc.
   4:/Library/DaisyToolchain/0.2.0/arm/arm-none-eabi/include/c++/10.3.1/bits/allocator.h **** //
   5:/Library/DaisyToolchain/0.2.0/arm/arm-none-eabi/include/c++/10.3.1/bits/allocator.h **** // This file is part of the GNU ISO C++ Library.  This library is free
   6:/Library/DaisyToolchain/0.2.0/arm/arm-none-eabi/include/c++/10.3.1/bits/allocator.h **** // software; you can redistribute it and/or modify it under the
   7:/Library/DaisyToolchain/0.2.0/arm/arm-none-eabi/include/c++/10.3.1/bits/allocator.h **** // terms of the GNU General Public License as published by the
   8:/Library/DaisyToolchain/0.2.0/arm/arm-none-eabi/include/c++/10.3.1/bits/allocator.h **** // Free Software Foundation; either version 3, or (at your option)
   9:/Library/DaisyToolchain/0.2.0/arm/arm-none-eabi/include/c++/10.3.1/bits/allocator.h **** // any later version.
  10:/Library/DaisyToolchain/0.2.0/arm/arm-none-eabi/include/c++/10.3.1/bits/allocator.h **** 
  11:/Library/DaisyToolchain/0.2.0/arm/arm-none-eabi/include/c++/10.3.1/bits/allocator.h **** // This library is distributed in the hope that it will be useful,
  12:/Library/DaisyToolchain/0.2.0/arm/arm-none-eabi/include/c++/10.3.1/bits/allocator.h **** // but WITHOUT ANY WARRANTY; without even the implied warranty of
  13:/Library/DaisyToolchain/0.2.0/arm/arm-none-eabi/include/c++/10.3.1/bits/allocator.h **** // MERCHANTABILITY or FITNESS FOR A PARTICULAR PURPOSE.  See the
  14:/Library/DaisyToolchain/0.2.0/arm/arm-none-eabi/include/c++/10.3.1/bits/allocator.h **** // GNU General Public License for more details.
  15:/Library/DaisyToolchain/0.2.0/arm/arm-none-eabi/include/c++/10.3.1/bits/allocator.h **** 
  16:/Library/DaisyToolchain/0.2.0/arm/arm-none-eabi/include/c++/10.3.1/bits/allocator.h **** // Under Section 7 of GPL version 3, you are granted additional
  17:/Library/DaisyToolchain/0.2.0/arm/arm-none-eabi/include/c++/10.3.1/bits/allocator.h **** // permissions described in the GCC Runtime Library Exception, version
  18:/Library/DaisyToolchain/0.2.0/arm/arm-none-eabi/include/c++/10.3.1/bits/allocator.h **** // 3.1, as published by the Free Software Foundation.
  19:/Library/DaisyToolchain/0.2.0/arm/arm-none-eabi/include/c++/10.3.1/bits/allocator.h **** 
  20:/Library/DaisyToolchain/0.2.0/arm/arm-none-eabi/include/c++/10.3.1/bits/allocator.h **** // You should have received a copy of the GNU General Public License and
  21:/Library/DaisyToolchain/0.2.0/arm/arm-none-eabi/include/c++/10.3.1/bits/allocator.h **** // a copy of the GCC Runtime Library Exception along with this program;
  22:/Library/DaisyToolchain/0.2.0/arm/arm-none-eabi/include/c++/10.3.1/bits/allocator.h **** // see the files COPYING3 and COPYING.RUNTIME respectively.  If not, see
  23:/Library/DaisyToolchain/0.2.0/arm/arm-none-eabi/include/c++/10.3.1/bits/allocator.h **** // <http://www.gnu.org/licenses/>.
  24:/Library/DaisyToolchain/0.2.0/arm/arm-none-eabi/include/c++/10.3.1/bits/allocator.h **** 
  25:/Library/DaisyToolchain/0.2.0/arm/arm-none-eabi/include/c++/10.3.1/bits/allocator.h **** /*
  26:/Library/DaisyToolchain/0.2.0/arm/arm-none-eabi/include/c++/10.3.1/bits/allocator.h ****  * Copyright (c) 1996-1997
  27:/Library/DaisyToolchain/0.2.0/arm/arm-none-eabi/include/c++/10.3.1/bits/allocator.h ****  * Silicon Graphics Computer Systems, Inc.
  28:/Library/DaisyToolchain/0.2.0/arm/arm-none-eabi/include/c++/10.3.1/bits/allocator.h ****  *
  29:/Library/DaisyToolchain/0.2.0/arm/arm-none-eabi/include/c++/10.3.1/bits/allocator.h ****  * Permission to use, copy, modify, distribute and sell this software
  30:/Library/DaisyToolchain/0.2.0/arm/arm-none-eabi/include/c++/10.3.1/bits/allocator.h ****  * and its documentation for any purpose is hereby granted without fee,
  31:/Library/DaisyToolchain/0.2.0/arm/arm-none-eabi/include/c++/10.3.1/bits/allocator.h ****  * provided that the above copyright notice appear in all copies and
  32:/Library/DaisyToolchain/0.2.0/arm/arm-none-eabi/include/c++/10.3.1/bits/allocator.h ****  * that both that copyright notice and this permission notice appear
  33:/Library/DaisyToolchain/0.2.0/arm/arm-none-eabi/include/c++/10.3.1/bits/allocator.h ****  * in supporting documentation.  Silicon Graphics makes no
  34:/Library/DaisyToolchain/0.2.0/arm/arm-none-eabi/include/c++/10.3.1/bits/allocator.h ****  * representations about the suitability of this software for any
  35:/Library/DaisyToolchain/0.2.0/arm/arm-none-eabi/include/c++/10.3.1/bits/allocator.h ****  * purpose.  It is provided "as is" without express or implied warranty.
  36:/Library/DaisyToolchain/0.2.0/arm/arm-none-eabi/include/c++/10.3.1/bits/allocator.h ****  */
  37:/Library/DaisyToolchain/0.2.0/arm/arm-none-eabi/include/c++/10.3.1/bits/allocator.h **** 
  38:/Library/DaisyToolchain/0.2.0/arm/arm-none-eabi/include/c++/10.3.1/bits/allocator.h **** /** @file bits/allocator.h
  39:/Library/DaisyToolchain/0.2.0/arm/arm-none-eabi/include/c++/10.3.1/bits/allocator.h ****  *  This is an internal header file, included by other library headers.
  40:/Library/DaisyToolchain/0.2.0/arm/arm-none-eabi/include/c++/10.3.1/bits/allocator.h ****  *  Do not attempt to use it directly. @headername{memory}
  41:/Library/DaisyToolchain/0.2.0/arm/arm-none-eabi/include/c++/10.3.1/bits/allocator.h ****  */
  42:/Library/DaisyToolchain/0.2.0/arm/arm-none-eabi/include/c++/10.3.1/bits/allocator.h **** 
  43:/Library/DaisyToolchain/0.2.0/arm/arm-none-eabi/include/c++/10.3.1/bits/allocator.h **** #ifndef _ALLOCATOR_H
  44:/Library/DaisyToolchain/0.2.0/arm/arm-none-eabi/include/c++/10.3.1/bits/allocator.h **** #define _ALLOCATOR_H 1
  45:/Library/DaisyToolchain/0.2.0/arm/arm-none-eabi/include/c++/10.3.1/bits/allocator.h **** 
  46:/Library/DaisyToolchain/0.2.0/arm/arm-none-eabi/include/c++/10.3.1/bits/allocator.h **** #include <bits/c++allocator.h> // Define the base class to std::allocator.
ARM GAS  /var/folders/s6/2bsynnl15rj0bwtb9pgx4dc00000gn/T//cc76hY55.s 			page 130


  47:/Library/DaisyToolchain/0.2.0/arm/arm-none-eabi/include/c++/10.3.1/bits/allocator.h **** #include <bits/memoryfwd.h>
  48:/Library/DaisyToolchain/0.2.0/arm/arm-none-eabi/include/c++/10.3.1/bits/allocator.h **** #if __cplusplus >= 201103L
  49:/Library/DaisyToolchain/0.2.0/arm/arm-none-eabi/include/c++/10.3.1/bits/allocator.h **** #include <type_traits>
  50:/Library/DaisyToolchain/0.2.0/arm/arm-none-eabi/include/c++/10.3.1/bits/allocator.h **** #endif
  51:/Library/DaisyToolchain/0.2.0/arm/arm-none-eabi/include/c++/10.3.1/bits/allocator.h **** 
  52:/Library/DaisyToolchain/0.2.0/arm/arm-none-eabi/include/c++/10.3.1/bits/allocator.h **** #define __cpp_lib_incomplete_container_elements 201505
  53:/Library/DaisyToolchain/0.2.0/arm/arm-none-eabi/include/c++/10.3.1/bits/allocator.h **** 
  54:/Library/DaisyToolchain/0.2.0/arm/arm-none-eabi/include/c++/10.3.1/bits/allocator.h **** namespace std _GLIBCXX_VISIBILITY(default)
  55:/Library/DaisyToolchain/0.2.0/arm/arm-none-eabi/include/c++/10.3.1/bits/allocator.h **** {
  56:/Library/DaisyToolchain/0.2.0/arm/arm-none-eabi/include/c++/10.3.1/bits/allocator.h **** _GLIBCXX_BEGIN_NAMESPACE_VERSION
  57:/Library/DaisyToolchain/0.2.0/arm/arm-none-eabi/include/c++/10.3.1/bits/allocator.h **** 
  58:/Library/DaisyToolchain/0.2.0/arm/arm-none-eabi/include/c++/10.3.1/bits/allocator.h ****   /**
  59:/Library/DaisyToolchain/0.2.0/arm/arm-none-eabi/include/c++/10.3.1/bits/allocator.h ****    *  @addtogroup allocators
  60:/Library/DaisyToolchain/0.2.0/arm/arm-none-eabi/include/c++/10.3.1/bits/allocator.h ****    *  @{
  61:/Library/DaisyToolchain/0.2.0/arm/arm-none-eabi/include/c++/10.3.1/bits/allocator.h ****    */
  62:/Library/DaisyToolchain/0.2.0/arm/arm-none-eabi/include/c++/10.3.1/bits/allocator.h **** 
  63:/Library/DaisyToolchain/0.2.0/arm/arm-none-eabi/include/c++/10.3.1/bits/allocator.h ****   // Since C++20 the primary template should be used for allocator<void>,
  64:/Library/DaisyToolchain/0.2.0/arm/arm-none-eabi/include/c++/10.3.1/bits/allocator.h ****   // but then it would have a non-trivial default ctor and dtor, which
  65:/Library/DaisyToolchain/0.2.0/arm/arm-none-eabi/include/c++/10.3.1/bits/allocator.h ****   // would be an ABI change. So C++20 still uses the allocator<void> explicit
  66:/Library/DaisyToolchain/0.2.0/arm/arm-none-eabi/include/c++/10.3.1/bits/allocator.h ****   // specialization, with the historical ABI properties, but with the same
  67:/Library/DaisyToolchain/0.2.0/arm/arm-none-eabi/include/c++/10.3.1/bits/allocator.h ****   // members that are present in the primary template.
  68:/Library/DaisyToolchain/0.2.0/arm/arm-none-eabi/include/c++/10.3.1/bits/allocator.h **** 
  69:/Library/DaisyToolchain/0.2.0/arm/arm-none-eabi/include/c++/10.3.1/bits/allocator.h **** #if ! _GLIBCXX_INLINE_VERSION
  70:/Library/DaisyToolchain/0.2.0/arm/arm-none-eabi/include/c++/10.3.1/bits/allocator.h ****   /// allocator<void> specialization.
  71:/Library/DaisyToolchain/0.2.0/arm/arm-none-eabi/include/c++/10.3.1/bits/allocator.h ****   template<>
  72:/Library/DaisyToolchain/0.2.0/arm/arm-none-eabi/include/c++/10.3.1/bits/allocator.h ****     class allocator<void>
  73:/Library/DaisyToolchain/0.2.0/arm/arm-none-eabi/include/c++/10.3.1/bits/allocator.h ****     {
  74:/Library/DaisyToolchain/0.2.0/arm/arm-none-eabi/include/c++/10.3.1/bits/allocator.h ****     public:
  75:/Library/DaisyToolchain/0.2.0/arm/arm-none-eabi/include/c++/10.3.1/bits/allocator.h ****       typedef void        value_type;
  76:/Library/DaisyToolchain/0.2.0/arm/arm-none-eabi/include/c++/10.3.1/bits/allocator.h ****       typedef size_t      size_type;
  77:/Library/DaisyToolchain/0.2.0/arm/arm-none-eabi/include/c++/10.3.1/bits/allocator.h ****       typedef ptrdiff_t   difference_type;
  78:/Library/DaisyToolchain/0.2.0/arm/arm-none-eabi/include/c++/10.3.1/bits/allocator.h **** 
  79:/Library/DaisyToolchain/0.2.0/arm/arm-none-eabi/include/c++/10.3.1/bits/allocator.h **** #if __cplusplus <= 201703L
  80:/Library/DaisyToolchain/0.2.0/arm/arm-none-eabi/include/c++/10.3.1/bits/allocator.h ****       // These were removed for C++20.
  81:/Library/DaisyToolchain/0.2.0/arm/arm-none-eabi/include/c++/10.3.1/bits/allocator.h ****       typedef void*       pointer;
  82:/Library/DaisyToolchain/0.2.0/arm/arm-none-eabi/include/c++/10.3.1/bits/allocator.h ****       typedef const void* const_pointer;
  83:/Library/DaisyToolchain/0.2.0/arm/arm-none-eabi/include/c++/10.3.1/bits/allocator.h **** 
  84:/Library/DaisyToolchain/0.2.0/arm/arm-none-eabi/include/c++/10.3.1/bits/allocator.h ****       template<typename _Tp1>
  85:/Library/DaisyToolchain/0.2.0/arm/arm-none-eabi/include/c++/10.3.1/bits/allocator.h **** 	struct rebind
  86:/Library/DaisyToolchain/0.2.0/arm/arm-none-eabi/include/c++/10.3.1/bits/allocator.h **** 	{ typedef allocator<_Tp1> other; };
  87:/Library/DaisyToolchain/0.2.0/arm/arm-none-eabi/include/c++/10.3.1/bits/allocator.h **** #endif
  88:/Library/DaisyToolchain/0.2.0/arm/arm-none-eabi/include/c++/10.3.1/bits/allocator.h **** 
  89:/Library/DaisyToolchain/0.2.0/arm/arm-none-eabi/include/c++/10.3.1/bits/allocator.h **** #if __cplusplus >= 201103L
  90:/Library/DaisyToolchain/0.2.0/arm/arm-none-eabi/include/c++/10.3.1/bits/allocator.h ****       // _GLIBCXX_RESOLVE_LIB_DEFECTS
  91:/Library/DaisyToolchain/0.2.0/arm/arm-none-eabi/include/c++/10.3.1/bits/allocator.h ****       // 2103. std::allocator propagate_on_container_move_assignment
  92:/Library/DaisyToolchain/0.2.0/arm/arm-none-eabi/include/c++/10.3.1/bits/allocator.h ****       typedef true_type propagate_on_container_move_assignment;
  93:/Library/DaisyToolchain/0.2.0/arm/arm-none-eabi/include/c++/10.3.1/bits/allocator.h **** 
  94:/Library/DaisyToolchain/0.2.0/arm/arm-none-eabi/include/c++/10.3.1/bits/allocator.h ****       typedef true_type is_always_equal;
  95:/Library/DaisyToolchain/0.2.0/arm/arm-none-eabi/include/c++/10.3.1/bits/allocator.h **** 
  96:/Library/DaisyToolchain/0.2.0/arm/arm-none-eabi/include/c++/10.3.1/bits/allocator.h **** #if __cplusplus > 201703L
  97:/Library/DaisyToolchain/0.2.0/arm/arm-none-eabi/include/c++/10.3.1/bits/allocator.h ****       allocator() = default;
  98:/Library/DaisyToolchain/0.2.0/arm/arm-none-eabi/include/c++/10.3.1/bits/allocator.h **** 
  99:/Library/DaisyToolchain/0.2.0/arm/arm-none-eabi/include/c++/10.3.1/bits/allocator.h ****       template<typename _Up>
 100:/Library/DaisyToolchain/0.2.0/arm/arm-none-eabi/include/c++/10.3.1/bits/allocator.h **** 	constexpr
 101:/Library/DaisyToolchain/0.2.0/arm/arm-none-eabi/include/c++/10.3.1/bits/allocator.h **** 	allocator(const allocator<_Up>&) noexcept { }
 102:/Library/DaisyToolchain/0.2.0/arm/arm-none-eabi/include/c++/10.3.1/bits/allocator.h **** 
 103:/Library/DaisyToolchain/0.2.0/arm/arm-none-eabi/include/c++/10.3.1/bits/allocator.h ****       // No allocate member because it's ill-formed by LWG 3307.
ARM GAS  /var/folders/s6/2bsynnl15rj0bwtb9pgx4dc00000gn/T//cc76hY55.s 			page 131


 104:/Library/DaisyToolchain/0.2.0/arm/arm-none-eabi/include/c++/10.3.1/bits/allocator.h ****       // No deallocate member because it would be undefined to call it
 105:/Library/DaisyToolchain/0.2.0/arm/arm-none-eabi/include/c++/10.3.1/bits/allocator.h ****       // with any pointer which wasn't obtained from allocate.
 106:/Library/DaisyToolchain/0.2.0/arm/arm-none-eabi/include/c++/10.3.1/bits/allocator.h **** 
 107:/Library/DaisyToolchain/0.2.0/arm/arm-none-eabi/include/c++/10.3.1/bits/allocator.h **** #else // ! C++20
 108:/Library/DaisyToolchain/0.2.0/arm/arm-none-eabi/include/c++/10.3.1/bits/allocator.h ****       // allocator_traits<allocator<void>> uses construct and destroy.
 109:/Library/DaisyToolchain/0.2.0/arm/arm-none-eabi/include/c++/10.3.1/bits/allocator.h ****       template<typename _Up, typename... _Args>
 110:/Library/DaisyToolchain/0.2.0/arm/arm-none-eabi/include/c++/10.3.1/bits/allocator.h **** 	void
 111:/Library/DaisyToolchain/0.2.0/arm/arm-none-eabi/include/c++/10.3.1/bits/allocator.h **** 	construct(_Up* __p, _Args&&... __args)
 112:/Library/DaisyToolchain/0.2.0/arm/arm-none-eabi/include/c++/10.3.1/bits/allocator.h **** 	noexcept(std::is_nothrow_constructible<_Up, _Args...>::value)
 113:/Library/DaisyToolchain/0.2.0/arm/arm-none-eabi/include/c++/10.3.1/bits/allocator.h **** 	{ ::new((void *)__p) _Up(std::forward<_Args>(__args)...); }
 114:/Library/DaisyToolchain/0.2.0/arm/arm-none-eabi/include/c++/10.3.1/bits/allocator.h **** 
 115:/Library/DaisyToolchain/0.2.0/arm/arm-none-eabi/include/c++/10.3.1/bits/allocator.h ****       template<typename _Up>
 116:/Library/DaisyToolchain/0.2.0/arm/arm-none-eabi/include/c++/10.3.1/bits/allocator.h **** 	void
 117:/Library/DaisyToolchain/0.2.0/arm/arm-none-eabi/include/c++/10.3.1/bits/allocator.h **** 	destroy(_Up* __p)
 118:/Library/DaisyToolchain/0.2.0/arm/arm-none-eabi/include/c++/10.3.1/bits/allocator.h **** 	noexcept(std::is_nothrow_destructible<_Up>::value)
 119:/Library/DaisyToolchain/0.2.0/arm/arm-none-eabi/include/c++/10.3.1/bits/allocator.h **** 	{ __p->~_Up(); }
 120:/Library/DaisyToolchain/0.2.0/arm/arm-none-eabi/include/c++/10.3.1/bits/allocator.h **** #endif // C++17
 121:/Library/DaisyToolchain/0.2.0/arm/arm-none-eabi/include/c++/10.3.1/bits/allocator.h **** #endif // C++11
 122:/Library/DaisyToolchain/0.2.0/arm/arm-none-eabi/include/c++/10.3.1/bits/allocator.h ****     };
 123:/Library/DaisyToolchain/0.2.0/arm/arm-none-eabi/include/c++/10.3.1/bits/allocator.h **** #endif // ! _GLIBCXX_INLINE_VERSION
 124:/Library/DaisyToolchain/0.2.0/arm/arm-none-eabi/include/c++/10.3.1/bits/allocator.h **** 
 125:/Library/DaisyToolchain/0.2.0/arm/arm-none-eabi/include/c++/10.3.1/bits/allocator.h ****   /**
 126:/Library/DaisyToolchain/0.2.0/arm/arm-none-eabi/include/c++/10.3.1/bits/allocator.h ****    * @brief  The @a standard allocator, as per C++03 [20.4.1].
 127:/Library/DaisyToolchain/0.2.0/arm/arm-none-eabi/include/c++/10.3.1/bits/allocator.h ****    *
 128:/Library/DaisyToolchain/0.2.0/arm/arm-none-eabi/include/c++/10.3.1/bits/allocator.h ****    *  See https://gcc.gnu.org/onlinedocs/libstdc++/manual/memory.html#std.util.memory.allocator
 129:/Library/DaisyToolchain/0.2.0/arm/arm-none-eabi/include/c++/10.3.1/bits/allocator.h ****    *  for further details.
 130:/Library/DaisyToolchain/0.2.0/arm/arm-none-eabi/include/c++/10.3.1/bits/allocator.h ****    *
 131:/Library/DaisyToolchain/0.2.0/arm/arm-none-eabi/include/c++/10.3.1/bits/allocator.h ****    *  @tparam  _Tp  Type of allocated object.
 132:/Library/DaisyToolchain/0.2.0/arm/arm-none-eabi/include/c++/10.3.1/bits/allocator.h ****    */
 133:/Library/DaisyToolchain/0.2.0/arm/arm-none-eabi/include/c++/10.3.1/bits/allocator.h ****   template<typename _Tp>
 134:/Library/DaisyToolchain/0.2.0/arm/arm-none-eabi/include/c++/10.3.1/bits/allocator.h ****     class allocator : public __allocator_base<_Tp>
 135:/Library/DaisyToolchain/0.2.0/arm/arm-none-eabi/include/c++/10.3.1/bits/allocator.h ****     {
 136:/Library/DaisyToolchain/0.2.0/arm/arm-none-eabi/include/c++/10.3.1/bits/allocator.h ****     public:
 137:/Library/DaisyToolchain/0.2.0/arm/arm-none-eabi/include/c++/10.3.1/bits/allocator.h ****       typedef _Tp        value_type;
 138:/Library/DaisyToolchain/0.2.0/arm/arm-none-eabi/include/c++/10.3.1/bits/allocator.h ****       typedef size_t     size_type;
 139:/Library/DaisyToolchain/0.2.0/arm/arm-none-eabi/include/c++/10.3.1/bits/allocator.h ****       typedef ptrdiff_t  difference_type;
 140:/Library/DaisyToolchain/0.2.0/arm/arm-none-eabi/include/c++/10.3.1/bits/allocator.h **** 
 141:/Library/DaisyToolchain/0.2.0/arm/arm-none-eabi/include/c++/10.3.1/bits/allocator.h **** #if __cplusplus <= 201703L
 142:/Library/DaisyToolchain/0.2.0/arm/arm-none-eabi/include/c++/10.3.1/bits/allocator.h ****       // These were removed for C++20.
 143:/Library/DaisyToolchain/0.2.0/arm/arm-none-eabi/include/c++/10.3.1/bits/allocator.h ****       typedef _Tp*       pointer;
 144:/Library/DaisyToolchain/0.2.0/arm/arm-none-eabi/include/c++/10.3.1/bits/allocator.h ****       typedef const _Tp* const_pointer;
 145:/Library/DaisyToolchain/0.2.0/arm/arm-none-eabi/include/c++/10.3.1/bits/allocator.h ****       typedef _Tp&       reference;
 146:/Library/DaisyToolchain/0.2.0/arm/arm-none-eabi/include/c++/10.3.1/bits/allocator.h ****       typedef const _Tp& const_reference;
 147:/Library/DaisyToolchain/0.2.0/arm/arm-none-eabi/include/c++/10.3.1/bits/allocator.h **** 
 148:/Library/DaisyToolchain/0.2.0/arm/arm-none-eabi/include/c++/10.3.1/bits/allocator.h ****       template<typename _Tp1>
 149:/Library/DaisyToolchain/0.2.0/arm/arm-none-eabi/include/c++/10.3.1/bits/allocator.h **** 	struct rebind
 150:/Library/DaisyToolchain/0.2.0/arm/arm-none-eabi/include/c++/10.3.1/bits/allocator.h **** 	{ typedef allocator<_Tp1> other; };
 151:/Library/DaisyToolchain/0.2.0/arm/arm-none-eabi/include/c++/10.3.1/bits/allocator.h **** #endif
 152:/Library/DaisyToolchain/0.2.0/arm/arm-none-eabi/include/c++/10.3.1/bits/allocator.h **** 
 153:/Library/DaisyToolchain/0.2.0/arm/arm-none-eabi/include/c++/10.3.1/bits/allocator.h **** #if __cplusplus >= 201103L
 154:/Library/DaisyToolchain/0.2.0/arm/arm-none-eabi/include/c++/10.3.1/bits/allocator.h ****       // _GLIBCXX_RESOLVE_LIB_DEFECTS
 155:/Library/DaisyToolchain/0.2.0/arm/arm-none-eabi/include/c++/10.3.1/bits/allocator.h ****       // 2103. std::allocator propagate_on_container_move_assignment
 156:/Library/DaisyToolchain/0.2.0/arm/arm-none-eabi/include/c++/10.3.1/bits/allocator.h ****       typedef true_type propagate_on_container_move_assignment;
 157:/Library/DaisyToolchain/0.2.0/arm/arm-none-eabi/include/c++/10.3.1/bits/allocator.h **** 
 158:/Library/DaisyToolchain/0.2.0/arm/arm-none-eabi/include/c++/10.3.1/bits/allocator.h ****       typedef true_type is_always_equal;
 159:/Library/DaisyToolchain/0.2.0/arm/arm-none-eabi/include/c++/10.3.1/bits/allocator.h **** #endif
 160:/Library/DaisyToolchain/0.2.0/arm/arm-none-eabi/include/c++/10.3.1/bits/allocator.h **** 
ARM GAS  /var/folders/s6/2bsynnl15rj0bwtb9pgx4dc00000gn/T//cc76hY55.s 			page 132


 161:/Library/DaisyToolchain/0.2.0/arm/arm-none-eabi/include/c++/10.3.1/bits/allocator.h ****       // _GLIBCXX_RESOLVE_LIB_DEFECTS
 162:/Library/DaisyToolchain/0.2.0/arm/arm-none-eabi/include/c++/10.3.1/bits/allocator.h ****       // 3035. std::allocator's constructors should be constexpr
 163:/Library/DaisyToolchain/0.2.0/arm/arm-none-eabi/include/c++/10.3.1/bits/allocator.h ****       _GLIBCXX20_CONSTEXPR
 164:/Library/DaisyToolchain/0.2.0/arm/arm-none-eabi/include/c++/10.3.1/bits/allocator.h ****       allocator() _GLIBCXX_NOTHROW { }
 165:/Library/DaisyToolchain/0.2.0/arm/arm-none-eabi/include/c++/10.3.1/bits/allocator.h **** 
 166:/Library/DaisyToolchain/0.2.0/arm/arm-none-eabi/include/c++/10.3.1/bits/allocator.h ****       _GLIBCXX20_CONSTEXPR
 167:/Library/DaisyToolchain/0.2.0/arm/arm-none-eabi/include/c++/10.3.1/bits/allocator.h ****       allocator(const allocator& __a) _GLIBCXX_NOTHROW
 168:/Library/DaisyToolchain/0.2.0/arm/arm-none-eabi/include/c++/10.3.1/bits/allocator.h ****       : __allocator_base<_Tp>(__a) { }
 169:/Library/DaisyToolchain/0.2.0/arm/arm-none-eabi/include/c++/10.3.1/bits/allocator.h **** 
 170:/Library/DaisyToolchain/0.2.0/arm/arm-none-eabi/include/c++/10.3.1/bits/allocator.h **** #if __cplusplus >= 201103L
 171:/Library/DaisyToolchain/0.2.0/arm/arm-none-eabi/include/c++/10.3.1/bits/allocator.h ****       // Avoid implicit deprecation.
 172:/Library/DaisyToolchain/0.2.0/arm/arm-none-eabi/include/c++/10.3.1/bits/allocator.h ****       allocator& operator=(const allocator&) = default;
 173:/Library/DaisyToolchain/0.2.0/arm/arm-none-eabi/include/c++/10.3.1/bits/allocator.h **** #endif
 174:/Library/DaisyToolchain/0.2.0/arm/arm-none-eabi/include/c++/10.3.1/bits/allocator.h **** 
 175:/Library/DaisyToolchain/0.2.0/arm/arm-none-eabi/include/c++/10.3.1/bits/allocator.h ****       template<typename _Tp1>
 176:/Library/DaisyToolchain/0.2.0/arm/arm-none-eabi/include/c++/10.3.1/bits/allocator.h **** 	_GLIBCXX20_CONSTEXPR
 177:/Library/DaisyToolchain/0.2.0/arm/arm-none-eabi/include/c++/10.3.1/bits/allocator.h **** 	allocator(const allocator<_Tp1>&) _GLIBCXX_NOTHROW { }
 1817              		.loc 19 177 2 view .LVU469
 1818              	.LBB716:
 1819              	.LBI716:
  79:/Library/DaisyToolchain/0.2.0/arm/arm-none-eabi/include/c++/10.3.1/ext/new_allocator.h **** 
 1820              		.loc 16 79 7 view .LVU470
  79:/Library/DaisyToolchain/0.2.0/arm/arm-none-eabi/include/c++/10.3.1/ext/new_allocator.h **** 
 1821              		.loc 16 79 7 is_stmt 0 view .LVU471
 1822              	.LBE716:
 1823              	.LBE715:
 1824              	.LBE714:
 1825              	.LBB717:
 1826              	.LBI717:
 459:/Library/DaisyToolchain/0.2.0/arm/arm-none-eabi/include/c++/10.3.1/bits/alloc_traits.h ****       { return __a.allocate(__n); }
 1827              		.loc 15 459 7 is_stmt 1 view .LVU472
 1828              	.LBB718:
 1829              	.LBI718:
 103:/Library/DaisyToolchain/0.2.0/arm/arm-none-eabi/include/c++/10.3.1/ext/new_allocator.h ****       {
 1830              		.loc 16 103 7 view .LVU473
 1831              	.LBB719:
 111:/Library/DaisyToolchain/0.2.0/arm/arm-none-eabi/include/c++/10.3.1/ext/new_allocator.h **** 	  std::__throw_bad_alloc();
 1832              		.loc 16 111 2 is_stmt 0 view .LVU474
 1833 0210 B9F1005F 		cmp	r9, #536870912
 1834 0214 55D2     		bcs	.L142
 121:/Library/DaisyToolchain/0.2.0/arm/arm-none-eabi/include/c++/10.3.1/ext/new_allocator.h ****       }
 1835              		.loc 16 121 41 view .LVU475
 1836 0216 4FEA8900 		lsl	r0, r9, #2
 1837 021a FFF7FEFF 		bl	_Znwj
 1838              	.LVL142:
 121:/Library/DaisyToolchain/0.2.0/arm/arm-none-eabi/include/c++/10.3.1/ext/new_allocator.h ****       }
 1839              		.loc 16 121 41 view .LVU476
 1840              	.LBE719:
 1841              	.LBE718:
 1842              	.LBE717:
 1843              	.LBE713:
 1844              	.LBE712:
 953:/Library/DaisyToolchain/0.2.0/arm/arm-none-eabi/include/c++/10.3.1/bits/deque.tcc **** 				     + std::max(this->_M_impl._M_map_size,
 954:/Library/DaisyToolchain/0.2.0/arm/arm-none-eabi/include/c++/10.3.1/bits/deque.tcc **** 						__nodes_to_add) + 2;
 955:/Library/DaisyToolchain/0.2.0/arm/arm-none-eabi/include/c++/10.3.1/bits/deque.tcc **** 
 956:/Library/DaisyToolchain/0.2.0/arm/arm-none-eabi/include/c++/10.3.1/bits/deque.tcc **** 	  _Map_pointer __new_map = this->_M_allocate_map(__new_map_size);
 957:/Library/DaisyToolchain/0.2.0/arm/arm-none-eabi/include/c++/10.3.1/bits/deque.tcc **** 	  __new_nstart = __new_map + (__new_map_size - __new_num_nodes) / 2
ARM GAS  /var/folders/s6/2bsynnl15rj0bwtb9pgx4dc00000gn/T//cc76hY55.s 			page 133


 958:/Library/DaisyToolchain/0.2.0/arm/arm-none-eabi/include/c++/10.3.1/bits/deque.tcc **** 			 + (__add_at_front ? __nodes_to_add : 0);
 959:/Library/DaisyToolchain/0.2.0/arm/arm-none-eabi/include/c++/10.3.1/bits/deque.tcc **** 	  std::copy(this->_M_impl._M_start._M_node,
 1845              		.loc 18 959 13 view .LVU477
 1846 021e D8F82420 		ldr	r2, [r8, #36]
 957:/Library/DaisyToolchain/0.2.0/arm/arm-none-eabi/include/c++/10.3.1/bits/deque.tcc **** 			 + (__add_at_front ? __nodes_to_add : 0);
 1847              		.loc 18 957 47 view .LVU478
 1848 0222 A9EB0B0C 		sub	ip, r9, fp
 1849              		.loc 18 959 13 view .LVU479
 1850 0226 D8F81410 		ldr	r1, [r8, #20]
 1851 022a 0432     		adds	r2, r2, #4
 1852              	.LBB730:
 1853              	.LBB728:
 1854              	.LBB724:
 1855              	.LBB722:
 1856              	.LBB720:
 121:/Library/DaisyToolchain/0.2.0/arm/arm-none-eabi/include/c++/10.3.1/ext/new_allocator.h ****       }
 1857              		.loc 16 121 41 view .LVU480
 1858 022c 0346     		mov	r3, r0
 1859              	.LVL143:
 121:/Library/DaisyToolchain/0.2.0/arm/arm-none-eabi/include/c++/10.3.1/ext/new_allocator.h ****       }
 1860              		.loc 16 121 41 view .LVU481
 1861              	.LBE720:
 1862              	.LBE722:
 1863              	.LBE724:
 1864              	.LBB725:
 1865              	.LBI725:
 178:/Library/DaisyToolchain/0.2.0/arm/arm-none-eabi/include/c++/10.3.1/bits/allocator.h **** 
 179:/Library/DaisyToolchain/0.2.0/arm/arm-none-eabi/include/c++/10.3.1/bits/allocator.h **** #if __cpp_constexpr_dynamic_alloc
 180:/Library/DaisyToolchain/0.2.0/arm/arm-none-eabi/include/c++/10.3.1/bits/allocator.h ****       constexpr
 181:/Library/DaisyToolchain/0.2.0/arm/arm-none-eabi/include/c++/10.3.1/bits/allocator.h **** #endif
 182:/Library/DaisyToolchain/0.2.0/arm/arm-none-eabi/include/c++/10.3.1/bits/allocator.h ****       ~allocator() _GLIBCXX_NOTHROW { }
 1866              		.loc 19 182 7 is_stmt 1 view .LVU482
 1867              	.LBB726:
 1868              	.LBI726:
  89:/Library/DaisyToolchain/0.2.0/arm/arm-none-eabi/include/c++/10.3.1/ext/new_allocator.h **** 
 1869              		.loc 16 89 7 view .LVU483
  89:/Library/DaisyToolchain/0.2.0/arm/arm-none-eabi/include/c++/10.3.1/ext/new_allocator.h **** 
 1870              		.loc 16 89 7 is_stmt 0 view .LVU484
 1871              	.LBE726:
 1872              	.LBE725:
 1873              	.LBE728:
 1874              	.LBE730:
 957:/Library/DaisyToolchain/0.2.0/arm/arm-none-eabi/include/c++/10.3.1/bits/deque.tcc **** 			 + (__add_at_front ? __nodes_to_add : 0);
 1875              		.loc 18 957 66 view .LVU485
 1876 022e 4FEA5C0B 		lsr	fp, ip, #1
 1877              	.LVL144:
 1878              	.LBB731:
 1879              	.LBB732:
 1880              	.LBB733:
 1881              	.LBB734:
 1882              	.LBB735:
 1883              	.LBB736:
 1884              	.LBB737:
 1885              		.file 20 "/Library/DaisyToolchain/0.2.0/arm/arm-none-eabi/include/c++/10.3.1/bits/stl_algobase.h"
   1:/Library/DaisyToolchain/0.2.0/arm/arm-none-eabi/include/c++/10.3.1/bits/stl_algobase.h **** // Core algorithmic facilities -*- C++ -*-
   2:/Library/DaisyToolchain/0.2.0/arm/arm-none-eabi/include/c++/10.3.1/bits/stl_algobase.h **** 
   3:/Library/DaisyToolchain/0.2.0/arm/arm-none-eabi/include/c++/10.3.1/bits/stl_algobase.h **** // Copyright (C) 2001-2020 Free Software Foundation, Inc.
ARM GAS  /var/folders/s6/2bsynnl15rj0bwtb9pgx4dc00000gn/T//cc76hY55.s 			page 134


   4:/Library/DaisyToolchain/0.2.0/arm/arm-none-eabi/include/c++/10.3.1/bits/stl_algobase.h **** //
   5:/Library/DaisyToolchain/0.2.0/arm/arm-none-eabi/include/c++/10.3.1/bits/stl_algobase.h **** // This file is part of the GNU ISO C++ Library.  This library is free
   6:/Library/DaisyToolchain/0.2.0/arm/arm-none-eabi/include/c++/10.3.1/bits/stl_algobase.h **** // software; you can redistribute it and/or modify it under the
   7:/Library/DaisyToolchain/0.2.0/arm/arm-none-eabi/include/c++/10.3.1/bits/stl_algobase.h **** // terms of the GNU General Public License as published by the
   8:/Library/DaisyToolchain/0.2.0/arm/arm-none-eabi/include/c++/10.3.1/bits/stl_algobase.h **** // Free Software Foundation; either version 3, or (at your option)
   9:/Library/DaisyToolchain/0.2.0/arm/arm-none-eabi/include/c++/10.3.1/bits/stl_algobase.h **** // any later version.
  10:/Library/DaisyToolchain/0.2.0/arm/arm-none-eabi/include/c++/10.3.1/bits/stl_algobase.h **** 
  11:/Library/DaisyToolchain/0.2.0/arm/arm-none-eabi/include/c++/10.3.1/bits/stl_algobase.h **** // This library is distributed in the hope that it will be useful,
  12:/Library/DaisyToolchain/0.2.0/arm/arm-none-eabi/include/c++/10.3.1/bits/stl_algobase.h **** // but WITHOUT ANY WARRANTY; without even the implied warranty of
  13:/Library/DaisyToolchain/0.2.0/arm/arm-none-eabi/include/c++/10.3.1/bits/stl_algobase.h **** // MERCHANTABILITY or FITNESS FOR A PARTICULAR PURPOSE.  See the
  14:/Library/DaisyToolchain/0.2.0/arm/arm-none-eabi/include/c++/10.3.1/bits/stl_algobase.h **** // GNU General Public License for more details.
  15:/Library/DaisyToolchain/0.2.0/arm/arm-none-eabi/include/c++/10.3.1/bits/stl_algobase.h **** 
  16:/Library/DaisyToolchain/0.2.0/arm/arm-none-eabi/include/c++/10.3.1/bits/stl_algobase.h **** // Under Section 7 of GPL version 3, you are granted additional
  17:/Library/DaisyToolchain/0.2.0/arm/arm-none-eabi/include/c++/10.3.1/bits/stl_algobase.h **** // permissions described in the GCC Runtime Library Exception, version
  18:/Library/DaisyToolchain/0.2.0/arm/arm-none-eabi/include/c++/10.3.1/bits/stl_algobase.h **** // 3.1, as published by the Free Software Foundation.
  19:/Library/DaisyToolchain/0.2.0/arm/arm-none-eabi/include/c++/10.3.1/bits/stl_algobase.h **** 
  20:/Library/DaisyToolchain/0.2.0/arm/arm-none-eabi/include/c++/10.3.1/bits/stl_algobase.h **** // You should have received a copy of the GNU General Public License and
  21:/Library/DaisyToolchain/0.2.0/arm/arm-none-eabi/include/c++/10.3.1/bits/stl_algobase.h **** // a copy of the GCC Runtime Library Exception along with this program;
  22:/Library/DaisyToolchain/0.2.0/arm/arm-none-eabi/include/c++/10.3.1/bits/stl_algobase.h **** // see the files COPYING3 and COPYING.RUNTIME respectively.  If not, see
  23:/Library/DaisyToolchain/0.2.0/arm/arm-none-eabi/include/c++/10.3.1/bits/stl_algobase.h **** // <http://www.gnu.org/licenses/>.
  24:/Library/DaisyToolchain/0.2.0/arm/arm-none-eabi/include/c++/10.3.1/bits/stl_algobase.h **** 
  25:/Library/DaisyToolchain/0.2.0/arm/arm-none-eabi/include/c++/10.3.1/bits/stl_algobase.h **** /*
  26:/Library/DaisyToolchain/0.2.0/arm/arm-none-eabi/include/c++/10.3.1/bits/stl_algobase.h ****  *
  27:/Library/DaisyToolchain/0.2.0/arm/arm-none-eabi/include/c++/10.3.1/bits/stl_algobase.h ****  * Copyright (c) 1994
  28:/Library/DaisyToolchain/0.2.0/arm/arm-none-eabi/include/c++/10.3.1/bits/stl_algobase.h ****  * Hewlett-Packard Company
  29:/Library/DaisyToolchain/0.2.0/arm/arm-none-eabi/include/c++/10.3.1/bits/stl_algobase.h ****  *
  30:/Library/DaisyToolchain/0.2.0/arm/arm-none-eabi/include/c++/10.3.1/bits/stl_algobase.h ****  * Permission to use, copy, modify, distribute and sell this software
  31:/Library/DaisyToolchain/0.2.0/arm/arm-none-eabi/include/c++/10.3.1/bits/stl_algobase.h ****  * and its documentation for any purpose is hereby granted without fee,
  32:/Library/DaisyToolchain/0.2.0/arm/arm-none-eabi/include/c++/10.3.1/bits/stl_algobase.h ****  * provided that the above copyright notice appear in all copies and
  33:/Library/DaisyToolchain/0.2.0/arm/arm-none-eabi/include/c++/10.3.1/bits/stl_algobase.h ****  * that both that copyright notice and this permission notice appear
  34:/Library/DaisyToolchain/0.2.0/arm/arm-none-eabi/include/c++/10.3.1/bits/stl_algobase.h ****  * in supporting documentation.  Hewlett-Packard Company makes no
  35:/Library/DaisyToolchain/0.2.0/arm/arm-none-eabi/include/c++/10.3.1/bits/stl_algobase.h ****  * representations about the suitability of this software for any
  36:/Library/DaisyToolchain/0.2.0/arm/arm-none-eabi/include/c++/10.3.1/bits/stl_algobase.h ****  * purpose.  It is provided "as is" without express or implied warranty.
  37:/Library/DaisyToolchain/0.2.0/arm/arm-none-eabi/include/c++/10.3.1/bits/stl_algobase.h ****  *
  38:/Library/DaisyToolchain/0.2.0/arm/arm-none-eabi/include/c++/10.3.1/bits/stl_algobase.h ****  *
  39:/Library/DaisyToolchain/0.2.0/arm/arm-none-eabi/include/c++/10.3.1/bits/stl_algobase.h ****  * Copyright (c) 1996-1998
  40:/Library/DaisyToolchain/0.2.0/arm/arm-none-eabi/include/c++/10.3.1/bits/stl_algobase.h ****  * Silicon Graphics Computer Systems, Inc.
  41:/Library/DaisyToolchain/0.2.0/arm/arm-none-eabi/include/c++/10.3.1/bits/stl_algobase.h ****  *
  42:/Library/DaisyToolchain/0.2.0/arm/arm-none-eabi/include/c++/10.3.1/bits/stl_algobase.h ****  * Permission to use, copy, modify, distribute and sell this software
  43:/Library/DaisyToolchain/0.2.0/arm/arm-none-eabi/include/c++/10.3.1/bits/stl_algobase.h ****  * and its documentation for any purpose is hereby granted without fee,
  44:/Library/DaisyToolchain/0.2.0/arm/arm-none-eabi/include/c++/10.3.1/bits/stl_algobase.h ****  * provided that the above copyright notice appear in all copies and
  45:/Library/DaisyToolchain/0.2.0/arm/arm-none-eabi/include/c++/10.3.1/bits/stl_algobase.h ****  * that both that copyright notice and this permission notice appear
  46:/Library/DaisyToolchain/0.2.0/arm/arm-none-eabi/include/c++/10.3.1/bits/stl_algobase.h ****  * in supporting documentation.  Silicon Graphics makes no
  47:/Library/DaisyToolchain/0.2.0/arm/arm-none-eabi/include/c++/10.3.1/bits/stl_algobase.h ****  * representations about the suitability of this software for any
  48:/Library/DaisyToolchain/0.2.0/arm/arm-none-eabi/include/c++/10.3.1/bits/stl_algobase.h ****  * purpose.  It is provided "as is" without express or implied warranty.
  49:/Library/DaisyToolchain/0.2.0/arm/arm-none-eabi/include/c++/10.3.1/bits/stl_algobase.h ****  */
  50:/Library/DaisyToolchain/0.2.0/arm/arm-none-eabi/include/c++/10.3.1/bits/stl_algobase.h **** 
  51:/Library/DaisyToolchain/0.2.0/arm/arm-none-eabi/include/c++/10.3.1/bits/stl_algobase.h **** /** @file bits/stl_algobase.h
  52:/Library/DaisyToolchain/0.2.0/arm/arm-none-eabi/include/c++/10.3.1/bits/stl_algobase.h ****  *  This is an internal header file, included by other library headers.
  53:/Library/DaisyToolchain/0.2.0/arm/arm-none-eabi/include/c++/10.3.1/bits/stl_algobase.h ****  *  Do not attempt to use it directly. @headername{algorithm}
  54:/Library/DaisyToolchain/0.2.0/arm/arm-none-eabi/include/c++/10.3.1/bits/stl_algobase.h ****  */
  55:/Library/DaisyToolchain/0.2.0/arm/arm-none-eabi/include/c++/10.3.1/bits/stl_algobase.h **** 
  56:/Library/DaisyToolchain/0.2.0/arm/arm-none-eabi/include/c++/10.3.1/bits/stl_algobase.h **** #ifndef _STL_ALGOBASE_H
  57:/Library/DaisyToolchain/0.2.0/arm/arm-none-eabi/include/c++/10.3.1/bits/stl_algobase.h **** #define _STL_ALGOBASE_H 1
  58:/Library/DaisyToolchain/0.2.0/arm/arm-none-eabi/include/c++/10.3.1/bits/stl_algobase.h **** 
  59:/Library/DaisyToolchain/0.2.0/arm/arm-none-eabi/include/c++/10.3.1/bits/stl_algobase.h **** #include <bits/c++config.h>
  60:/Library/DaisyToolchain/0.2.0/arm/arm-none-eabi/include/c++/10.3.1/bits/stl_algobase.h **** #include <bits/functexcept.h>
ARM GAS  /var/folders/s6/2bsynnl15rj0bwtb9pgx4dc00000gn/T//cc76hY55.s 			page 135


  61:/Library/DaisyToolchain/0.2.0/arm/arm-none-eabi/include/c++/10.3.1/bits/stl_algobase.h **** #include <bits/cpp_type_traits.h>
  62:/Library/DaisyToolchain/0.2.0/arm/arm-none-eabi/include/c++/10.3.1/bits/stl_algobase.h **** #include <ext/type_traits.h>
  63:/Library/DaisyToolchain/0.2.0/arm/arm-none-eabi/include/c++/10.3.1/bits/stl_algobase.h **** #include <ext/numeric_traits.h>
  64:/Library/DaisyToolchain/0.2.0/arm/arm-none-eabi/include/c++/10.3.1/bits/stl_algobase.h **** #include <bits/stl_pair.h>
  65:/Library/DaisyToolchain/0.2.0/arm/arm-none-eabi/include/c++/10.3.1/bits/stl_algobase.h **** #include <bits/stl_iterator_base_types.h>
  66:/Library/DaisyToolchain/0.2.0/arm/arm-none-eabi/include/c++/10.3.1/bits/stl_algobase.h **** #include <bits/stl_iterator_base_funcs.h>
  67:/Library/DaisyToolchain/0.2.0/arm/arm-none-eabi/include/c++/10.3.1/bits/stl_algobase.h **** #include <bits/stl_iterator.h>
  68:/Library/DaisyToolchain/0.2.0/arm/arm-none-eabi/include/c++/10.3.1/bits/stl_algobase.h **** #include <bits/concept_check.h>
  69:/Library/DaisyToolchain/0.2.0/arm/arm-none-eabi/include/c++/10.3.1/bits/stl_algobase.h **** #include <debug/debug.h>
  70:/Library/DaisyToolchain/0.2.0/arm/arm-none-eabi/include/c++/10.3.1/bits/stl_algobase.h **** #include <bits/move.h> // For std::swap
  71:/Library/DaisyToolchain/0.2.0/arm/arm-none-eabi/include/c++/10.3.1/bits/stl_algobase.h **** #include <bits/predefined_ops.h>
  72:/Library/DaisyToolchain/0.2.0/arm/arm-none-eabi/include/c++/10.3.1/bits/stl_algobase.h **** #if __cplusplus >= 201103L
  73:/Library/DaisyToolchain/0.2.0/arm/arm-none-eabi/include/c++/10.3.1/bits/stl_algobase.h **** # include <type_traits>
  74:/Library/DaisyToolchain/0.2.0/arm/arm-none-eabi/include/c++/10.3.1/bits/stl_algobase.h **** #endif
  75:/Library/DaisyToolchain/0.2.0/arm/arm-none-eabi/include/c++/10.3.1/bits/stl_algobase.h **** #if __cplusplus > 201703L
  76:/Library/DaisyToolchain/0.2.0/arm/arm-none-eabi/include/c++/10.3.1/bits/stl_algobase.h **** # include <compare>
  77:/Library/DaisyToolchain/0.2.0/arm/arm-none-eabi/include/c++/10.3.1/bits/stl_algobase.h **** #endif
  78:/Library/DaisyToolchain/0.2.0/arm/arm-none-eabi/include/c++/10.3.1/bits/stl_algobase.h **** 
  79:/Library/DaisyToolchain/0.2.0/arm/arm-none-eabi/include/c++/10.3.1/bits/stl_algobase.h **** namespace std _GLIBCXX_VISIBILITY(default)
  80:/Library/DaisyToolchain/0.2.0/arm/arm-none-eabi/include/c++/10.3.1/bits/stl_algobase.h **** {
  81:/Library/DaisyToolchain/0.2.0/arm/arm-none-eabi/include/c++/10.3.1/bits/stl_algobase.h **** _GLIBCXX_BEGIN_NAMESPACE_VERSION
  82:/Library/DaisyToolchain/0.2.0/arm/arm-none-eabi/include/c++/10.3.1/bits/stl_algobase.h **** 
  83:/Library/DaisyToolchain/0.2.0/arm/arm-none-eabi/include/c++/10.3.1/bits/stl_algobase.h ****   /*
  84:/Library/DaisyToolchain/0.2.0/arm/arm-none-eabi/include/c++/10.3.1/bits/stl_algobase.h ****    * A constexpr wrapper for __builtin_memcmp.
  85:/Library/DaisyToolchain/0.2.0/arm/arm-none-eabi/include/c++/10.3.1/bits/stl_algobase.h ****    * @param __num The number of elements of type _Tp (not bytes).
  86:/Library/DaisyToolchain/0.2.0/arm/arm-none-eabi/include/c++/10.3.1/bits/stl_algobase.h ****    */
  87:/Library/DaisyToolchain/0.2.0/arm/arm-none-eabi/include/c++/10.3.1/bits/stl_algobase.h ****   template<typename _Tp, typename _Up>
  88:/Library/DaisyToolchain/0.2.0/arm/arm-none-eabi/include/c++/10.3.1/bits/stl_algobase.h ****     _GLIBCXX14_CONSTEXPR
  89:/Library/DaisyToolchain/0.2.0/arm/arm-none-eabi/include/c++/10.3.1/bits/stl_algobase.h ****     inline int
  90:/Library/DaisyToolchain/0.2.0/arm/arm-none-eabi/include/c++/10.3.1/bits/stl_algobase.h ****     __memcmp(const _Tp* __first1, const _Up* __first2, size_t __num)
  91:/Library/DaisyToolchain/0.2.0/arm/arm-none-eabi/include/c++/10.3.1/bits/stl_algobase.h ****     {
  92:/Library/DaisyToolchain/0.2.0/arm/arm-none-eabi/include/c++/10.3.1/bits/stl_algobase.h **** #if __cplusplus >= 201103L
  93:/Library/DaisyToolchain/0.2.0/arm/arm-none-eabi/include/c++/10.3.1/bits/stl_algobase.h ****       static_assert(sizeof(_Tp) == sizeof(_Up), "can be compared with memcmp");
  94:/Library/DaisyToolchain/0.2.0/arm/arm-none-eabi/include/c++/10.3.1/bits/stl_algobase.h **** #endif
  95:/Library/DaisyToolchain/0.2.0/arm/arm-none-eabi/include/c++/10.3.1/bits/stl_algobase.h **** #ifdef __cpp_lib_is_constant_evaluated
  96:/Library/DaisyToolchain/0.2.0/arm/arm-none-eabi/include/c++/10.3.1/bits/stl_algobase.h ****       if (std::is_constant_evaluated())
  97:/Library/DaisyToolchain/0.2.0/arm/arm-none-eabi/include/c++/10.3.1/bits/stl_algobase.h **** 	{
  98:/Library/DaisyToolchain/0.2.0/arm/arm-none-eabi/include/c++/10.3.1/bits/stl_algobase.h **** 	  for(; __num > 0; ++__first1, ++__first2, --__num)
  99:/Library/DaisyToolchain/0.2.0/arm/arm-none-eabi/include/c++/10.3.1/bits/stl_algobase.h **** 	    if (*__first1 != *__first2)
 100:/Library/DaisyToolchain/0.2.0/arm/arm-none-eabi/include/c++/10.3.1/bits/stl_algobase.h **** 	      return *__first1 < *__first2 ? -1 : 1;
 101:/Library/DaisyToolchain/0.2.0/arm/arm-none-eabi/include/c++/10.3.1/bits/stl_algobase.h **** 	  return 0;
 102:/Library/DaisyToolchain/0.2.0/arm/arm-none-eabi/include/c++/10.3.1/bits/stl_algobase.h **** 	}
 103:/Library/DaisyToolchain/0.2.0/arm/arm-none-eabi/include/c++/10.3.1/bits/stl_algobase.h ****       else
 104:/Library/DaisyToolchain/0.2.0/arm/arm-none-eabi/include/c++/10.3.1/bits/stl_algobase.h **** #endif
 105:/Library/DaisyToolchain/0.2.0/arm/arm-none-eabi/include/c++/10.3.1/bits/stl_algobase.h **** 	return __builtin_memcmp(__first1, __first2, sizeof(_Tp) * __num);
 106:/Library/DaisyToolchain/0.2.0/arm/arm-none-eabi/include/c++/10.3.1/bits/stl_algobase.h ****     }
 107:/Library/DaisyToolchain/0.2.0/arm/arm-none-eabi/include/c++/10.3.1/bits/stl_algobase.h **** 
 108:/Library/DaisyToolchain/0.2.0/arm/arm-none-eabi/include/c++/10.3.1/bits/stl_algobase.h **** #if __cplusplus < 201103L
 109:/Library/DaisyToolchain/0.2.0/arm/arm-none-eabi/include/c++/10.3.1/bits/stl_algobase.h ****   // See http://gcc.gnu.org/ml/libstdc++/2004-08/msg00167.html: in a
 110:/Library/DaisyToolchain/0.2.0/arm/arm-none-eabi/include/c++/10.3.1/bits/stl_algobase.h ****   // nutshell, we are partially implementing the resolution of DR 187,
 111:/Library/DaisyToolchain/0.2.0/arm/arm-none-eabi/include/c++/10.3.1/bits/stl_algobase.h ****   // when it's safe, i.e., the value_types are equal.
 112:/Library/DaisyToolchain/0.2.0/arm/arm-none-eabi/include/c++/10.3.1/bits/stl_algobase.h ****   template<bool _BoolType>
 113:/Library/DaisyToolchain/0.2.0/arm/arm-none-eabi/include/c++/10.3.1/bits/stl_algobase.h ****     struct __iter_swap
 114:/Library/DaisyToolchain/0.2.0/arm/arm-none-eabi/include/c++/10.3.1/bits/stl_algobase.h ****     {
 115:/Library/DaisyToolchain/0.2.0/arm/arm-none-eabi/include/c++/10.3.1/bits/stl_algobase.h ****       template<typename _ForwardIterator1, typename _ForwardIterator2>
 116:/Library/DaisyToolchain/0.2.0/arm/arm-none-eabi/include/c++/10.3.1/bits/stl_algobase.h **** 	static void
 117:/Library/DaisyToolchain/0.2.0/arm/arm-none-eabi/include/c++/10.3.1/bits/stl_algobase.h **** 	iter_swap(_ForwardIterator1 __a, _ForwardIterator2 __b)
ARM GAS  /var/folders/s6/2bsynnl15rj0bwtb9pgx4dc00000gn/T//cc76hY55.s 			page 136


 118:/Library/DaisyToolchain/0.2.0/arm/arm-none-eabi/include/c++/10.3.1/bits/stl_algobase.h **** 	{
 119:/Library/DaisyToolchain/0.2.0/arm/arm-none-eabi/include/c++/10.3.1/bits/stl_algobase.h **** 	  typedef typename iterator_traits<_ForwardIterator1>::value_type
 120:/Library/DaisyToolchain/0.2.0/arm/arm-none-eabi/include/c++/10.3.1/bits/stl_algobase.h **** 	    _ValueType1;
 121:/Library/DaisyToolchain/0.2.0/arm/arm-none-eabi/include/c++/10.3.1/bits/stl_algobase.h **** 	  _ValueType1 __tmp = *__a;
 122:/Library/DaisyToolchain/0.2.0/arm/arm-none-eabi/include/c++/10.3.1/bits/stl_algobase.h **** 	  *__a = *__b;
 123:/Library/DaisyToolchain/0.2.0/arm/arm-none-eabi/include/c++/10.3.1/bits/stl_algobase.h **** 	  *__b = __tmp;
 124:/Library/DaisyToolchain/0.2.0/arm/arm-none-eabi/include/c++/10.3.1/bits/stl_algobase.h **** 	}
 125:/Library/DaisyToolchain/0.2.0/arm/arm-none-eabi/include/c++/10.3.1/bits/stl_algobase.h ****     };
 126:/Library/DaisyToolchain/0.2.0/arm/arm-none-eabi/include/c++/10.3.1/bits/stl_algobase.h **** 
 127:/Library/DaisyToolchain/0.2.0/arm/arm-none-eabi/include/c++/10.3.1/bits/stl_algobase.h ****   template<>
 128:/Library/DaisyToolchain/0.2.0/arm/arm-none-eabi/include/c++/10.3.1/bits/stl_algobase.h ****     struct __iter_swap<true>
 129:/Library/DaisyToolchain/0.2.0/arm/arm-none-eabi/include/c++/10.3.1/bits/stl_algobase.h ****     {
 130:/Library/DaisyToolchain/0.2.0/arm/arm-none-eabi/include/c++/10.3.1/bits/stl_algobase.h ****       template<typename _ForwardIterator1, typename _ForwardIterator2>
 131:/Library/DaisyToolchain/0.2.0/arm/arm-none-eabi/include/c++/10.3.1/bits/stl_algobase.h **** 	static void
 132:/Library/DaisyToolchain/0.2.0/arm/arm-none-eabi/include/c++/10.3.1/bits/stl_algobase.h **** 	iter_swap(_ForwardIterator1 __a, _ForwardIterator2 __b)
 133:/Library/DaisyToolchain/0.2.0/arm/arm-none-eabi/include/c++/10.3.1/bits/stl_algobase.h **** 	{
 134:/Library/DaisyToolchain/0.2.0/arm/arm-none-eabi/include/c++/10.3.1/bits/stl_algobase.h **** 	  swap(*__a, *__b);
 135:/Library/DaisyToolchain/0.2.0/arm/arm-none-eabi/include/c++/10.3.1/bits/stl_algobase.h **** 	}
 136:/Library/DaisyToolchain/0.2.0/arm/arm-none-eabi/include/c++/10.3.1/bits/stl_algobase.h ****     };
 137:/Library/DaisyToolchain/0.2.0/arm/arm-none-eabi/include/c++/10.3.1/bits/stl_algobase.h **** #endif // C++03
 138:/Library/DaisyToolchain/0.2.0/arm/arm-none-eabi/include/c++/10.3.1/bits/stl_algobase.h **** 
 139:/Library/DaisyToolchain/0.2.0/arm/arm-none-eabi/include/c++/10.3.1/bits/stl_algobase.h ****   /**
 140:/Library/DaisyToolchain/0.2.0/arm/arm-none-eabi/include/c++/10.3.1/bits/stl_algobase.h ****    *  @brief Swaps the contents of two iterators.
 141:/Library/DaisyToolchain/0.2.0/arm/arm-none-eabi/include/c++/10.3.1/bits/stl_algobase.h ****    *  @ingroup mutating_algorithms
 142:/Library/DaisyToolchain/0.2.0/arm/arm-none-eabi/include/c++/10.3.1/bits/stl_algobase.h ****    *  @param  __a  An iterator.
 143:/Library/DaisyToolchain/0.2.0/arm/arm-none-eabi/include/c++/10.3.1/bits/stl_algobase.h ****    *  @param  __b  Another iterator.
 144:/Library/DaisyToolchain/0.2.0/arm/arm-none-eabi/include/c++/10.3.1/bits/stl_algobase.h ****    *  @return   Nothing.
 145:/Library/DaisyToolchain/0.2.0/arm/arm-none-eabi/include/c++/10.3.1/bits/stl_algobase.h ****    *
 146:/Library/DaisyToolchain/0.2.0/arm/arm-none-eabi/include/c++/10.3.1/bits/stl_algobase.h ****    *  This function swaps the values pointed to by two iterators, not the
 147:/Library/DaisyToolchain/0.2.0/arm/arm-none-eabi/include/c++/10.3.1/bits/stl_algobase.h ****    *  iterators themselves.
 148:/Library/DaisyToolchain/0.2.0/arm/arm-none-eabi/include/c++/10.3.1/bits/stl_algobase.h ****   */
 149:/Library/DaisyToolchain/0.2.0/arm/arm-none-eabi/include/c++/10.3.1/bits/stl_algobase.h ****   template<typename _ForwardIterator1, typename _ForwardIterator2>
 150:/Library/DaisyToolchain/0.2.0/arm/arm-none-eabi/include/c++/10.3.1/bits/stl_algobase.h ****     _GLIBCXX20_CONSTEXPR
 151:/Library/DaisyToolchain/0.2.0/arm/arm-none-eabi/include/c++/10.3.1/bits/stl_algobase.h ****     inline void
 152:/Library/DaisyToolchain/0.2.0/arm/arm-none-eabi/include/c++/10.3.1/bits/stl_algobase.h ****     iter_swap(_ForwardIterator1 __a, _ForwardIterator2 __b)
 153:/Library/DaisyToolchain/0.2.0/arm/arm-none-eabi/include/c++/10.3.1/bits/stl_algobase.h ****     {
 154:/Library/DaisyToolchain/0.2.0/arm/arm-none-eabi/include/c++/10.3.1/bits/stl_algobase.h ****       // concept requirements
 155:/Library/DaisyToolchain/0.2.0/arm/arm-none-eabi/include/c++/10.3.1/bits/stl_algobase.h ****       __glibcxx_function_requires(_Mutable_ForwardIteratorConcept<
 156:/Library/DaisyToolchain/0.2.0/arm/arm-none-eabi/include/c++/10.3.1/bits/stl_algobase.h **** 				  _ForwardIterator1>)
 157:/Library/DaisyToolchain/0.2.0/arm/arm-none-eabi/include/c++/10.3.1/bits/stl_algobase.h ****       __glibcxx_function_requires(_Mutable_ForwardIteratorConcept<
 158:/Library/DaisyToolchain/0.2.0/arm/arm-none-eabi/include/c++/10.3.1/bits/stl_algobase.h **** 				  _ForwardIterator2>)
 159:/Library/DaisyToolchain/0.2.0/arm/arm-none-eabi/include/c++/10.3.1/bits/stl_algobase.h **** 
 160:/Library/DaisyToolchain/0.2.0/arm/arm-none-eabi/include/c++/10.3.1/bits/stl_algobase.h **** #if __cplusplus < 201103L
 161:/Library/DaisyToolchain/0.2.0/arm/arm-none-eabi/include/c++/10.3.1/bits/stl_algobase.h ****       typedef typename iterator_traits<_ForwardIterator1>::value_type
 162:/Library/DaisyToolchain/0.2.0/arm/arm-none-eabi/include/c++/10.3.1/bits/stl_algobase.h **** 	_ValueType1;
 163:/Library/DaisyToolchain/0.2.0/arm/arm-none-eabi/include/c++/10.3.1/bits/stl_algobase.h ****       typedef typename iterator_traits<_ForwardIterator2>::value_type
 164:/Library/DaisyToolchain/0.2.0/arm/arm-none-eabi/include/c++/10.3.1/bits/stl_algobase.h **** 	_ValueType2;
 165:/Library/DaisyToolchain/0.2.0/arm/arm-none-eabi/include/c++/10.3.1/bits/stl_algobase.h **** 
 166:/Library/DaisyToolchain/0.2.0/arm/arm-none-eabi/include/c++/10.3.1/bits/stl_algobase.h ****       __glibcxx_function_requires(_ConvertibleConcept<_ValueType1,
 167:/Library/DaisyToolchain/0.2.0/arm/arm-none-eabi/include/c++/10.3.1/bits/stl_algobase.h **** 				  _ValueType2>)
 168:/Library/DaisyToolchain/0.2.0/arm/arm-none-eabi/include/c++/10.3.1/bits/stl_algobase.h ****       __glibcxx_function_requires(_ConvertibleConcept<_ValueType2,
 169:/Library/DaisyToolchain/0.2.0/arm/arm-none-eabi/include/c++/10.3.1/bits/stl_algobase.h **** 				  _ValueType1>)
 170:/Library/DaisyToolchain/0.2.0/arm/arm-none-eabi/include/c++/10.3.1/bits/stl_algobase.h **** 
 171:/Library/DaisyToolchain/0.2.0/arm/arm-none-eabi/include/c++/10.3.1/bits/stl_algobase.h ****       typedef typename iterator_traits<_ForwardIterator1>::reference
 172:/Library/DaisyToolchain/0.2.0/arm/arm-none-eabi/include/c++/10.3.1/bits/stl_algobase.h **** 	_ReferenceType1;
 173:/Library/DaisyToolchain/0.2.0/arm/arm-none-eabi/include/c++/10.3.1/bits/stl_algobase.h ****       typedef typename iterator_traits<_ForwardIterator2>::reference
 174:/Library/DaisyToolchain/0.2.0/arm/arm-none-eabi/include/c++/10.3.1/bits/stl_algobase.h **** 	_ReferenceType2;
ARM GAS  /var/folders/s6/2bsynnl15rj0bwtb9pgx4dc00000gn/T//cc76hY55.s 			page 137


 175:/Library/DaisyToolchain/0.2.0/arm/arm-none-eabi/include/c++/10.3.1/bits/stl_algobase.h ****       std::__iter_swap<__are_same<_ValueType1, _ValueType2>::__value
 176:/Library/DaisyToolchain/0.2.0/arm/arm-none-eabi/include/c++/10.3.1/bits/stl_algobase.h **** 	&& __are_same<_ValueType1&, _ReferenceType1>::__value
 177:/Library/DaisyToolchain/0.2.0/arm/arm-none-eabi/include/c++/10.3.1/bits/stl_algobase.h **** 	&& __are_same<_ValueType2&, _ReferenceType2>::__value>::
 178:/Library/DaisyToolchain/0.2.0/arm/arm-none-eabi/include/c++/10.3.1/bits/stl_algobase.h **** 	iter_swap(__a, __b);
 179:/Library/DaisyToolchain/0.2.0/arm/arm-none-eabi/include/c++/10.3.1/bits/stl_algobase.h **** #else
 180:/Library/DaisyToolchain/0.2.0/arm/arm-none-eabi/include/c++/10.3.1/bits/stl_algobase.h ****       // _GLIBCXX_RESOLVE_LIB_DEFECTS
 181:/Library/DaisyToolchain/0.2.0/arm/arm-none-eabi/include/c++/10.3.1/bits/stl_algobase.h ****       // 187. iter_swap underspecified
 182:/Library/DaisyToolchain/0.2.0/arm/arm-none-eabi/include/c++/10.3.1/bits/stl_algobase.h ****       swap(*__a, *__b);
 183:/Library/DaisyToolchain/0.2.0/arm/arm-none-eabi/include/c++/10.3.1/bits/stl_algobase.h **** #endif
 184:/Library/DaisyToolchain/0.2.0/arm/arm-none-eabi/include/c++/10.3.1/bits/stl_algobase.h ****     }
 185:/Library/DaisyToolchain/0.2.0/arm/arm-none-eabi/include/c++/10.3.1/bits/stl_algobase.h **** 
 186:/Library/DaisyToolchain/0.2.0/arm/arm-none-eabi/include/c++/10.3.1/bits/stl_algobase.h ****   /**
 187:/Library/DaisyToolchain/0.2.0/arm/arm-none-eabi/include/c++/10.3.1/bits/stl_algobase.h ****    *  @brief Swap the elements of two sequences.
 188:/Library/DaisyToolchain/0.2.0/arm/arm-none-eabi/include/c++/10.3.1/bits/stl_algobase.h ****    *  @ingroup mutating_algorithms
 189:/Library/DaisyToolchain/0.2.0/arm/arm-none-eabi/include/c++/10.3.1/bits/stl_algobase.h ****    *  @param  __first1  A forward iterator.
 190:/Library/DaisyToolchain/0.2.0/arm/arm-none-eabi/include/c++/10.3.1/bits/stl_algobase.h ****    *  @param  __last1   A forward iterator.
 191:/Library/DaisyToolchain/0.2.0/arm/arm-none-eabi/include/c++/10.3.1/bits/stl_algobase.h ****    *  @param  __first2  A forward iterator.
 192:/Library/DaisyToolchain/0.2.0/arm/arm-none-eabi/include/c++/10.3.1/bits/stl_algobase.h ****    *  @return   An iterator equal to @p first2+(last1-first1).
 193:/Library/DaisyToolchain/0.2.0/arm/arm-none-eabi/include/c++/10.3.1/bits/stl_algobase.h ****    *
 194:/Library/DaisyToolchain/0.2.0/arm/arm-none-eabi/include/c++/10.3.1/bits/stl_algobase.h ****    *  Swaps each element in the range @p [first1,last1) with the
 195:/Library/DaisyToolchain/0.2.0/arm/arm-none-eabi/include/c++/10.3.1/bits/stl_algobase.h ****    *  corresponding element in the range @p [first2,(last1-first1)).
 196:/Library/DaisyToolchain/0.2.0/arm/arm-none-eabi/include/c++/10.3.1/bits/stl_algobase.h ****    *  The ranges must not overlap.
 197:/Library/DaisyToolchain/0.2.0/arm/arm-none-eabi/include/c++/10.3.1/bits/stl_algobase.h ****   */
 198:/Library/DaisyToolchain/0.2.0/arm/arm-none-eabi/include/c++/10.3.1/bits/stl_algobase.h ****   template<typename _ForwardIterator1, typename _ForwardIterator2>
 199:/Library/DaisyToolchain/0.2.0/arm/arm-none-eabi/include/c++/10.3.1/bits/stl_algobase.h ****     _GLIBCXX20_CONSTEXPR
 200:/Library/DaisyToolchain/0.2.0/arm/arm-none-eabi/include/c++/10.3.1/bits/stl_algobase.h ****     _ForwardIterator2
 201:/Library/DaisyToolchain/0.2.0/arm/arm-none-eabi/include/c++/10.3.1/bits/stl_algobase.h ****     swap_ranges(_ForwardIterator1 __first1, _ForwardIterator1 __last1,
 202:/Library/DaisyToolchain/0.2.0/arm/arm-none-eabi/include/c++/10.3.1/bits/stl_algobase.h **** 		_ForwardIterator2 __first2)
 203:/Library/DaisyToolchain/0.2.0/arm/arm-none-eabi/include/c++/10.3.1/bits/stl_algobase.h ****     {
 204:/Library/DaisyToolchain/0.2.0/arm/arm-none-eabi/include/c++/10.3.1/bits/stl_algobase.h ****       // concept requirements
 205:/Library/DaisyToolchain/0.2.0/arm/arm-none-eabi/include/c++/10.3.1/bits/stl_algobase.h ****       __glibcxx_function_requires(_Mutable_ForwardIteratorConcept<
 206:/Library/DaisyToolchain/0.2.0/arm/arm-none-eabi/include/c++/10.3.1/bits/stl_algobase.h **** 				  _ForwardIterator1>)
 207:/Library/DaisyToolchain/0.2.0/arm/arm-none-eabi/include/c++/10.3.1/bits/stl_algobase.h ****       __glibcxx_function_requires(_Mutable_ForwardIteratorConcept<
 208:/Library/DaisyToolchain/0.2.0/arm/arm-none-eabi/include/c++/10.3.1/bits/stl_algobase.h **** 				  _ForwardIterator2>)
 209:/Library/DaisyToolchain/0.2.0/arm/arm-none-eabi/include/c++/10.3.1/bits/stl_algobase.h ****       __glibcxx_requires_valid_range(__first1, __last1);
 210:/Library/DaisyToolchain/0.2.0/arm/arm-none-eabi/include/c++/10.3.1/bits/stl_algobase.h **** 
 211:/Library/DaisyToolchain/0.2.0/arm/arm-none-eabi/include/c++/10.3.1/bits/stl_algobase.h ****       for (; __first1 != __last1; ++__first1, (void)++__first2)
 212:/Library/DaisyToolchain/0.2.0/arm/arm-none-eabi/include/c++/10.3.1/bits/stl_algobase.h **** 	std::iter_swap(__first1, __first2);
 213:/Library/DaisyToolchain/0.2.0/arm/arm-none-eabi/include/c++/10.3.1/bits/stl_algobase.h ****       return __first2;
 214:/Library/DaisyToolchain/0.2.0/arm/arm-none-eabi/include/c++/10.3.1/bits/stl_algobase.h ****     }
 215:/Library/DaisyToolchain/0.2.0/arm/arm-none-eabi/include/c++/10.3.1/bits/stl_algobase.h **** 
 216:/Library/DaisyToolchain/0.2.0/arm/arm-none-eabi/include/c++/10.3.1/bits/stl_algobase.h ****   /**
 217:/Library/DaisyToolchain/0.2.0/arm/arm-none-eabi/include/c++/10.3.1/bits/stl_algobase.h ****    *  @brief This does what you think it does.
 218:/Library/DaisyToolchain/0.2.0/arm/arm-none-eabi/include/c++/10.3.1/bits/stl_algobase.h ****    *  @ingroup sorting_algorithms
 219:/Library/DaisyToolchain/0.2.0/arm/arm-none-eabi/include/c++/10.3.1/bits/stl_algobase.h ****    *  @param  __a  A thing of arbitrary type.
 220:/Library/DaisyToolchain/0.2.0/arm/arm-none-eabi/include/c++/10.3.1/bits/stl_algobase.h ****    *  @param  __b  Another thing of arbitrary type.
 221:/Library/DaisyToolchain/0.2.0/arm/arm-none-eabi/include/c++/10.3.1/bits/stl_algobase.h ****    *  @return   The lesser of the parameters.
 222:/Library/DaisyToolchain/0.2.0/arm/arm-none-eabi/include/c++/10.3.1/bits/stl_algobase.h ****    *
 223:/Library/DaisyToolchain/0.2.0/arm/arm-none-eabi/include/c++/10.3.1/bits/stl_algobase.h ****    *  This is the simple classic generic implementation.  It will work on
 224:/Library/DaisyToolchain/0.2.0/arm/arm-none-eabi/include/c++/10.3.1/bits/stl_algobase.h ****    *  temporary expressions, since they are only evaluated once, unlike a
 225:/Library/DaisyToolchain/0.2.0/arm/arm-none-eabi/include/c++/10.3.1/bits/stl_algobase.h ****    *  preprocessor macro.
 226:/Library/DaisyToolchain/0.2.0/arm/arm-none-eabi/include/c++/10.3.1/bits/stl_algobase.h ****   */
 227:/Library/DaisyToolchain/0.2.0/arm/arm-none-eabi/include/c++/10.3.1/bits/stl_algobase.h ****   template<typename _Tp>
 228:/Library/DaisyToolchain/0.2.0/arm/arm-none-eabi/include/c++/10.3.1/bits/stl_algobase.h ****     _GLIBCXX14_CONSTEXPR
 229:/Library/DaisyToolchain/0.2.0/arm/arm-none-eabi/include/c++/10.3.1/bits/stl_algobase.h ****     inline const _Tp&
 230:/Library/DaisyToolchain/0.2.0/arm/arm-none-eabi/include/c++/10.3.1/bits/stl_algobase.h ****     min(const _Tp& __a, const _Tp& __b)
 231:/Library/DaisyToolchain/0.2.0/arm/arm-none-eabi/include/c++/10.3.1/bits/stl_algobase.h ****     {
ARM GAS  /var/folders/s6/2bsynnl15rj0bwtb9pgx4dc00000gn/T//cc76hY55.s 			page 138


 232:/Library/DaisyToolchain/0.2.0/arm/arm-none-eabi/include/c++/10.3.1/bits/stl_algobase.h ****       // concept requirements
 233:/Library/DaisyToolchain/0.2.0/arm/arm-none-eabi/include/c++/10.3.1/bits/stl_algobase.h ****       __glibcxx_function_requires(_LessThanComparableConcept<_Tp>)
 234:/Library/DaisyToolchain/0.2.0/arm/arm-none-eabi/include/c++/10.3.1/bits/stl_algobase.h ****       //return __b < __a ? __b : __a;
 235:/Library/DaisyToolchain/0.2.0/arm/arm-none-eabi/include/c++/10.3.1/bits/stl_algobase.h ****       if (__b < __a)
 236:/Library/DaisyToolchain/0.2.0/arm/arm-none-eabi/include/c++/10.3.1/bits/stl_algobase.h **** 	return __b;
 237:/Library/DaisyToolchain/0.2.0/arm/arm-none-eabi/include/c++/10.3.1/bits/stl_algobase.h ****       return __a;
 238:/Library/DaisyToolchain/0.2.0/arm/arm-none-eabi/include/c++/10.3.1/bits/stl_algobase.h ****     }
 239:/Library/DaisyToolchain/0.2.0/arm/arm-none-eabi/include/c++/10.3.1/bits/stl_algobase.h **** 
 240:/Library/DaisyToolchain/0.2.0/arm/arm-none-eabi/include/c++/10.3.1/bits/stl_algobase.h ****   /**
 241:/Library/DaisyToolchain/0.2.0/arm/arm-none-eabi/include/c++/10.3.1/bits/stl_algobase.h ****    *  @brief This does what you think it does.
 242:/Library/DaisyToolchain/0.2.0/arm/arm-none-eabi/include/c++/10.3.1/bits/stl_algobase.h ****    *  @ingroup sorting_algorithms
 243:/Library/DaisyToolchain/0.2.0/arm/arm-none-eabi/include/c++/10.3.1/bits/stl_algobase.h ****    *  @param  __a  A thing of arbitrary type.
 244:/Library/DaisyToolchain/0.2.0/arm/arm-none-eabi/include/c++/10.3.1/bits/stl_algobase.h ****    *  @param  __b  Another thing of arbitrary type.
 245:/Library/DaisyToolchain/0.2.0/arm/arm-none-eabi/include/c++/10.3.1/bits/stl_algobase.h ****    *  @return   The greater of the parameters.
 246:/Library/DaisyToolchain/0.2.0/arm/arm-none-eabi/include/c++/10.3.1/bits/stl_algobase.h ****    *
 247:/Library/DaisyToolchain/0.2.0/arm/arm-none-eabi/include/c++/10.3.1/bits/stl_algobase.h ****    *  This is the simple classic generic implementation.  It will work on
 248:/Library/DaisyToolchain/0.2.0/arm/arm-none-eabi/include/c++/10.3.1/bits/stl_algobase.h ****    *  temporary expressions, since they are only evaluated once, unlike a
 249:/Library/DaisyToolchain/0.2.0/arm/arm-none-eabi/include/c++/10.3.1/bits/stl_algobase.h ****    *  preprocessor macro.
 250:/Library/DaisyToolchain/0.2.0/arm/arm-none-eabi/include/c++/10.3.1/bits/stl_algobase.h ****   */
 251:/Library/DaisyToolchain/0.2.0/arm/arm-none-eabi/include/c++/10.3.1/bits/stl_algobase.h ****   template<typename _Tp>
 252:/Library/DaisyToolchain/0.2.0/arm/arm-none-eabi/include/c++/10.3.1/bits/stl_algobase.h ****     _GLIBCXX14_CONSTEXPR
 253:/Library/DaisyToolchain/0.2.0/arm/arm-none-eabi/include/c++/10.3.1/bits/stl_algobase.h ****     inline const _Tp&
 254:/Library/DaisyToolchain/0.2.0/arm/arm-none-eabi/include/c++/10.3.1/bits/stl_algobase.h ****     max(const _Tp& __a, const _Tp& __b)
 255:/Library/DaisyToolchain/0.2.0/arm/arm-none-eabi/include/c++/10.3.1/bits/stl_algobase.h ****     {
 256:/Library/DaisyToolchain/0.2.0/arm/arm-none-eabi/include/c++/10.3.1/bits/stl_algobase.h ****       // concept requirements
 257:/Library/DaisyToolchain/0.2.0/arm/arm-none-eabi/include/c++/10.3.1/bits/stl_algobase.h ****       __glibcxx_function_requires(_LessThanComparableConcept<_Tp>)
 258:/Library/DaisyToolchain/0.2.0/arm/arm-none-eabi/include/c++/10.3.1/bits/stl_algobase.h ****       //return  __a < __b ? __b : __a;
 259:/Library/DaisyToolchain/0.2.0/arm/arm-none-eabi/include/c++/10.3.1/bits/stl_algobase.h ****       if (__a < __b)
 260:/Library/DaisyToolchain/0.2.0/arm/arm-none-eabi/include/c++/10.3.1/bits/stl_algobase.h **** 	return __b;
 261:/Library/DaisyToolchain/0.2.0/arm/arm-none-eabi/include/c++/10.3.1/bits/stl_algobase.h ****       return __a;
 262:/Library/DaisyToolchain/0.2.0/arm/arm-none-eabi/include/c++/10.3.1/bits/stl_algobase.h ****     }
 263:/Library/DaisyToolchain/0.2.0/arm/arm-none-eabi/include/c++/10.3.1/bits/stl_algobase.h **** 
 264:/Library/DaisyToolchain/0.2.0/arm/arm-none-eabi/include/c++/10.3.1/bits/stl_algobase.h ****   /**
 265:/Library/DaisyToolchain/0.2.0/arm/arm-none-eabi/include/c++/10.3.1/bits/stl_algobase.h ****    *  @brief This does what you think it does.
 266:/Library/DaisyToolchain/0.2.0/arm/arm-none-eabi/include/c++/10.3.1/bits/stl_algobase.h ****    *  @ingroup sorting_algorithms
 267:/Library/DaisyToolchain/0.2.0/arm/arm-none-eabi/include/c++/10.3.1/bits/stl_algobase.h ****    *  @param  __a  A thing of arbitrary type.
 268:/Library/DaisyToolchain/0.2.0/arm/arm-none-eabi/include/c++/10.3.1/bits/stl_algobase.h ****    *  @param  __b  Another thing of arbitrary type.
 269:/Library/DaisyToolchain/0.2.0/arm/arm-none-eabi/include/c++/10.3.1/bits/stl_algobase.h ****    *  @param  __comp  A @link comparison_functors comparison functor@endlink.
 270:/Library/DaisyToolchain/0.2.0/arm/arm-none-eabi/include/c++/10.3.1/bits/stl_algobase.h ****    *  @return   The lesser of the parameters.
 271:/Library/DaisyToolchain/0.2.0/arm/arm-none-eabi/include/c++/10.3.1/bits/stl_algobase.h ****    *
 272:/Library/DaisyToolchain/0.2.0/arm/arm-none-eabi/include/c++/10.3.1/bits/stl_algobase.h ****    *  This will work on temporary expressions, since they are only evaluated
 273:/Library/DaisyToolchain/0.2.0/arm/arm-none-eabi/include/c++/10.3.1/bits/stl_algobase.h ****    *  once, unlike a preprocessor macro.
 274:/Library/DaisyToolchain/0.2.0/arm/arm-none-eabi/include/c++/10.3.1/bits/stl_algobase.h ****   */
 275:/Library/DaisyToolchain/0.2.0/arm/arm-none-eabi/include/c++/10.3.1/bits/stl_algobase.h ****   template<typename _Tp, typename _Compare>
 276:/Library/DaisyToolchain/0.2.0/arm/arm-none-eabi/include/c++/10.3.1/bits/stl_algobase.h ****     _GLIBCXX14_CONSTEXPR
 277:/Library/DaisyToolchain/0.2.0/arm/arm-none-eabi/include/c++/10.3.1/bits/stl_algobase.h ****     inline const _Tp&
 278:/Library/DaisyToolchain/0.2.0/arm/arm-none-eabi/include/c++/10.3.1/bits/stl_algobase.h ****     min(const _Tp& __a, const _Tp& __b, _Compare __comp)
 279:/Library/DaisyToolchain/0.2.0/arm/arm-none-eabi/include/c++/10.3.1/bits/stl_algobase.h ****     {
 280:/Library/DaisyToolchain/0.2.0/arm/arm-none-eabi/include/c++/10.3.1/bits/stl_algobase.h ****       //return __comp(__b, __a) ? __b : __a;
 281:/Library/DaisyToolchain/0.2.0/arm/arm-none-eabi/include/c++/10.3.1/bits/stl_algobase.h ****       if (__comp(__b, __a))
 282:/Library/DaisyToolchain/0.2.0/arm/arm-none-eabi/include/c++/10.3.1/bits/stl_algobase.h **** 	return __b;
 283:/Library/DaisyToolchain/0.2.0/arm/arm-none-eabi/include/c++/10.3.1/bits/stl_algobase.h ****       return __a;
 284:/Library/DaisyToolchain/0.2.0/arm/arm-none-eabi/include/c++/10.3.1/bits/stl_algobase.h ****     }
 285:/Library/DaisyToolchain/0.2.0/arm/arm-none-eabi/include/c++/10.3.1/bits/stl_algobase.h **** 
 286:/Library/DaisyToolchain/0.2.0/arm/arm-none-eabi/include/c++/10.3.1/bits/stl_algobase.h ****   /**
 287:/Library/DaisyToolchain/0.2.0/arm/arm-none-eabi/include/c++/10.3.1/bits/stl_algobase.h ****    *  @brief This does what you think it does.
 288:/Library/DaisyToolchain/0.2.0/arm/arm-none-eabi/include/c++/10.3.1/bits/stl_algobase.h ****    *  @ingroup sorting_algorithms
ARM GAS  /var/folders/s6/2bsynnl15rj0bwtb9pgx4dc00000gn/T//cc76hY55.s 			page 139


 289:/Library/DaisyToolchain/0.2.0/arm/arm-none-eabi/include/c++/10.3.1/bits/stl_algobase.h ****    *  @param  __a  A thing of arbitrary type.
 290:/Library/DaisyToolchain/0.2.0/arm/arm-none-eabi/include/c++/10.3.1/bits/stl_algobase.h ****    *  @param  __b  Another thing of arbitrary type.
 291:/Library/DaisyToolchain/0.2.0/arm/arm-none-eabi/include/c++/10.3.1/bits/stl_algobase.h ****    *  @param  __comp  A @link comparison_functors comparison functor@endlink.
 292:/Library/DaisyToolchain/0.2.0/arm/arm-none-eabi/include/c++/10.3.1/bits/stl_algobase.h ****    *  @return   The greater of the parameters.
 293:/Library/DaisyToolchain/0.2.0/arm/arm-none-eabi/include/c++/10.3.1/bits/stl_algobase.h ****    *
 294:/Library/DaisyToolchain/0.2.0/arm/arm-none-eabi/include/c++/10.3.1/bits/stl_algobase.h ****    *  This will work on temporary expressions, since they are only evaluated
 295:/Library/DaisyToolchain/0.2.0/arm/arm-none-eabi/include/c++/10.3.1/bits/stl_algobase.h ****    *  once, unlike a preprocessor macro.
 296:/Library/DaisyToolchain/0.2.0/arm/arm-none-eabi/include/c++/10.3.1/bits/stl_algobase.h ****   */
 297:/Library/DaisyToolchain/0.2.0/arm/arm-none-eabi/include/c++/10.3.1/bits/stl_algobase.h ****   template<typename _Tp, typename _Compare>
 298:/Library/DaisyToolchain/0.2.0/arm/arm-none-eabi/include/c++/10.3.1/bits/stl_algobase.h ****     _GLIBCXX14_CONSTEXPR
 299:/Library/DaisyToolchain/0.2.0/arm/arm-none-eabi/include/c++/10.3.1/bits/stl_algobase.h ****     inline const _Tp&
 300:/Library/DaisyToolchain/0.2.0/arm/arm-none-eabi/include/c++/10.3.1/bits/stl_algobase.h ****     max(const _Tp& __a, const _Tp& __b, _Compare __comp)
 301:/Library/DaisyToolchain/0.2.0/arm/arm-none-eabi/include/c++/10.3.1/bits/stl_algobase.h ****     {
 302:/Library/DaisyToolchain/0.2.0/arm/arm-none-eabi/include/c++/10.3.1/bits/stl_algobase.h ****       //return __comp(__a, __b) ? __b : __a;
 303:/Library/DaisyToolchain/0.2.0/arm/arm-none-eabi/include/c++/10.3.1/bits/stl_algobase.h ****       if (__comp(__a, __b))
 304:/Library/DaisyToolchain/0.2.0/arm/arm-none-eabi/include/c++/10.3.1/bits/stl_algobase.h **** 	return __b;
 305:/Library/DaisyToolchain/0.2.0/arm/arm-none-eabi/include/c++/10.3.1/bits/stl_algobase.h ****       return __a;
 306:/Library/DaisyToolchain/0.2.0/arm/arm-none-eabi/include/c++/10.3.1/bits/stl_algobase.h ****     }
 307:/Library/DaisyToolchain/0.2.0/arm/arm-none-eabi/include/c++/10.3.1/bits/stl_algobase.h **** 
 308:/Library/DaisyToolchain/0.2.0/arm/arm-none-eabi/include/c++/10.3.1/bits/stl_algobase.h ****   // Fallback implementation of the function in bits/stl_iterator.h used to
 309:/Library/DaisyToolchain/0.2.0/arm/arm-none-eabi/include/c++/10.3.1/bits/stl_algobase.h ****   // remove the __normal_iterator wrapper. See copy, fill, ...
 310:/Library/DaisyToolchain/0.2.0/arm/arm-none-eabi/include/c++/10.3.1/bits/stl_algobase.h ****   template<typename _Iterator>
 311:/Library/DaisyToolchain/0.2.0/arm/arm-none-eabi/include/c++/10.3.1/bits/stl_algobase.h ****     _GLIBCXX20_CONSTEXPR
 312:/Library/DaisyToolchain/0.2.0/arm/arm-none-eabi/include/c++/10.3.1/bits/stl_algobase.h ****     inline _Iterator
 313:/Library/DaisyToolchain/0.2.0/arm/arm-none-eabi/include/c++/10.3.1/bits/stl_algobase.h ****     __niter_base(_Iterator __it)
 314:/Library/DaisyToolchain/0.2.0/arm/arm-none-eabi/include/c++/10.3.1/bits/stl_algobase.h ****     _GLIBCXX_NOEXCEPT_IF(std::is_nothrow_copy_constructible<_Iterator>::value)
 315:/Library/DaisyToolchain/0.2.0/arm/arm-none-eabi/include/c++/10.3.1/bits/stl_algobase.h ****     { return __it; }
 316:/Library/DaisyToolchain/0.2.0/arm/arm-none-eabi/include/c++/10.3.1/bits/stl_algobase.h **** 
 317:/Library/DaisyToolchain/0.2.0/arm/arm-none-eabi/include/c++/10.3.1/bits/stl_algobase.h ****   // Reverse the __niter_base transformation to get a
 318:/Library/DaisyToolchain/0.2.0/arm/arm-none-eabi/include/c++/10.3.1/bits/stl_algobase.h ****   // __normal_iterator back again (this assumes that __normal_iterator
 319:/Library/DaisyToolchain/0.2.0/arm/arm-none-eabi/include/c++/10.3.1/bits/stl_algobase.h ****   // is only used to wrap random access iterators, like pointers).
 320:/Library/DaisyToolchain/0.2.0/arm/arm-none-eabi/include/c++/10.3.1/bits/stl_algobase.h ****   template<typename _From, typename _To>
 321:/Library/DaisyToolchain/0.2.0/arm/arm-none-eabi/include/c++/10.3.1/bits/stl_algobase.h ****     _GLIBCXX20_CONSTEXPR
 322:/Library/DaisyToolchain/0.2.0/arm/arm-none-eabi/include/c++/10.3.1/bits/stl_algobase.h ****     inline _From
 323:/Library/DaisyToolchain/0.2.0/arm/arm-none-eabi/include/c++/10.3.1/bits/stl_algobase.h ****     __niter_wrap(_From __from, _To __res)
 324:/Library/DaisyToolchain/0.2.0/arm/arm-none-eabi/include/c++/10.3.1/bits/stl_algobase.h ****     { return __from + (__res - std::__niter_base(__from)); }
 325:/Library/DaisyToolchain/0.2.0/arm/arm-none-eabi/include/c++/10.3.1/bits/stl_algobase.h **** 
 326:/Library/DaisyToolchain/0.2.0/arm/arm-none-eabi/include/c++/10.3.1/bits/stl_algobase.h ****   // No need to wrap, iterator already has the right type.
 327:/Library/DaisyToolchain/0.2.0/arm/arm-none-eabi/include/c++/10.3.1/bits/stl_algobase.h ****   template<typename _Iterator>
 328:/Library/DaisyToolchain/0.2.0/arm/arm-none-eabi/include/c++/10.3.1/bits/stl_algobase.h ****     _GLIBCXX20_CONSTEXPR
 329:/Library/DaisyToolchain/0.2.0/arm/arm-none-eabi/include/c++/10.3.1/bits/stl_algobase.h ****     inline _Iterator
 330:/Library/DaisyToolchain/0.2.0/arm/arm-none-eabi/include/c++/10.3.1/bits/stl_algobase.h ****     __niter_wrap(const _Iterator&, _Iterator __res)
 331:/Library/DaisyToolchain/0.2.0/arm/arm-none-eabi/include/c++/10.3.1/bits/stl_algobase.h ****     { return __res; }
 332:/Library/DaisyToolchain/0.2.0/arm/arm-none-eabi/include/c++/10.3.1/bits/stl_algobase.h **** 
 333:/Library/DaisyToolchain/0.2.0/arm/arm-none-eabi/include/c++/10.3.1/bits/stl_algobase.h ****   // All of these auxiliary structs serve two purposes.  (1) Replace
 334:/Library/DaisyToolchain/0.2.0/arm/arm-none-eabi/include/c++/10.3.1/bits/stl_algobase.h ****   // calls to copy with memmove whenever possible.  (Memmove, not memcpy,
 335:/Library/DaisyToolchain/0.2.0/arm/arm-none-eabi/include/c++/10.3.1/bits/stl_algobase.h ****   // because the input and output ranges are permitted to overlap.)
 336:/Library/DaisyToolchain/0.2.0/arm/arm-none-eabi/include/c++/10.3.1/bits/stl_algobase.h ****   // (2) If we're using random access iterators, then write the loop as
 337:/Library/DaisyToolchain/0.2.0/arm/arm-none-eabi/include/c++/10.3.1/bits/stl_algobase.h ****   // a for loop with an explicit count.
 338:/Library/DaisyToolchain/0.2.0/arm/arm-none-eabi/include/c++/10.3.1/bits/stl_algobase.h **** 
 339:/Library/DaisyToolchain/0.2.0/arm/arm-none-eabi/include/c++/10.3.1/bits/stl_algobase.h ****   template<bool _IsMove, bool _IsSimple, typename _Category>
 340:/Library/DaisyToolchain/0.2.0/arm/arm-none-eabi/include/c++/10.3.1/bits/stl_algobase.h ****     struct __copy_move
 341:/Library/DaisyToolchain/0.2.0/arm/arm-none-eabi/include/c++/10.3.1/bits/stl_algobase.h ****     {
 342:/Library/DaisyToolchain/0.2.0/arm/arm-none-eabi/include/c++/10.3.1/bits/stl_algobase.h ****       template<typename _II, typename _OI>
 343:/Library/DaisyToolchain/0.2.0/arm/arm-none-eabi/include/c++/10.3.1/bits/stl_algobase.h **** 	_GLIBCXX20_CONSTEXPR
 344:/Library/DaisyToolchain/0.2.0/arm/arm-none-eabi/include/c++/10.3.1/bits/stl_algobase.h **** 	static _OI
 345:/Library/DaisyToolchain/0.2.0/arm/arm-none-eabi/include/c++/10.3.1/bits/stl_algobase.h **** 	__copy_m(_II __first, _II __last, _OI __result)
ARM GAS  /var/folders/s6/2bsynnl15rj0bwtb9pgx4dc00000gn/T//cc76hY55.s 			page 140


 346:/Library/DaisyToolchain/0.2.0/arm/arm-none-eabi/include/c++/10.3.1/bits/stl_algobase.h **** 	{
 347:/Library/DaisyToolchain/0.2.0/arm/arm-none-eabi/include/c++/10.3.1/bits/stl_algobase.h **** 	  for (; __first != __last; ++__result, (void)++__first)
 348:/Library/DaisyToolchain/0.2.0/arm/arm-none-eabi/include/c++/10.3.1/bits/stl_algobase.h **** 	    *__result = *__first;
 349:/Library/DaisyToolchain/0.2.0/arm/arm-none-eabi/include/c++/10.3.1/bits/stl_algobase.h **** 	  return __result;
 350:/Library/DaisyToolchain/0.2.0/arm/arm-none-eabi/include/c++/10.3.1/bits/stl_algobase.h **** 	}
 351:/Library/DaisyToolchain/0.2.0/arm/arm-none-eabi/include/c++/10.3.1/bits/stl_algobase.h ****     };
 352:/Library/DaisyToolchain/0.2.0/arm/arm-none-eabi/include/c++/10.3.1/bits/stl_algobase.h **** 
 353:/Library/DaisyToolchain/0.2.0/arm/arm-none-eabi/include/c++/10.3.1/bits/stl_algobase.h **** #if __cplusplus >= 201103L
 354:/Library/DaisyToolchain/0.2.0/arm/arm-none-eabi/include/c++/10.3.1/bits/stl_algobase.h ****   template<typename _Category>
 355:/Library/DaisyToolchain/0.2.0/arm/arm-none-eabi/include/c++/10.3.1/bits/stl_algobase.h ****     struct __copy_move<true, false, _Category>
 356:/Library/DaisyToolchain/0.2.0/arm/arm-none-eabi/include/c++/10.3.1/bits/stl_algobase.h ****     {
 357:/Library/DaisyToolchain/0.2.0/arm/arm-none-eabi/include/c++/10.3.1/bits/stl_algobase.h ****       template<typename _II, typename _OI>
 358:/Library/DaisyToolchain/0.2.0/arm/arm-none-eabi/include/c++/10.3.1/bits/stl_algobase.h **** 	_GLIBCXX20_CONSTEXPR
 359:/Library/DaisyToolchain/0.2.0/arm/arm-none-eabi/include/c++/10.3.1/bits/stl_algobase.h **** 	static _OI
 360:/Library/DaisyToolchain/0.2.0/arm/arm-none-eabi/include/c++/10.3.1/bits/stl_algobase.h **** 	__copy_m(_II __first, _II __last, _OI __result)
 361:/Library/DaisyToolchain/0.2.0/arm/arm-none-eabi/include/c++/10.3.1/bits/stl_algobase.h **** 	{
 362:/Library/DaisyToolchain/0.2.0/arm/arm-none-eabi/include/c++/10.3.1/bits/stl_algobase.h **** 	  for (; __first != __last; ++__result, (void)++__first)
 363:/Library/DaisyToolchain/0.2.0/arm/arm-none-eabi/include/c++/10.3.1/bits/stl_algobase.h **** 	    *__result = std::move(*__first);
 364:/Library/DaisyToolchain/0.2.0/arm/arm-none-eabi/include/c++/10.3.1/bits/stl_algobase.h **** 	  return __result;
 365:/Library/DaisyToolchain/0.2.0/arm/arm-none-eabi/include/c++/10.3.1/bits/stl_algobase.h **** 	}
 366:/Library/DaisyToolchain/0.2.0/arm/arm-none-eabi/include/c++/10.3.1/bits/stl_algobase.h ****     };
 367:/Library/DaisyToolchain/0.2.0/arm/arm-none-eabi/include/c++/10.3.1/bits/stl_algobase.h **** #endif
 368:/Library/DaisyToolchain/0.2.0/arm/arm-none-eabi/include/c++/10.3.1/bits/stl_algobase.h **** 
 369:/Library/DaisyToolchain/0.2.0/arm/arm-none-eabi/include/c++/10.3.1/bits/stl_algobase.h ****   template<>
 370:/Library/DaisyToolchain/0.2.0/arm/arm-none-eabi/include/c++/10.3.1/bits/stl_algobase.h ****     struct __copy_move<false, false, random_access_iterator_tag>
 371:/Library/DaisyToolchain/0.2.0/arm/arm-none-eabi/include/c++/10.3.1/bits/stl_algobase.h ****     {
 372:/Library/DaisyToolchain/0.2.0/arm/arm-none-eabi/include/c++/10.3.1/bits/stl_algobase.h ****       template<typename _II, typename _OI>
 373:/Library/DaisyToolchain/0.2.0/arm/arm-none-eabi/include/c++/10.3.1/bits/stl_algobase.h **** 	_GLIBCXX20_CONSTEXPR
 374:/Library/DaisyToolchain/0.2.0/arm/arm-none-eabi/include/c++/10.3.1/bits/stl_algobase.h **** 	static _OI
 375:/Library/DaisyToolchain/0.2.0/arm/arm-none-eabi/include/c++/10.3.1/bits/stl_algobase.h **** 	__copy_m(_II __first, _II __last, _OI __result)
 376:/Library/DaisyToolchain/0.2.0/arm/arm-none-eabi/include/c++/10.3.1/bits/stl_algobase.h **** 	{
 377:/Library/DaisyToolchain/0.2.0/arm/arm-none-eabi/include/c++/10.3.1/bits/stl_algobase.h **** 	  typedef typename iterator_traits<_II>::difference_type _Distance;
 378:/Library/DaisyToolchain/0.2.0/arm/arm-none-eabi/include/c++/10.3.1/bits/stl_algobase.h **** 	  for(_Distance __n = __last - __first; __n > 0; --__n)
 379:/Library/DaisyToolchain/0.2.0/arm/arm-none-eabi/include/c++/10.3.1/bits/stl_algobase.h **** 	    {
 380:/Library/DaisyToolchain/0.2.0/arm/arm-none-eabi/include/c++/10.3.1/bits/stl_algobase.h **** 	      *__result = *__first;
 381:/Library/DaisyToolchain/0.2.0/arm/arm-none-eabi/include/c++/10.3.1/bits/stl_algobase.h **** 	      ++__first;
 382:/Library/DaisyToolchain/0.2.0/arm/arm-none-eabi/include/c++/10.3.1/bits/stl_algobase.h **** 	      ++__result;
 383:/Library/DaisyToolchain/0.2.0/arm/arm-none-eabi/include/c++/10.3.1/bits/stl_algobase.h **** 	    }
 384:/Library/DaisyToolchain/0.2.0/arm/arm-none-eabi/include/c++/10.3.1/bits/stl_algobase.h **** 	  return __result;
 385:/Library/DaisyToolchain/0.2.0/arm/arm-none-eabi/include/c++/10.3.1/bits/stl_algobase.h **** 	}
 386:/Library/DaisyToolchain/0.2.0/arm/arm-none-eabi/include/c++/10.3.1/bits/stl_algobase.h ****     };
 387:/Library/DaisyToolchain/0.2.0/arm/arm-none-eabi/include/c++/10.3.1/bits/stl_algobase.h **** 
 388:/Library/DaisyToolchain/0.2.0/arm/arm-none-eabi/include/c++/10.3.1/bits/stl_algobase.h **** #if __cplusplus >= 201103L
 389:/Library/DaisyToolchain/0.2.0/arm/arm-none-eabi/include/c++/10.3.1/bits/stl_algobase.h ****   template<>
 390:/Library/DaisyToolchain/0.2.0/arm/arm-none-eabi/include/c++/10.3.1/bits/stl_algobase.h ****     struct __copy_move<true, false, random_access_iterator_tag>
 391:/Library/DaisyToolchain/0.2.0/arm/arm-none-eabi/include/c++/10.3.1/bits/stl_algobase.h ****     {
 392:/Library/DaisyToolchain/0.2.0/arm/arm-none-eabi/include/c++/10.3.1/bits/stl_algobase.h ****       template<typename _II, typename _OI>
 393:/Library/DaisyToolchain/0.2.0/arm/arm-none-eabi/include/c++/10.3.1/bits/stl_algobase.h **** 	_GLIBCXX20_CONSTEXPR
 394:/Library/DaisyToolchain/0.2.0/arm/arm-none-eabi/include/c++/10.3.1/bits/stl_algobase.h **** 	static _OI
 395:/Library/DaisyToolchain/0.2.0/arm/arm-none-eabi/include/c++/10.3.1/bits/stl_algobase.h **** 	__copy_m(_II __first, _II __last, _OI __result)
 396:/Library/DaisyToolchain/0.2.0/arm/arm-none-eabi/include/c++/10.3.1/bits/stl_algobase.h **** 	{
 397:/Library/DaisyToolchain/0.2.0/arm/arm-none-eabi/include/c++/10.3.1/bits/stl_algobase.h **** 	  typedef typename iterator_traits<_II>::difference_type _Distance;
 398:/Library/DaisyToolchain/0.2.0/arm/arm-none-eabi/include/c++/10.3.1/bits/stl_algobase.h **** 	  for(_Distance __n = __last - __first; __n > 0; --__n)
 399:/Library/DaisyToolchain/0.2.0/arm/arm-none-eabi/include/c++/10.3.1/bits/stl_algobase.h **** 	    {
 400:/Library/DaisyToolchain/0.2.0/arm/arm-none-eabi/include/c++/10.3.1/bits/stl_algobase.h **** 	      *__result = std::move(*__first);
 401:/Library/DaisyToolchain/0.2.0/arm/arm-none-eabi/include/c++/10.3.1/bits/stl_algobase.h **** 	      ++__first;
 402:/Library/DaisyToolchain/0.2.0/arm/arm-none-eabi/include/c++/10.3.1/bits/stl_algobase.h **** 	      ++__result;
ARM GAS  /var/folders/s6/2bsynnl15rj0bwtb9pgx4dc00000gn/T//cc76hY55.s 			page 141


 403:/Library/DaisyToolchain/0.2.0/arm/arm-none-eabi/include/c++/10.3.1/bits/stl_algobase.h **** 	    }
 404:/Library/DaisyToolchain/0.2.0/arm/arm-none-eabi/include/c++/10.3.1/bits/stl_algobase.h **** 	  return __result;
 405:/Library/DaisyToolchain/0.2.0/arm/arm-none-eabi/include/c++/10.3.1/bits/stl_algobase.h **** 	}
 406:/Library/DaisyToolchain/0.2.0/arm/arm-none-eabi/include/c++/10.3.1/bits/stl_algobase.h ****     };
 407:/Library/DaisyToolchain/0.2.0/arm/arm-none-eabi/include/c++/10.3.1/bits/stl_algobase.h **** #endif
 408:/Library/DaisyToolchain/0.2.0/arm/arm-none-eabi/include/c++/10.3.1/bits/stl_algobase.h **** 
 409:/Library/DaisyToolchain/0.2.0/arm/arm-none-eabi/include/c++/10.3.1/bits/stl_algobase.h ****   template<bool _IsMove>
 410:/Library/DaisyToolchain/0.2.0/arm/arm-none-eabi/include/c++/10.3.1/bits/stl_algobase.h ****     struct __copy_move<_IsMove, true, random_access_iterator_tag>
 411:/Library/DaisyToolchain/0.2.0/arm/arm-none-eabi/include/c++/10.3.1/bits/stl_algobase.h ****     {
 412:/Library/DaisyToolchain/0.2.0/arm/arm-none-eabi/include/c++/10.3.1/bits/stl_algobase.h ****       template<typename _Tp>
 413:/Library/DaisyToolchain/0.2.0/arm/arm-none-eabi/include/c++/10.3.1/bits/stl_algobase.h **** 	_GLIBCXX20_CONSTEXPR
 414:/Library/DaisyToolchain/0.2.0/arm/arm-none-eabi/include/c++/10.3.1/bits/stl_algobase.h **** 	static _Tp*
 415:/Library/DaisyToolchain/0.2.0/arm/arm-none-eabi/include/c++/10.3.1/bits/stl_algobase.h **** 	__copy_m(const _Tp* __first, const _Tp* __last, _Tp* __result)
 416:/Library/DaisyToolchain/0.2.0/arm/arm-none-eabi/include/c++/10.3.1/bits/stl_algobase.h **** 	{
 417:/Library/DaisyToolchain/0.2.0/arm/arm-none-eabi/include/c++/10.3.1/bits/stl_algobase.h **** #if __cplusplus >= 201103L
 418:/Library/DaisyToolchain/0.2.0/arm/arm-none-eabi/include/c++/10.3.1/bits/stl_algobase.h **** 	  using __assignable = conditional<_IsMove,
 419:/Library/DaisyToolchain/0.2.0/arm/arm-none-eabi/include/c++/10.3.1/bits/stl_algobase.h **** 					   is_move_assignable<_Tp>,
 420:/Library/DaisyToolchain/0.2.0/arm/arm-none-eabi/include/c++/10.3.1/bits/stl_algobase.h **** 					   is_copy_assignable<_Tp>>;
 421:/Library/DaisyToolchain/0.2.0/arm/arm-none-eabi/include/c++/10.3.1/bits/stl_algobase.h **** 	  // trivial types can have deleted assignment
 422:/Library/DaisyToolchain/0.2.0/arm/arm-none-eabi/include/c++/10.3.1/bits/stl_algobase.h **** 	  static_assert( __assignable::type::value, "type is not assignable" );
 423:/Library/DaisyToolchain/0.2.0/arm/arm-none-eabi/include/c++/10.3.1/bits/stl_algobase.h **** #endif
 424:/Library/DaisyToolchain/0.2.0/arm/arm-none-eabi/include/c++/10.3.1/bits/stl_algobase.h **** 	  const ptrdiff_t _Num = __last - __first;
 425:/Library/DaisyToolchain/0.2.0/arm/arm-none-eabi/include/c++/10.3.1/bits/stl_algobase.h **** 	  if (_Num)
 1886              		.loc 20 425 4 view .LVU486
 1887 0232 9142     		cmp	r1, r2
 1888              	.LBE737:
 1889              	.LBE736:
 1890              	.LBE735:
 1891              	.LBE734:
 1892              	.LBE733:
 1893              	.LBE732:
 1894              	.LBE731:
 957:/Library/DaisyToolchain/0.2.0/arm/arm-none-eabi/include/c++/10.3.1/bits/deque.tcc **** 			 + (__add_at_front ? __nodes_to_add : 0);
 1895              		.loc 18 957 17 view .LVU487
 1896 0234 00EB8B0B 		add	fp, r0, fp, lsl #2
 1897              	.LVL145:
 1898              	.LBB744:
 1899              	.LBI731:
 426:/Library/DaisyToolchain/0.2.0/arm/arm-none-eabi/include/c++/10.3.1/bits/stl_algobase.h **** 	    __builtin_memmove(__result, __first, sizeof(_Tp) * _Num);
 427:/Library/DaisyToolchain/0.2.0/arm/arm-none-eabi/include/c++/10.3.1/bits/stl_algobase.h **** 	  return __result + _Num;
 428:/Library/DaisyToolchain/0.2.0/arm/arm-none-eabi/include/c++/10.3.1/bits/stl_algobase.h **** 	}
 429:/Library/DaisyToolchain/0.2.0/arm/arm-none-eabi/include/c++/10.3.1/bits/stl_algobase.h ****     };
 430:/Library/DaisyToolchain/0.2.0/arm/arm-none-eabi/include/c++/10.3.1/bits/stl_algobase.h **** 
 431:/Library/DaisyToolchain/0.2.0/arm/arm-none-eabi/include/c++/10.3.1/bits/stl_algobase.h ****   // Helpers for streambuf iterators (either istream or ostream).
 432:/Library/DaisyToolchain/0.2.0/arm/arm-none-eabi/include/c++/10.3.1/bits/stl_algobase.h ****   // NB: avoid including <iosfwd>, relatively large.
 433:/Library/DaisyToolchain/0.2.0/arm/arm-none-eabi/include/c++/10.3.1/bits/stl_algobase.h ****   template<typename _CharT>
 434:/Library/DaisyToolchain/0.2.0/arm/arm-none-eabi/include/c++/10.3.1/bits/stl_algobase.h ****     struct char_traits;
 435:/Library/DaisyToolchain/0.2.0/arm/arm-none-eabi/include/c++/10.3.1/bits/stl_algobase.h **** 
 436:/Library/DaisyToolchain/0.2.0/arm/arm-none-eabi/include/c++/10.3.1/bits/stl_algobase.h ****   template<typename _CharT, typename _Traits>
 437:/Library/DaisyToolchain/0.2.0/arm/arm-none-eabi/include/c++/10.3.1/bits/stl_algobase.h ****     class istreambuf_iterator;
 438:/Library/DaisyToolchain/0.2.0/arm/arm-none-eabi/include/c++/10.3.1/bits/stl_algobase.h **** 
 439:/Library/DaisyToolchain/0.2.0/arm/arm-none-eabi/include/c++/10.3.1/bits/stl_algobase.h ****   template<typename _CharT, typename _Traits>
 440:/Library/DaisyToolchain/0.2.0/arm/arm-none-eabi/include/c++/10.3.1/bits/stl_algobase.h ****     class ostreambuf_iterator;
 441:/Library/DaisyToolchain/0.2.0/arm/arm-none-eabi/include/c++/10.3.1/bits/stl_algobase.h **** 
 442:/Library/DaisyToolchain/0.2.0/arm/arm-none-eabi/include/c++/10.3.1/bits/stl_algobase.h ****   template<bool _IsMove, typename _CharT>
 443:/Library/DaisyToolchain/0.2.0/arm/arm-none-eabi/include/c++/10.3.1/bits/stl_algobase.h ****     typename __gnu_cxx::__enable_if<__is_char<_CharT>::__value,
 444:/Library/DaisyToolchain/0.2.0/arm/arm-none-eabi/include/c++/10.3.1/bits/stl_algobase.h **** 	     ostreambuf_iterator<_CharT, char_traits<_CharT> > >::__type
ARM GAS  /var/folders/s6/2bsynnl15rj0bwtb9pgx4dc00000gn/T//cc76hY55.s 			page 142


 445:/Library/DaisyToolchain/0.2.0/arm/arm-none-eabi/include/c++/10.3.1/bits/stl_algobase.h ****     __copy_move_a2(_CharT*, _CharT*,
 446:/Library/DaisyToolchain/0.2.0/arm/arm-none-eabi/include/c++/10.3.1/bits/stl_algobase.h **** 		   ostreambuf_iterator<_CharT, char_traits<_CharT> >);
 447:/Library/DaisyToolchain/0.2.0/arm/arm-none-eabi/include/c++/10.3.1/bits/stl_algobase.h **** 
 448:/Library/DaisyToolchain/0.2.0/arm/arm-none-eabi/include/c++/10.3.1/bits/stl_algobase.h ****   template<bool _IsMove, typename _CharT>
 449:/Library/DaisyToolchain/0.2.0/arm/arm-none-eabi/include/c++/10.3.1/bits/stl_algobase.h ****     typename __gnu_cxx::__enable_if<__is_char<_CharT>::__value,
 450:/Library/DaisyToolchain/0.2.0/arm/arm-none-eabi/include/c++/10.3.1/bits/stl_algobase.h **** 	     ostreambuf_iterator<_CharT, char_traits<_CharT> > >::__type
 451:/Library/DaisyToolchain/0.2.0/arm/arm-none-eabi/include/c++/10.3.1/bits/stl_algobase.h ****     __copy_move_a2(const _CharT*, const _CharT*,
 452:/Library/DaisyToolchain/0.2.0/arm/arm-none-eabi/include/c++/10.3.1/bits/stl_algobase.h **** 		   ostreambuf_iterator<_CharT, char_traits<_CharT> >);
 453:/Library/DaisyToolchain/0.2.0/arm/arm-none-eabi/include/c++/10.3.1/bits/stl_algobase.h **** 
 454:/Library/DaisyToolchain/0.2.0/arm/arm-none-eabi/include/c++/10.3.1/bits/stl_algobase.h ****   template<bool _IsMove, typename _CharT>
 455:/Library/DaisyToolchain/0.2.0/arm/arm-none-eabi/include/c++/10.3.1/bits/stl_algobase.h ****     typename __gnu_cxx::__enable_if<__is_char<_CharT>::__value,
 456:/Library/DaisyToolchain/0.2.0/arm/arm-none-eabi/include/c++/10.3.1/bits/stl_algobase.h **** 				    _CharT*>::__type
 457:/Library/DaisyToolchain/0.2.0/arm/arm-none-eabi/include/c++/10.3.1/bits/stl_algobase.h ****     __copy_move_a2(istreambuf_iterator<_CharT, char_traits<_CharT> >,
 458:/Library/DaisyToolchain/0.2.0/arm/arm-none-eabi/include/c++/10.3.1/bits/stl_algobase.h **** 		   istreambuf_iterator<_CharT, char_traits<_CharT> >, _CharT*);
 459:/Library/DaisyToolchain/0.2.0/arm/arm-none-eabi/include/c++/10.3.1/bits/stl_algobase.h **** 
 460:/Library/DaisyToolchain/0.2.0/arm/arm-none-eabi/include/c++/10.3.1/bits/stl_algobase.h ****   template<bool _IsMove, typename _II, typename _OI>
 461:/Library/DaisyToolchain/0.2.0/arm/arm-none-eabi/include/c++/10.3.1/bits/stl_algobase.h ****     _GLIBCXX20_CONSTEXPR
 462:/Library/DaisyToolchain/0.2.0/arm/arm-none-eabi/include/c++/10.3.1/bits/stl_algobase.h ****     inline _OI
 463:/Library/DaisyToolchain/0.2.0/arm/arm-none-eabi/include/c++/10.3.1/bits/stl_algobase.h ****     __copy_move_a2(_II __first, _II __last, _OI __result)
 464:/Library/DaisyToolchain/0.2.0/arm/arm-none-eabi/include/c++/10.3.1/bits/stl_algobase.h ****     {
 465:/Library/DaisyToolchain/0.2.0/arm/arm-none-eabi/include/c++/10.3.1/bits/stl_algobase.h ****       typedef typename iterator_traits<_II>::iterator_category _Category;
 466:/Library/DaisyToolchain/0.2.0/arm/arm-none-eabi/include/c++/10.3.1/bits/stl_algobase.h **** #ifdef __cpp_lib_is_constant_evaluated
 467:/Library/DaisyToolchain/0.2.0/arm/arm-none-eabi/include/c++/10.3.1/bits/stl_algobase.h ****       if (std::is_constant_evaluated())
 468:/Library/DaisyToolchain/0.2.0/arm/arm-none-eabi/include/c++/10.3.1/bits/stl_algobase.h **** 	return std::__copy_move<_IsMove, false, _Category>::
 469:/Library/DaisyToolchain/0.2.0/arm/arm-none-eabi/include/c++/10.3.1/bits/stl_algobase.h **** 	  __copy_m(__first, __last, __result);
 470:/Library/DaisyToolchain/0.2.0/arm/arm-none-eabi/include/c++/10.3.1/bits/stl_algobase.h **** #endif
 471:/Library/DaisyToolchain/0.2.0/arm/arm-none-eabi/include/c++/10.3.1/bits/stl_algobase.h ****       return std::__copy_move<_IsMove, __memcpyable<_OI, _II>::__value,
 472:/Library/DaisyToolchain/0.2.0/arm/arm-none-eabi/include/c++/10.3.1/bits/stl_algobase.h **** 			      _Category>::__copy_m(__first, __last, __result);
 473:/Library/DaisyToolchain/0.2.0/arm/arm-none-eabi/include/c++/10.3.1/bits/stl_algobase.h ****     }
 474:/Library/DaisyToolchain/0.2.0/arm/arm-none-eabi/include/c++/10.3.1/bits/stl_algobase.h **** 
 475:/Library/DaisyToolchain/0.2.0/arm/arm-none-eabi/include/c++/10.3.1/bits/stl_algobase.h **** _GLIBCXX_BEGIN_NAMESPACE_CONTAINER
 476:/Library/DaisyToolchain/0.2.0/arm/arm-none-eabi/include/c++/10.3.1/bits/stl_algobase.h **** 
 477:/Library/DaisyToolchain/0.2.0/arm/arm-none-eabi/include/c++/10.3.1/bits/stl_algobase.h ****   template<typename _Tp, typename _Ref, typename _Ptr>
 478:/Library/DaisyToolchain/0.2.0/arm/arm-none-eabi/include/c++/10.3.1/bits/stl_algobase.h ****     struct _Deque_iterator;
 479:/Library/DaisyToolchain/0.2.0/arm/arm-none-eabi/include/c++/10.3.1/bits/stl_algobase.h **** 
 480:/Library/DaisyToolchain/0.2.0/arm/arm-none-eabi/include/c++/10.3.1/bits/stl_algobase.h **** _GLIBCXX_END_NAMESPACE_CONTAINER
 481:/Library/DaisyToolchain/0.2.0/arm/arm-none-eabi/include/c++/10.3.1/bits/stl_algobase.h **** 
 482:/Library/DaisyToolchain/0.2.0/arm/arm-none-eabi/include/c++/10.3.1/bits/stl_algobase.h ****   template<bool _IsMove,
 483:/Library/DaisyToolchain/0.2.0/arm/arm-none-eabi/include/c++/10.3.1/bits/stl_algobase.h **** 	   typename _Tp, typename _Ref, typename _Ptr, typename _OI>
 484:/Library/DaisyToolchain/0.2.0/arm/arm-none-eabi/include/c++/10.3.1/bits/stl_algobase.h ****     _OI
 485:/Library/DaisyToolchain/0.2.0/arm/arm-none-eabi/include/c++/10.3.1/bits/stl_algobase.h ****     __copy_move_a1(_GLIBCXX_STD_C::_Deque_iterator<_Tp, _Ref, _Ptr>,
 486:/Library/DaisyToolchain/0.2.0/arm/arm-none-eabi/include/c++/10.3.1/bits/stl_algobase.h **** 		   _GLIBCXX_STD_C::_Deque_iterator<_Tp, _Ref, _Ptr>,
 487:/Library/DaisyToolchain/0.2.0/arm/arm-none-eabi/include/c++/10.3.1/bits/stl_algobase.h **** 		   _OI);
 488:/Library/DaisyToolchain/0.2.0/arm/arm-none-eabi/include/c++/10.3.1/bits/stl_algobase.h **** 
 489:/Library/DaisyToolchain/0.2.0/arm/arm-none-eabi/include/c++/10.3.1/bits/stl_algobase.h ****   template<bool _IsMove,
 490:/Library/DaisyToolchain/0.2.0/arm/arm-none-eabi/include/c++/10.3.1/bits/stl_algobase.h **** 	   typename _ITp, typename _IRef, typename _IPtr, typename _OTp>
 491:/Library/DaisyToolchain/0.2.0/arm/arm-none-eabi/include/c++/10.3.1/bits/stl_algobase.h ****     _GLIBCXX_STD_C::_Deque_iterator<_OTp, _OTp&, _OTp*>
 492:/Library/DaisyToolchain/0.2.0/arm/arm-none-eabi/include/c++/10.3.1/bits/stl_algobase.h ****     __copy_move_a1(_GLIBCXX_STD_C::_Deque_iterator<_ITp, _IRef, _IPtr>,
 493:/Library/DaisyToolchain/0.2.0/arm/arm-none-eabi/include/c++/10.3.1/bits/stl_algobase.h **** 		   _GLIBCXX_STD_C::_Deque_iterator<_ITp, _IRef, _IPtr>,
 494:/Library/DaisyToolchain/0.2.0/arm/arm-none-eabi/include/c++/10.3.1/bits/stl_algobase.h **** 		   _GLIBCXX_STD_C::_Deque_iterator<_OTp, _OTp&, _OTp*>);
 495:/Library/DaisyToolchain/0.2.0/arm/arm-none-eabi/include/c++/10.3.1/bits/stl_algobase.h **** 
 496:/Library/DaisyToolchain/0.2.0/arm/arm-none-eabi/include/c++/10.3.1/bits/stl_algobase.h ****   template<bool _IsMove, typename _II, typename _Tp>
 497:/Library/DaisyToolchain/0.2.0/arm/arm-none-eabi/include/c++/10.3.1/bits/stl_algobase.h ****     typename __gnu_cxx::__enable_if<
 498:/Library/DaisyToolchain/0.2.0/arm/arm-none-eabi/include/c++/10.3.1/bits/stl_algobase.h ****       __is_random_access_iter<_II>::__value,
 499:/Library/DaisyToolchain/0.2.0/arm/arm-none-eabi/include/c++/10.3.1/bits/stl_algobase.h ****       _GLIBCXX_STD_C::_Deque_iterator<_Tp, _Tp&, _Tp*> >::__type
 500:/Library/DaisyToolchain/0.2.0/arm/arm-none-eabi/include/c++/10.3.1/bits/stl_algobase.h ****     __copy_move_a1(_II, _II, _GLIBCXX_STD_C::_Deque_iterator<_Tp, _Tp&, _Tp*>);
 501:/Library/DaisyToolchain/0.2.0/arm/arm-none-eabi/include/c++/10.3.1/bits/stl_algobase.h **** 
ARM GAS  /var/folders/s6/2bsynnl15rj0bwtb9pgx4dc00000gn/T//cc76hY55.s 			page 143


 502:/Library/DaisyToolchain/0.2.0/arm/arm-none-eabi/include/c++/10.3.1/bits/stl_algobase.h ****   template<bool _IsMove, typename _II, typename _OI>
 503:/Library/DaisyToolchain/0.2.0/arm/arm-none-eabi/include/c++/10.3.1/bits/stl_algobase.h ****     _GLIBCXX20_CONSTEXPR
 504:/Library/DaisyToolchain/0.2.0/arm/arm-none-eabi/include/c++/10.3.1/bits/stl_algobase.h ****     inline _OI
 505:/Library/DaisyToolchain/0.2.0/arm/arm-none-eabi/include/c++/10.3.1/bits/stl_algobase.h ****     __copy_move_a1(_II __first, _II __last, _OI __result)
 506:/Library/DaisyToolchain/0.2.0/arm/arm-none-eabi/include/c++/10.3.1/bits/stl_algobase.h ****     { return std::__copy_move_a2<_IsMove>(__first, __last, __result); }
 507:/Library/DaisyToolchain/0.2.0/arm/arm-none-eabi/include/c++/10.3.1/bits/stl_algobase.h **** 
 508:/Library/DaisyToolchain/0.2.0/arm/arm-none-eabi/include/c++/10.3.1/bits/stl_algobase.h ****   template<bool _IsMove, typename _II, typename _OI>
 509:/Library/DaisyToolchain/0.2.0/arm/arm-none-eabi/include/c++/10.3.1/bits/stl_algobase.h ****     _GLIBCXX20_CONSTEXPR
 510:/Library/DaisyToolchain/0.2.0/arm/arm-none-eabi/include/c++/10.3.1/bits/stl_algobase.h ****     inline _OI
 511:/Library/DaisyToolchain/0.2.0/arm/arm-none-eabi/include/c++/10.3.1/bits/stl_algobase.h ****     __copy_move_a(_II __first, _II __last, _OI __result)
 512:/Library/DaisyToolchain/0.2.0/arm/arm-none-eabi/include/c++/10.3.1/bits/stl_algobase.h ****     {
 513:/Library/DaisyToolchain/0.2.0/arm/arm-none-eabi/include/c++/10.3.1/bits/stl_algobase.h ****       return std::__niter_wrap(__result,
 514:/Library/DaisyToolchain/0.2.0/arm/arm-none-eabi/include/c++/10.3.1/bits/stl_algobase.h **** 		std::__copy_move_a1<_IsMove>(std::__niter_base(__first),
 515:/Library/DaisyToolchain/0.2.0/arm/arm-none-eabi/include/c++/10.3.1/bits/stl_algobase.h **** 					     std::__niter_base(__last),
 516:/Library/DaisyToolchain/0.2.0/arm/arm-none-eabi/include/c++/10.3.1/bits/stl_algobase.h **** 					     std::__niter_base(__result)));
 517:/Library/DaisyToolchain/0.2.0/arm/arm-none-eabi/include/c++/10.3.1/bits/stl_algobase.h ****     }
 518:/Library/DaisyToolchain/0.2.0/arm/arm-none-eabi/include/c++/10.3.1/bits/stl_algobase.h **** 
 519:/Library/DaisyToolchain/0.2.0/arm/arm-none-eabi/include/c++/10.3.1/bits/stl_algobase.h ****   template<bool _IsMove,
 520:/Library/DaisyToolchain/0.2.0/arm/arm-none-eabi/include/c++/10.3.1/bits/stl_algobase.h **** 	   typename _Ite, typename _Seq, typename _Cat, typename _OI>
 521:/Library/DaisyToolchain/0.2.0/arm/arm-none-eabi/include/c++/10.3.1/bits/stl_algobase.h ****     _OI
 522:/Library/DaisyToolchain/0.2.0/arm/arm-none-eabi/include/c++/10.3.1/bits/stl_algobase.h ****     __copy_move_a(const ::__gnu_debug::_Safe_iterator<_Ite, _Seq, _Cat>&,
 523:/Library/DaisyToolchain/0.2.0/arm/arm-none-eabi/include/c++/10.3.1/bits/stl_algobase.h **** 		  const ::__gnu_debug::_Safe_iterator<_Ite, _Seq, _Cat>&,
 524:/Library/DaisyToolchain/0.2.0/arm/arm-none-eabi/include/c++/10.3.1/bits/stl_algobase.h **** 		  _OI);
 525:/Library/DaisyToolchain/0.2.0/arm/arm-none-eabi/include/c++/10.3.1/bits/stl_algobase.h **** 
 526:/Library/DaisyToolchain/0.2.0/arm/arm-none-eabi/include/c++/10.3.1/bits/stl_algobase.h ****   template<bool _IsMove,
 527:/Library/DaisyToolchain/0.2.0/arm/arm-none-eabi/include/c++/10.3.1/bits/stl_algobase.h **** 	   typename _II, typename _Ite, typename _Seq, typename _Cat>
 528:/Library/DaisyToolchain/0.2.0/arm/arm-none-eabi/include/c++/10.3.1/bits/stl_algobase.h ****     __gnu_debug::_Safe_iterator<_Ite, _Seq, _Cat>
 529:/Library/DaisyToolchain/0.2.0/arm/arm-none-eabi/include/c++/10.3.1/bits/stl_algobase.h ****     __copy_move_a(_II, _II,
 530:/Library/DaisyToolchain/0.2.0/arm/arm-none-eabi/include/c++/10.3.1/bits/stl_algobase.h **** 		  const ::__gnu_debug::_Safe_iterator<_Ite, _Seq, _Cat>&);
 531:/Library/DaisyToolchain/0.2.0/arm/arm-none-eabi/include/c++/10.3.1/bits/stl_algobase.h **** 
 532:/Library/DaisyToolchain/0.2.0/arm/arm-none-eabi/include/c++/10.3.1/bits/stl_algobase.h ****   template<bool _IsMove,
 533:/Library/DaisyToolchain/0.2.0/arm/arm-none-eabi/include/c++/10.3.1/bits/stl_algobase.h **** 	   typename _IIte, typename _ISeq, typename _ICat,
 534:/Library/DaisyToolchain/0.2.0/arm/arm-none-eabi/include/c++/10.3.1/bits/stl_algobase.h **** 	   typename _OIte, typename _OSeq, typename _OCat>
 535:/Library/DaisyToolchain/0.2.0/arm/arm-none-eabi/include/c++/10.3.1/bits/stl_algobase.h ****     ::__gnu_debug::_Safe_iterator<_OIte, _OSeq, _OCat>
 536:/Library/DaisyToolchain/0.2.0/arm/arm-none-eabi/include/c++/10.3.1/bits/stl_algobase.h ****     __copy_move_a(const ::__gnu_debug::_Safe_iterator<_IIte, _ISeq, _ICat>&,
 537:/Library/DaisyToolchain/0.2.0/arm/arm-none-eabi/include/c++/10.3.1/bits/stl_algobase.h **** 		  const ::__gnu_debug::_Safe_iterator<_IIte, _ISeq, _ICat>&,
 538:/Library/DaisyToolchain/0.2.0/arm/arm-none-eabi/include/c++/10.3.1/bits/stl_algobase.h **** 		  const ::__gnu_debug::_Safe_iterator<_OIte, _OSeq, _OCat>&);
 539:/Library/DaisyToolchain/0.2.0/arm/arm-none-eabi/include/c++/10.3.1/bits/stl_algobase.h **** 
 540:/Library/DaisyToolchain/0.2.0/arm/arm-none-eabi/include/c++/10.3.1/bits/stl_algobase.h ****   /**
 541:/Library/DaisyToolchain/0.2.0/arm/arm-none-eabi/include/c++/10.3.1/bits/stl_algobase.h ****    *  @brief Copies the range [first,last) into result.
 542:/Library/DaisyToolchain/0.2.0/arm/arm-none-eabi/include/c++/10.3.1/bits/stl_algobase.h ****    *  @ingroup mutating_algorithms
 543:/Library/DaisyToolchain/0.2.0/arm/arm-none-eabi/include/c++/10.3.1/bits/stl_algobase.h ****    *  @param  __first  An input iterator.
 544:/Library/DaisyToolchain/0.2.0/arm/arm-none-eabi/include/c++/10.3.1/bits/stl_algobase.h ****    *  @param  __last   An input iterator.
 545:/Library/DaisyToolchain/0.2.0/arm/arm-none-eabi/include/c++/10.3.1/bits/stl_algobase.h ****    *  @param  __result An output iterator.
 546:/Library/DaisyToolchain/0.2.0/arm/arm-none-eabi/include/c++/10.3.1/bits/stl_algobase.h ****    *  @return   result + (last - first)
 547:/Library/DaisyToolchain/0.2.0/arm/arm-none-eabi/include/c++/10.3.1/bits/stl_algobase.h ****    *
 548:/Library/DaisyToolchain/0.2.0/arm/arm-none-eabi/include/c++/10.3.1/bits/stl_algobase.h ****    *  This inline function will boil down to a call to @c memmove whenever
 549:/Library/DaisyToolchain/0.2.0/arm/arm-none-eabi/include/c++/10.3.1/bits/stl_algobase.h ****    *  possible.  Failing that, if random access iterators are passed, then the
 550:/Library/DaisyToolchain/0.2.0/arm/arm-none-eabi/include/c++/10.3.1/bits/stl_algobase.h ****    *  loop count will be known (and therefore a candidate for compiler
 551:/Library/DaisyToolchain/0.2.0/arm/arm-none-eabi/include/c++/10.3.1/bits/stl_algobase.h ****    *  optimizations such as unrolling).  Result may not be contained within
 552:/Library/DaisyToolchain/0.2.0/arm/arm-none-eabi/include/c++/10.3.1/bits/stl_algobase.h ****    *  [first,last); the copy_backward function should be used instead.
 553:/Library/DaisyToolchain/0.2.0/arm/arm-none-eabi/include/c++/10.3.1/bits/stl_algobase.h ****    *
 554:/Library/DaisyToolchain/0.2.0/arm/arm-none-eabi/include/c++/10.3.1/bits/stl_algobase.h ****    *  Note that the end of the output range is permitted to be contained
 555:/Library/DaisyToolchain/0.2.0/arm/arm-none-eabi/include/c++/10.3.1/bits/stl_algobase.h ****    *  within [first,last).
 556:/Library/DaisyToolchain/0.2.0/arm/arm-none-eabi/include/c++/10.3.1/bits/stl_algobase.h ****   */
 557:/Library/DaisyToolchain/0.2.0/arm/arm-none-eabi/include/c++/10.3.1/bits/stl_algobase.h ****   template<typename _II, typename _OI>
 558:/Library/DaisyToolchain/0.2.0/arm/arm-none-eabi/include/c++/10.3.1/bits/stl_algobase.h ****     _GLIBCXX20_CONSTEXPR
ARM GAS  /var/folders/s6/2bsynnl15rj0bwtb9pgx4dc00000gn/T//cc76hY55.s 			page 144


 559:/Library/DaisyToolchain/0.2.0/arm/arm-none-eabi/include/c++/10.3.1/bits/stl_algobase.h ****     inline _OI
 560:/Library/DaisyToolchain/0.2.0/arm/arm-none-eabi/include/c++/10.3.1/bits/stl_algobase.h ****     copy(_II __first, _II __last, _OI __result)
 1900              		.loc 20 560 5 is_stmt 1 view .LVU488
 1901              	.LBB743:
 1902              	.LBI732:
 511:/Library/DaisyToolchain/0.2.0/arm/arm-none-eabi/include/c++/10.3.1/bits/stl_algobase.h ****     {
 1903              		.loc 20 511 5 view .LVU489
 1904              	.LBB742:
 1905              	.LBI733:
 505:/Library/DaisyToolchain/0.2.0/arm/arm-none-eabi/include/c++/10.3.1/bits/stl_algobase.h ****     { return std::__copy_move_a2<_IsMove>(__first, __last, __result); }
 1906              		.loc 20 505 5 view .LVU490
 1907              	.LBB741:
 1908              	.LBI734:
 463:/Library/DaisyToolchain/0.2.0/arm/arm-none-eabi/include/c++/10.3.1/bits/stl_algobase.h ****     {
 1909              		.loc 20 463 5 view .LVU491
 1910              	.LBB740:
 1911              	.LBB739:
 1912              	.LBI736:
 415:/Library/DaisyToolchain/0.2.0/arm/arm-none-eabi/include/c++/10.3.1/bits/stl_algobase.h **** 	{
 1913              		.loc 20 415 2 view .LVU492
 1914              	.LBB738:
 425:/Library/DaisyToolchain/0.2.0/arm/arm-none-eabi/include/c++/10.3.1/bits/stl_algobase.h **** 	    __builtin_memmove(__result, __first, sizeof(_Tp) * _Num);
 1915              		.loc 20 425 4 is_stmt 0 view .LVU493
 1916 0238 05D0     		beq	.L104
 1917 023a 0190     		str	r0, [sp, #4]
 426:/Library/DaisyToolchain/0.2.0/arm/arm-none-eabi/include/c++/10.3.1/bits/stl_algobase.h **** 	  return __result + _Num;
 1918              		.loc 20 426 23 view .LVU494
 1919 023c 521A     		subs	r2, r2, r1
 1920              	.LVL146:
 426:/Library/DaisyToolchain/0.2.0/arm/arm-none-eabi/include/c++/10.3.1/bits/stl_algobase.h **** 	  return __result + _Num;
 1921              		.loc 20 426 23 view .LVU495
 1922 023e 5846     		mov	r0, fp
 1923              	.LVL147:
 426:/Library/DaisyToolchain/0.2.0/arm/arm-none-eabi/include/c++/10.3.1/bits/stl_algobase.h **** 	  return __result + _Num;
 1924              		.loc 20 426 23 view .LVU496
 1925 0240 FFF7FEFF 		bl	memmove
 1926              	.LVL148:
 426:/Library/DaisyToolchain/0.2.0/arm/arm-none-eabi/include/c++/10.3.1/bits/stl_algobase.h **** 	  return __result + _Num;
 1927              		.loc 20 426 23 view .LVU497
 1928 0244 019B     		ldr	r3, [sp, #4]
 1929              	.LVL149:
 1930              	.L104:
 426:/Library/DaisyToolchain/0.2.0/arm/arm-none-eabi/include/c++/10.3.1/bits/stl_algobase.h **** 	  return __result + _Num;
 1931              		.loc 20 426 23 view .LVU498
 1932              	.LBE738:
 1933              	.LBE739:
 1934              	.LBE740:
 1935              	.LBE741:
 1936              	.LBE742:
 1937              	.LBE743:
 1938              	.LBE744:
 1939              	.LBB745:
 1940              	.LBI745:
 577:/Library/DaisyToolchain/0.2.0/arm/arm-none-eabi/include/c++/10.3.1/bits/stl_deque.h ****       {
 1941              		.loc 14 577 7 is_stmt 1 view .LVU499
 1942              	.LBB746:
 1943              	.LBB747:
ARM GAS  /var/folders/s6/2bsynnl15rj0bwtb9pgx4dc00000gn/T//cc76hY55.s 			page 145


 1944              	.LBI747:
 552:/Library/DaisyToolchain/0.2.0/arm/arm-none-eabi/include/c++/10.3.1/bits/stl_deque.h ****       { return _Map_alloc_type(_M_get_Tp_allocator()); }
 1945              		.loc 14 552 7 view .LVU500
 1946              	.LBB748:
 1947              	.LBI748:
 177:/Library/DaisyToolchain/0.2.0/arm/arm-none-eabi/include/c++/10.3.1/bits/allocator.h **** 
 1948              		.loc 19 177 2 view .LVU501
 1949              	.LBB749:
 1950              	.LBI749:
  79:/Library/DaisyToolchain/0.2.0/arm/arm-none-eabi/include/c++/10.3.1/ext/new_allocator.h **** 
 1951              		.loc 16 79 7 view .LVU502
  79:/Library/DaisyToolchain/0.2.0/arm/arm-none-eabi/include/c++/10.3.1/ext/new_allocator.h **** 
 1952              		.loc 16 79 7 is_stmt 0 view .LVU503
 1953              	.LBE749:
 1954              	.LBE748:
 1955              	.LBE747:
 1956              	.LBB750:
 1957              	.LBI750:
 491:/Library/DaisyToolchain/0.2.0/arm/arm-none-eabi/include/c++/10.3.1/bits/alloc_traits.h ****       { __a.deallocate(__p, __n); }
 1958              		.loc 15 491 7 is_stmt 1 view .LVU504
 1959              	.LBB751:
 1960              	.LBI751:
 126:/Library/DaisyToolchain/0.2.0/arm/arm-none-eabi/include/c++/10.3.1/ext/new_allocator.h ****       {
 1961              		.loc 16 126 7 view .LVU505
 1962              	.LBB752:
 139:/Library/DaisyToolchain/0.2.0/arm/arm-none-eabi/include/c++/10.3.1/ext/new_allocator.h **** #if __cpp_sized_deallocation
 1963              		.loc 16 139 19 is_stmt 0 view .LVU506
 1964 0246 D8F80410 		ldr	r1, [r8, #4]
 1965 024a D8F80000 		ldr	r0, [r8]
 1966 024e 8900     		lsls	r1, r1, #2
 1967 0250 0193     		str	r3, [sp, #4]
 1968 0252 FFF7FEFF 		bl	_ZdlPvj
 1969              	.LVL150:
 139:/Library/DaisyToolchain/0.2.0/arm/arm-none-eabi/include/c++/10.3.1/ext/new_allocator.h **** #if __cpp_sized_deallocation
 1970              		.loc 16 139 19 view .LVU507
 1971              	.LBE752:
 1972              	.LBE751:
 1973              	.LBE750:
 1974              	.LBB753:
 1975              	.LBI753:
 1976              		.loc 19 182 7 is_stmt 1 view .LVU508
 1977              	.LBB754:
 1978              	.LBI754:
  89:/Library/DaisyToolchain/0.2.0/arm/arm-none-eabi/include/c++/10.3.1/ext/new_allocator.h **** 
 1979              		.loc 16 89 7 view .LVU509
  89:/Library/DaisyToolchain/0.2.0/arm/arm-none-eabi/include/c++/10.3.1/ext/new_allocator.h **** 
 1980              		.loc 16 89 7 is_stmt 0 view .LVU510
 1981              	.LBE754:
 1982              	.LBE753:
 1983              	.LBE746:
 1984              	.LBE745:
 960:/Library/DaisyToolchain/0.2.0/arm/arm-none-eabi/include/c++/10.3.1/bits/deque.tcc **** 		    this->_M_impl._M_finish._M_node + 1,
 961:/Library/DaisyToolchain/0.2.0/arm/arm-none-eabi/include/c++/10.3.1/bits/deque.tcc **** 		    __new_nstart);
 962:/Library/DaisyToolchain/0.2.0/arm/arm-none-eabi/include/c++/10.3.1/bits/deque.tcc **** 	  _M_deallocate_map(this->_M_impl._M_map, this->_M_impl._M_map_size);
 963:/Library/DaisyToolchain/0.2.0/arm/arm-none-eabi/include/c++/10.3.1/bits/deque.tcc **** 
 964:/Library/DaisyToolchain/0.2.0/arm/arm-none-eabi/include/c++/10.3.1/bits/deque.tcc **** 	  this->_M_impl._M_map = __new_map;
 1985              		.loc 18 964 25 view .LVU511
ARM GAS  /var/folders/s6/2bsynnl15rj0bwtb9pgx4dc00000gn/T//cc76hY55.s 			page 146


 1986 0256 019B     		ldr	r3, [sp, #4]
 965:/Library/DaisyToolchain/0.2.0/arm/arm-none-eabi/include/c++/10.3.1/bits/deque.tcc **** 	  this->_M_impl._M_map_size = __new_map_size;
 1987              		.loc 18 965 30 view .LVU512
 1988 0258 C8E90039 		strd	r3, r9, [r8]
 1989              	.LVL151:
 1990              	.L102:
 1991              		.loc 18 965 30 view .LVU513
 1992              	.LBE711:
 1993              	.LBE710:
 1994              	.LBB771:
 1995              	.LBI771:
 260:/Library/DaisyToolchain/0.2.0/arm/arm-none-eabi/include/c++/10.3.1/bits/stl_deque.h ****       {
 1996              		.loc 14 260 7 is_stmt 1 view .LVU514
 1997              	.LBB772:
 263:/Library/DaisyToolchain/0.2.0/arm/arm-none-eabi/include/c++/10.3.1/bits/stl_deque.h **** 	_M_last = _M_first + difference_type(_S_buffer_size());
 1998              		.loc 14 263 11 is_stmt 0 view .LVU515
 1999 025c DBF80030 		ldr	r3, [fp]
 2000              	.LBE772:
 2001              	.LBE771:
 966:/Library/DaisyToolchain/0.2.0/arm/arm-none-eabi/include/c++/10.3.1/bits/deque.tcc **** 	}
 967:/Library/DaisyToolchain/0.2.0/arm/arm-none-eabi/include/c++/10.3.1/bits/deque.tcc **** 
 968:/Library/DaisyToolchain/0.2.0/arm/arm-none-eabi/include/c++/10.3.1/bits/deque.tcc ****       this->_M_impl._M_start._M_set_node(__new_nstart);
 969:/Library/DaisyToolchain/0.2.0/arm/arm-none-eabi/include/c++/10.3.1/bits/deque.tcc ****       this->_M_impl._M_finish._M_set_node(__new_nstart + __old_num_nodes - 1);
 2002              		.loc 18 969 42 view .LVU516
 2003 0260 0BEB0A09 		add	r9, fp, r10
 2004              	.LBB774:
 2005              	.LBB773:
 262:/Library/DaisyToolchain/0.2.0/arm/arm-none-eabi/include/c++/10.3.1/bits/stl_deque.h **** 	_M_first = *__new_node;
 2006              		.loc 14 262 10 view .LVU517
 2007 0264 C8F814B0 		str	fp, [r8, #20]
 263:/Library/DaisyToolchain/0.2.0/arm/arm-none-eabi/include/c++/10.3.1/bits/stl_deque.h **** 	_M_last = _M_first + difference_type(_S_buffer_size());
 2008              		.loc 14 263 11 view .LVU518
 2009 0268 C8F80C30 		str	r3, [r8, #12]
 264:/Library/DaisyToolchain/0.2.0/arm/arm-none-eabi/include/c++/10.3.1/bits/stl_deque.h ****       }
 2010              		.loc 14 264 21 view .LVU519
 2011 026c 03F50073 		add	r3, r3, #512
 264:/Library/DaisyToolchain/0.2.0/arm/arm-none-eabi/include/c++/10.3.1/bits/stl_deque.h ****       }
 2012              		.loc 14 264 10 view .LVU520
 2013 0270 C8F81030 		str	r3, [r8, #16]
 2014              	.LVL152:
 264:/Library/DaisyToolchain/0.2.0/arm/arm-none-eabi/include/c++/10.3.1/bits/stl_deque.h ****       }
 2015              		.loc 14 264 10 view .LVU521
 2016              	.LBE773:
 2017              	.LBE774:
 2018              	.LBB775:
 2019              	.LBI775:
 260:/Library/DaisyToolchain/0.2.0/arm/arm-none-eabi/include/c++/10.3.1/bits/stl_deque.h ****       {
 2020              		.loc 14 260 7 is_stmt 1 view .LVU522
 2021              	.LBB776:
 263:/Library/DaisyToolchain/0.2.0/arm/arm-none-eabi/include/c++/10.3.1/bits/stl_deque.h **** 	_M_last = _M_first + difference_type(_S_buffer_size());
 2022              		.loc 14 263 11 is_stmt 0 view .LVU523
 2023 0274 5BF80A30 		ldr	r3, [fp, r10]
 2024 0278 C8F81C30 		str	r3, [r8, #28]
 264:/Library/DaisyToolchain/0.2.0/arm/arm-none-eabi/include/c++/10.3.1/bits/stl_deque.h ****       }
 2025              		.loc 14 264 21 view .LVU524
 2026 027c 03F50073 		add	r3, r3, #512
 262:/Library/DaisyToolchain/0.2.0/arm/arm-none-eabi/include/c++/10.3.1/bits/stl_deque.h **** 	_M_first = *__new_node;
ARM GAS  /var/folders/s6/2bsynnl15rj0bwtb9pgx4dc00000gn/T//cc76hY55.s 			page 147


 2027              		.loc 14 262 10 view .LVU525
 2028 0280 C8E90839 		strd	r3, r9, [r8, #32]
 2029              	.LBE776:
 2030              	.LBE775:
 2031              	.LBE709:
 2032              	.LBE708:
 2033 0284 8FE7     		b	.L99
 2034              	.LVL153:
 2035              	.L141:
 2036              	.LBB779:
 2037              	.LBB778:
 2038              	.LBB777:
 939:/Library/DaisyToolchain/0.2.0/arm/arm-none-eabi/include/c++/10.3.1/bits/deque.tcc **** 			 + (__add_at_front ? __nodes_to_add : 0);
 2039              		.loc 18 939 7 view .LVU526
 2040 0286 A2EB0B0B 		sub	fp, r2, fp
 2041              	.LVL154:
 939:/Library/DaisyToolchain/0.2.0/arm/arm-none-eabi/include/c++/10.3.1/bits/deque.tcc **** 			 + (__add_at_front ? __nodes_to_add : 0);
 2042              		.loc 18 939 26 view .LVU527
 2043 028a 4FEA5B0B 		lsr	fp, fp, #1
 938:/Library/DaisyToolchain/0.2.0/arm/arm-none-eabi/include/c++/10.3.1/bits/deque.tcc **** 					 - __new_num_nodes) / 2
 2044              		.loc 18 938 17 view .LVU528
 2045 028e 00EB8B0B 		add	fp, r0, fp, lsl #2
 2046              	.LVL155:
 941:/Library/DaisyToolchain/0.2.0/arm/arm-none-eabi/include/c++/10.3.1/bits/deque.tcc **** 	    std::copy(this->_M_impl._M_start._M_node,
 2047              		.loc 18 941 4 view .LVU529
 2048 0292 5945     		cmp	r1, fp
 2049 0294 08D9     		bls	.L101
 942:/Library/DaisyToolchain/0.2.0/arm/arm-none-eabi/include/c++/10.3.1/bits/deque.tcc **** 		      this->_M_impl._M_finish._M_node + 1,
 2050              		.loc 18 942 15 view .LVU530
 2051 0296 09F10402 		add	r2, r9, #4
 2052              	.LVL156:
 2053              	.LBB756:
 2054              	.LBI756:
 2055              		.loc 20 560 5 is_stmt 1 view .LVU531
 2056              	.LBB757:
 2057              	.LBI757:
 511:/Library/DaisyToolchain/0.2.0/arm/arm-none-eabi/include/c++/10.3.1/bits/stl_algobase.h ****     {
 2058              		.loc 20 511 5 view .LVU532
 2059              	.LBB758:
 2060              	.LBI758:
 505:/Library/DaisyToolchain/0.2.0/arm/arm-none-eabi/include/c++/10.3.1/bits/stl_algobase.h ****     { return std::__copy_move_a2<_IsMove>(__first, __last, __result); }
 2061              		.loc 20 505 5 view .LVU533
 2062              	.LBB759:
 2063              	.LBI759:
 463:/Library/DaisyToolchain/0.2.0/arm/arm-none-eabi/include/c++/10.3.1/bits/stl_algobase.h ****     {
 2064              		.loc 20 463 5 view .LVU534
 2065              	.LBB760:
 2066              	.LBB761:
 2067              	.LBI761:
 415:/Library/DaisyToolchain/0.2.0/arm/arm-none-eabi/include/c++/10.3.1/bits/stl_algobase.h **** 	{
 2068              		.loc 20 415 2 view .LVU535
 2069              	.LBB762:
 425:/Library/DaisyToolchain/0.2.0/arm/arm-none-eabi/include/c++/10.3.1/bits/stl_algobase.h **** 	    __builtin_memmove(__result, __first, sizeof(_Tp) * _Num);
 2070              		.loc 20 425 4 is_stmt 0 view .LVU536
 2071 029a 9142     		cmp	r1, r2
 2072 029c DED0     		beq	.L102
 426:/Library/DaisyToolchain/0.2.0/arm/arm-none-eabi/include/c++/10.3.1/bits/stl_algobase.h **** 	  return __result + _Num;
ARM GAS  /var/folders/s6/2bsynnl15rj0bwtb9pgx4dc00000gn/T//cc76hY55.s 			page 148


 2073              		.loc 20 426 23 view .LVU537
 2074 029e 521A     		subs	r2, r2, r1
 2075              	.LVL157:
 426:/Library/DaisyToolchain/0.2.0/arm/arm-none-eabi/include/c++/10.3.1/bits/stl_algobase.h **** 	  return __result + _Num;
 2076              		.loc 20 426 23 view .LVU538
 2077 02a0 5846     		mov	r0, fp
 2078 02a2 FFF7FEFF 		bl	memmove
 2079              	.LVL158:
 426:/Library/DaisyToolchain/0.2.0/arm/arm-none-eabi/include/c++/10.3.1/bits/stl_algobase.h **** 	  return __result + _Num;
 2080              		.loc 20 426 23 view .LVU539
 2081 02a6 D9E7     		b	.L102
 2082              	.LVL159:
 2083              	.L101:
 426:/Library/DaisyToolchain/0.2.0/arm/arm-none-eabi/include/c++/10.3.1/bits/stl_algobase.h **** 	  return __result + _Num;
 2084              		.loc 20 426 23 view .LVU540
 2085              	.LBE762:
 2086              	.LBE761:
 2087              	.LBE760:
 2088              	.LBE759:
 2089              	.LBE758:
 2090              	.LBE757:
 2091              	.LBE756:
 946:/Library/DaisyToolchain/0.2.0/arm/arm-none-eabi/include/c++/10.3.1/bits/deque.tcc **** 			       this->_M_impl._M_finish._M_node + 1,
 2092              		.loc 18 946 24 view .LVU541
 2093 02a8 09F10409 		add	r9, r9, #4
 2094              	.LVL160:
 2095              	.LBB763:
 2096              	.LBI763:
 561:/Library/DaisyToolchain/0.2.0/arm/arm-none-eabi/include/c++/10.3.1/bits/stl_algobase.h ****     {
 562:/Library/DaisyToolchain/0.2.0/arm/arm-none-eabi/include/c++/10.3.1/bits/stl_algobase.h ****       // concept requirements
 563:/Library/DaisyToolchain/0.2.0/arm/arm-none-eabi/include/c++/10.3.1/bits/stl_algobase.h ****       __glibcxx_function_requires(_InputIteratorConcept<_II>)
 564:/Library/DaisyToolchain/0.2.0/arm/arm-none-eabi/include/c++/10.3.1/bits/stl_algobase.h ****       __glibcxx_function_requires(_OutputIteratorConcept<_OI,
 565:/Library/DaisyToolchain/0.2.0/arm/arm-none-eabi/include/c++/10.3.1/bits/stl_algobase.h **** 	    typename iterator_traits<_II>::value_type>)
 566:/Library/DaisyToolchain/0.2.0/arm/arm-none-eabi/include/c++/10.3.1/bits/stl_algobase.h ****       __glibcxx_requires_can_increment_range(__first, __last, __result);
 567:/Library/DaisyToolchain/0.2.0/arm/arm-none-eabi/include/c++/10.3.1/bits/stl_algobase.h **** 
 568:/Library/DaisyToolchain/0.2.0/arm/arm-none-eabi/include/c++/10.3.1/bits/stl_algobase.h ****       return std::__copy_move_a<__is_move_iterator<_II>::__value>
 569:/Library/DaisyToolchain/0.2.0/arm/arm-none-eabi/include/c++/10.3.1/bits/stl_algobase.h **** 	     (std::__miter_base(__first), std::__miter_base(__last), __result);
 570:/Library/DaisyToolchain/0.2.0/arm/arm-none-eabi/include/c++/10.3.1/bits/stl_algobase.h ****     }
 571:/Library/DaisyToolchain/0.2.0/arm/arm-none-eabi/include/c++/10.3.1/bits/stl_algobase.h **** 
 572:/Library/DaisyToolchain/0.2.0/arm/arm-none-eabi/include/c++/10.3.1/bits/stl_algobase.h **** #if __cplusplus >= 201103L
 573:/Library/DaisyToolchain/0.2.0/arm/arm-none-eabi/include/c++/10.3.1/bits/stl_algobase.h ****   /**
 574:/Library/DaisyToolchain/0.2.0/arm/arm-none-eabi/include/c++/10.3.1/bits/stl_algobase.h ****    *  @brief Moves the range [first,last) into result.
 575:/Library/DaisyToolchain/0.2.0/arm/arm-none-eabi/include/c++/10.3.1/bits/stl_algobase.h ****    *  @ingroup mutating_algorithms
 576:/Library/DaisyToolchain/0.2.0/arm/arm-none-eabi/include/c++/10.3.1/bits/stl_algobase.h ****    *  @param  __first  An input iterator.
 577:/Library/DaisyToolchain/0.2.0/arm/arm-none-eabi/include/c++/10.3.1/bits/stl_algobase.h ****    *  @param  __last   An input iterator.
 578:/Library/DaisyToolchain/0.2.0/arm/arm-none-eabi/include/c++/10.3.1/bits/stl_algobase.h ****    *  @param  __result An output iterator.
 579:/Library/DaisyToolchain/0.2.0/arm/arm-none-eabi/include/c++/10.3.1/bits/stl_algobase.h ****    *  @return   result + (last - first)
 580:/Library/DaisyToolchain/0.2.0/arm/arm-none-eabi/include/c++/10.3.1/bits/stl_algobase.h ****    *
 581:/Library/DaisyToolchain/0.2.0/arm/arm-none-eabi/include/c++/10.3.1/bits/stl_algobase.h ****    *  This inline function will boil down to a call to @c memmove whenever
 582:/Library/DaisyToolchain/0.2.0/arm/arm-none-eabi/include/c++/10.3.1/bits/stl_algobase.h ****    *  possible.  Failing that, if random access iterators are passed, then the
 583:/Library/DaisyToolchain/0.2.0/arm/arm-none-eabi/include/c++/10.3.1/bits/stl_algobase.h ****    *  loop count will be known (and therefore a candidate for compiler
 584:/Library/DaisyToolchain/0.2.0/arm/arm-none-eabi/include/c++/10.3.1/bits/stl_algobase.h ****    *  optimizations such as unrolling).  Result may not be contained within
 585:/Library/DaisyToolchain/0.2.0/arm/arm-none-eabi/include/c++/10.3.1/bits/stl_algobase.h ****    *  [first,last); the move_backward function should be used instead.
 586:/Library/DaisyToolchain/0.2.0/arm/arm-none-eabi/include/c++/10.3.1/bits/stl_algobase.h ****    *
 587:/Library/DaisyToolchain/0.2.0/arm/arm-none-eabi/include/c++/10.3.1/bits/stl_algobase.h ****    *  Note that the end of the output range is permitted to be contained
 588:/Library/DaisyToolchain/0.2.0/arm/arm-none-eabi/include/c++/10.3.1/bits/stl_algobase.h ****    *  within [first,last).
 589:/Library/DaisyToolchain/0.2.0/arm/arm-none-eabi/include/c++/10.3.1/bits/stl_algobase.h ****   */
ARM GAS  /var/folders/s6/2bsynnl15rj0bwtb9pgx4dc00000gn/T//cc76hY55.s 			page 149


 590:/Library/DaisyToolchain/0.2.0/arm/arm-none-eabi/include/c++/10.3.1/bits/stl_algobase.h ****   template<typename _II, typename _OI>
 591:/Library/DaisyToolchain/0.2.0/arm/arm-none-eabi/include/c++/10.3.1/bits/stl_algobase.h ****     _GLIBCXX20_CONSTEXPR
 592:/Library/DaisyToolchain/0.2.0/arm/arm-none-eabi/include/c++/10.3.1/bits/stl_algobase.h ****     inline _OI
 593:/Library/DaisyToolchain/0.2.0/arm/arm-none-eabi/include/c++/10.3.1/bits/stl_algobase.h ****     move(_II __first, _II __last, _OI __result)
 594:/Library/DaisyToolchain/0.2.0/arm/arm-none-eabi/include/c++/10.3.1/bits/stl_algobase.h ****     {
 595:/Library/DaisyToolchain/0.2.0/arm/arm-none-eabi/include/c++/10.3.1/bits/stl_algobase.h ****       // concept requirements
 596:/Library/DaisyToolchain/0.2.0/arm/arm-none-eabi/include/c++/10.3.1/bits/stl_algobase.h ****       __glibcxx_function_requires(_InputIteratorConcept<_II>)
 597:/Library/DaisyToolchain/0.2.0/arm/arm-none-eabi/include/c++/10.3.1/bits/stl_algobase.h ****       __glibcxx_function_requires(_OutputIteratorConcept<_OI,
 598:/Library/DaisyToolchain/0.2.0/arm/arm-none-eabi/include/c++/10.3.1/bits/stl_algobase.h **** 	    typename iterator_traits<_II>::value_type>)
 599:/Library/DaisyToolchain/0.2.0/arm/arm-none-eabi/include/c++/10.3.1/bits/stl_algobase.h ****       __glibcxx_requires_can_increment_range(__first, __last, __result);
 600:/Library/DaisyToolchain/0.2.0/arm/arm-none-eabi/include/c++/10.3.1/bits/stl_algobase.h **** 
 601:/Library/DaisyToolchain/0.2.0/arm/arm-none-eabi/include/c++/10.3.1/bits/stl_algobase.h ****       return std::__copy_move_a<true>(std::__miter_base(__first),
 602:/Library/DaisyToolchain/0.2.0/arm/arm-none-eabi/include/c++/10.3.1/bits/stl_algobase.h **** 				      std::__miter_base(__last), __result);
 603:/Library/DaisyToolchain/0.2.0/arm/arm-none-eabi/include/c++/10.3.1/bits/stl_algobase.h ****     }
 604:/Library/DaisyToolchain/0.2.0/arm/arm-none-eabi/include/c++/10.3.1/bits/stl_algobase.h **** 
 605:/Library/DaisyToolchain/0.2.0/arm/arm-none-eabi/include/c++/10.3.1/bits/stl_algobase.h **** #define _GLIBCXX_MOVE3(_Tp, _Up, _Vp) std::move(_Tp, _Up, _Vp)
 606:/Library/DaisyToolchain/0.2.0/arm/arm-none-eabi/include/c++/10.3.1/bits/stl_algobase.h **** #else
 607:/Library/DaisyToolchain/0.2.0/arm/arm-none-eabi/include/c++/10.3.1/bits/stl_algobase.h **** #define _GLIBCXX_MOVE3(_Tp, _Up, _Vp) std::copy(_Tp, _Up, _Vp)
 608:/Library/DaisyToolchain/0.2.0/arm/arm-none-eabi/include/c++/10.3.1/bits/stl_algobase.h **** #endif
 609:/Library/DaisyToolchain/0.2.0/arm/arm-none-eabi/include/c++/10.3.1/bits/stl_algobase.h **** 
 610:/Library/DaisyToolchain/0.2.0/arm/arm-none-eabi/include/c++/10.3.1/bits/stl_algobase.h ****   template<bool _IsMove, bool _IsSimple, typename _Category>
 611:/Library/DaisyToolchain/0.2.0/arm/arm-none-eabi/include/c++/10.3.1/bits/stl_algobase.h ****     struct __copy_move_backward
 612:/Library/DaisyToolchain/0.2.0/arm/arm-none-eabi/include/c++/10.3.1/bits/stl_algobase.h ****     {
 613:/Library/DaisyToolchain/0.2.0/arm/arm-none-eabi/include/c++/10.3.1/bits/stl_algobase.h ****       template<typename _BI1, typename _BI2>
 614:/Library/DaisyToolchain/0.2.0/arm/arm-none-eabi/include/c++/10.3.1/bits/stl_algobase.h **** 	_GLIBCXX20_CONSTEXPR
 615:/Library/DaisyToolchain/0.2.0/arm/arm-none-eabi/include/c++/10.3.1/bits/stl_algobase.h **** 	static _BI2
 616:/Library/DaisyToolchain/0.2.0/arm/arm-none-eabi/include/c++/10.3.1/bits/stl_algobase.h **** 	__copy_move_b(_BI1 __first, _BI1 __last, _BI2 __result)
 617:/Library/DaisyToolchain/0.2.0/arm/arm-none-eabi/include/c++/10.3.1/bits/stl_algobase.h **** 	{
 618:/Library/DaisyToolchain/0.2.0/arm/arm-none-eabi/include/c++/10.3.1/bits/stl_algobase.h **** 	  while (__first != __last)
 619:/Library/DaisyToolchain/0.2.0/arm/arm-none-eabi/include/c++/10.3.1/bits/stl_algobase.h **** 	    *--__result = *--__last;
 620:/Library/DaisyToolchain/0.2.0/arm/arm-none-eabi/include/c++/10.3.1/bits/stl_algobase.h **** 	  return __result;
 621:/Library/DaisyToolchain/0.2.0/arm/arm-none-eabi/include/c++/10.3.1/bits/stl_algobase.h **** 	}
 622:/Library/DaisyToolchain/0.2.0/arm/arm-none-eabi/include/c++/10.3.1/bits/stl_algobase.h ****     };
 623:/Library/DaisyToolchain/0.2.0/arm/arm-none-eabi/include/c++/10.3.1/bits/stl_algobase.h **** 
 624:/Library/DaisyToolchain/0.2.0/arm/arm-none-eabi/include/c++/10.3.1/bits/stl_algobase.h **** #if __cplusplus >= 201103L
 625:/Library/DaisyToolchain/0.2.0/arm/arm-none-eabi/include/c++/10.3.1/bits/stl_algobase.h ****   template<typename _Category>
 626:/Library/DaisyToolchain/0.2.0/arm/arm-none-eabi/include/c++/10.3.1/bits/stl_algobase.h ****     struct __copy_move_backward<true, false, _Category>
 627:/Library/DaisyToolchain/0.2.0/arm/arm-none-eabi/include/c++/10.3.1/bits/stl_algobase.h ****     {
 628:/Library/DaisyToolchain/0.2.0/arm/arm-none-eabi/include/c++/10.3.1/bits/stl_algobase.h ****       template<typename _BI1, typename _BI2>
 629:/Library/DaisyToolchain/0.2.0/arm/arm-none-eabi/include/c++/10.3.1/bits/stl_algobase.h **** 	_GLIBCXX20_CONSTEXPR
 630:/Library/DaisyToolchain/0.2.0/arm/arm-none-eabi/include/c++/10.3.1/bits/stl_algobase.h **** 	static _BI2
 631:/Library/DaisyToolchain/0.2.0/arm/arm-none-eabi/include/c++/10.3.1/bits/stl_algobase.h **** 	__copy_move_b(_BI1 __first, _BI1 __last, _BI2 __result)
 632:/Library/DaisyToolchain/0.2.0/arm/arm-none-eabi/include/c++/10.3.1/bits/stl_algobase.h **** 	{
 633:/Library/DaisyToolchain/0.2.0/arm/arm-none-eabi/include/c++/10.3.1/bits/stl_algobase.h **** 	  while (__first != __last)
 634:/Library/DaisyToolchain/0.2.0/arm/arm-none-eabi/include/c++/10.3.1/bits/stl_algobase.h **** 	    *--__result = std::move(*--__last);
 635:/Library/DaisyToolchain/0.2.0/arm/arm-none-eabi/include/c++/10.3.1/bits/stl_algobase.h **** 	  return __result;
 636:/Library/DaisyToolchain/0.2.0/arm/arm-none-eabi/include/c++/10.3.1/bits/stl_algobase.h **** 	}
 637:/Library/DaisyToolchain/0.2.0/arm/arm-none-eabi/include/c++/10.3.1/bits/stl_algobase.h ****     };
 638:/Library/DaisyToolchain/0.2.0/arm/arm-none-eabi/include/c++/10.3.1/bits/stl_algobase.h **** #endif
 639:/Library/DaisyToolchain/0.2.0/arm/arm-none-eabi/include/c++/10.3.1/bits/stl_algobase.h **** 
 640:/Library/DaisyToolchain/0.2.0/arm/arm-none-eabi/include/c++/10.3.1/bits/stl_algobase.h ****   template<>
 641:/Library/DaisyToolchain/0.2.0/arm/arm-none-eabi/include/c++/10.3.1/bits/stl_algobase.h ****     struct __copy_move_backward<false, false, random_access_iterator_tag>
 642:/Library/DaisyToolchain/0.2.0/arm/arm-none-eabi/include/c++/10.3.1/bits/stl_algobase.h ****     {
 643:/Library/DaisyToolchain/0.2.0/arm/arm-none-eabi/include/c++/10.3.1/bits/stl_algobase.h ****       template<typename _BI1, typename _BI2>
 644:/Library/DaisyToolchain/0.2.0/arm/arm-none-eabi/include/c++/10.3.1/bits/stl_algobase.h **** 	_GLIBCXX20_CONSTEXPR
 645:/Library/DaisyToolchain/0.2.0/arm/arm-none-eabi/include/c++/10.3.1/bits/stl_algobase.h **** 	static _BI2
 646:/Library/DaisyToolchain/0.2.0/arm/arm-none-eabi/include/c++/10.3.1/bits/stl_algobase.h **** 	__copy_move_b(_BI1 __first, _BI1 __last, _BI2 __result)
ARM GAS  /var/folders/s6/2bsynnl15rj0bwtb9pgx4dc00000gn/T//cc76hY55.s 			page 150


 647:/Library/DaisyToolchain/0.2.0/arm/arm-none-eabi/include/c++/10.3.1/bits/stl_algobase.h **** 	{
 648:/Library/DaisyToolchain/0.2.0/arm/arm-none-eabi/include/c++/10.3.1/bits/stl_algobase.h **** 	  typename iterator_traits<_BI1>::difference_type
 649:/Library/DaisyToolchain/0.2.0/arm/arm-none-eabi/include/c++/10.3.1/bits/stl_algobase.h **** 	    __n = __last - __first;
 650:/Library/DaisyToolchain/0.2.0/arm/arm-none-eabi/include/c++/10.3.1/bits/stl_algobase.h **** 	  for (; __n > 0; --__n)
 651:/Library/DaisyToolchain/0.2.0/arm/arm-none-eabi/include/c++/10.3.1/bits/stl_algobase.h **** 	    *--__result = *--__last;
 652:/Library/DaisyToolchain/0.2.0/arm/arm-none-eabi/include/c++/10.3.1/bits/stl_algobase.h **** 	  return __result;
 653:/Library/DaisyToolchain/0.2.0/arm/arm-none-eabi/include/c++/10.3.1/bits/stl_algobase.h **** 	}
 654:/Library/DaisyToolchain/0.2.0/arm/arm-none-eabi/include/c++/10.3.1/bits/stl_algobase.h ****     };
 655:/Library/DaisyToolchain/0.2.0/arm/arm-none-eabi/include/c++/10.3.1/bits/stl_algobase.h **** 
 656:/Library/DaisyToolchain/0.2.0/arm/arm-none-eabi/include/c++/10.3.1/bits/stl_algobase.h **** #if __cplusplus >= 201103L
 657:/Library/DaisyToolchain/0.2.0/arm/arm-none-eabi/include/c++/10.3.1/bits/stl_algobase.h ****   template<>
 658:/Library/DaisyToolchain/0.2.0/arm/arm-none-eabi/include/c++/10.3.1/bits/stl_algobase.h ****     struct __copy_move_backward<true, false, random_access_iterator_tag>
 659:/Library/DaisyToolchain/0.2.0/arm/arm-none-eabi/include/c++/10.3.1/bits/stl_algobase.h ****     {
 660:/Library/DaisyToolchain/0.2.0/arm/arm-none-eabi/include/c++/10.3.1/bits/stl_algobase.h ****       template<typename _BI1, typename _BI2>
 661:/Library/DaisyToolchain/0.2.0/arm/arm-none-eabi/include/c++/10.3.1/bits/stl_algobase.h **** 	_GLIBCXX20_CONSTEXPR
 662:/Library/DaisyToolchain/0.2.0/arm/arm-none-eabi/include/c++/10.3.1/bits/stl_algobase.h **** 	static _BI2
 663:/Library/DaisyToolchain/0.2.0/arm/arm-none-eabi/include/c++/10.3.1/bits/stl_algobase.h **** 	__copy_move_b(_BI1 __first, _BI1 __last, _BI2 __result)
 664:/Library/DaisyToolchain/0.2.0/arm/arm-none-eabi/include/c++/10.3.1/bits/stl_algobase.h **** 	{
 665:/Library/DaisyToolchain/0.2.0/arm/arm-none-eabi/include/c++/10.3.1/bits/stl_algobase.h **** 	  typename iterator_traits<_BI1>::difference_type
 666:/Library/DaisyToolchain/0.2.0/arm/arm-none-eabi/include/c++/10.3.1/bits/stl_algobase.h **** 	    __n = __last - __first;
 667:/Library/DaisyToolchain/0.2.0/arm/arm-none-eabi/include/c++/10.3.1/bits/stl_algobase.h **** 	  for (; __n > 0; --__n)
 668:/Library/DaisyToolchain/0.2.0/arm/arm-none-eabi/include/c++/10.3.1/bits/stl_algobase.h **** 	    *--__result = std::move(*--__last);
 669:/Library/DaisyToolchain/0.2.0/arm/arm-none-eabi/include/c++/10.3.1/bits/stl_algobase.h **** 	  return __result;
 670:/Library/DaisyToolchain/0.2.0/arm/arm-none-eabi/include/c++/10.3.1/bits/stl_algobase.h **** 	}
 671:/Library/DaisyToolchain/0.2.0/arm/arm-none-eabi/include/c++/10.3.1/bits/stl_algobase.h ****     };
 672:/Library/DaisyToolchain/0.2.0/arm/arm-none-eabi/include/c++/10.3.1/bits/stl_algobase.h **** #endif
 673:/Library/DaisyToolchain/0.2.0/arm/arm-none-eabi/include/c++/10.3.1/bits/stl_algobase.h **** 
 674:/Library/DaisyToolchain/0.2.0/arm/arm-none-eabi/include/c++/10.3.1/bits/stl_algobase.h ****   template<bool _IsMove>
 675:/Library/DaisyToolchain/0.2.0/arm/arm-none-eabi/include/c++/10.3.1/bits/stl_algobase.h ****     struct __copy_move_backward<_IsMove, true, random_access_iterator_tag>
 676:/Library/DaisyToolchain/0.2.0/arm/arm-none-eabi/include/c++/10.3.1/bits/stl_algobase.h ****     {
 677:/Library/DaisyToolchain/0.2.0/arm/arm-none-eabi/include/c++/10.3.1/bits/stl_algobase.h ****       template<typename _Tp>
 678:/Library/DaisyToolchain/0.2.0/arm/arm-none-eabi/include/c++/10.3.1/bits/stl_algobase.h **** 	_GLIBCXX20_CONSTEXPR
 679:/Library/DaisyToolchain/0.2.0/arm/arm-none-eabi/include/c++/10.3.1/bits/stl_algobase.h **** 	static _Tp*
 680:/Library/DaisyToolchain/0.2.0/arm/arm-none-eabi/include/c++/10.3.1/bits/stl_algobase.h **** 	__copy_move_b(const _Tp* __first, const _Tp* __last, _Tp* __result)
 681:/Library/DaisyToolchain/0.2.0/arm/arm-none-eabi/include/c++/10.3.1/bits/stl_algobase.h **** 	{
 682:/Library/DaisyToolchain/0.2.0/arm/arm-none-eabi/include/c++/10.3.1/bits/stl_algobase.h **** #if __cplusplus >= 201103L
 683:/Library/DaisyToolchain/0.2.0/arm/arm-none-eabi/include/c++/10.3.1/bits/stl_algobase.h **** 	  using __assignable = conditional<_IsMove,
 684:/Library/DaisyToolchain/0.2.0/arm/arm-none-eabi/include/c++/10.3.1/bits/stl_algobase.h **** 					   is_move_assignable<_Tp>,
 685:/Library/DaisyToolchain/0.2.0/arm/arm-none-eabi/include/c++/10.3.1/bits/stl_algobase.h **** 					   is_copy_assignable<_Tp>>;
 686:/Library/DaisyToolchain/0.2.0/arm/arm-none-eabi/include/c++/10.3.1/bits/stl_algobase.h **** 	  // trivial types can have deleted assignment
 687:/Library/DaisyToolchain/0.2.0/arm/arm-none-eabi/include/c++/10.3.1/bits/stl_algobase.h **** 	  static_assert( __assignable::type::value, "type is not assignable" );
 688:/Library/DaisyToolchain/0.2.0/arm/arm-none-eabi/include/c++/10.3.1/bits/stl_algobase.h **** #endif
 689:/Library/DaisyToolchain/0.2.0/arm/arm-none-eabi/include/c++/10.3.1/bits/stl_algobase.h **** 	  const ptrdiff_t _Num = __last - __first;
 690:/Library/DaisyToolchain/0.2.0/arm/arm-none-eabi/include/c++/10.3.1/bits/stl_algobase.h **** 	  if (_Num)
 691:/Library/DaisyToolchain/0.2.0/arm/arm-none-eabi/include/c++/10.3.1/bits/stl_algobase.h **** 	    __builtin_memmove(__result - _Num, __first, sizeof(_Tp) * _Num);
 692:/Library/DaisyToolchain/0.2.0/arm/arm-none-eabi/include/c++/10.3.1/bits/stl_algobase.h **** 	  return __result - _Num;
 693:/Library/DaisyToolchain/0.2.0/arm/arm-none-eabi/include/c++/10.3.1/bits/stl_algobase.h **** 	}
 694:/Library/DaisyToolchain/0.2.0/arm/arm-none-eabi/include/c++/10.3.1/bits/stl_algobase.h ****     };
 695:/Library/DaisyToolchain/0.2.0/arm/arm-none-eabi/include/c++/10.3.1/bits/stl_algobase.h **** 
 696:/Library/DaisyToolchain/0.2.0/arm/arm-none-eabi/include/c++/10.3.1/bits/stl_algobase.h ****   template<bool _IsMove, typename _BI1, typename _BI2>
 697:/Library/DaisyToolchain/0.2.0/arm/arm-none-eabi/include/c++/10.3.1/bits/stl_algobase.h ****     _GLIBCXX20_CONSTEXPR
 698:/Library/DaisyToolchain/0.2.0/arm/arm-none-eabi/include/c++/10.3.1/bits/stl_algobase.h ****     inline _BI2
 699:/Library/DaisyToolchain/0.2.0/arm/arm-none-eabi/include/c++/10.3.1/bits/stl_algobase.h ****     __copy_move_backward_a2(_BI1 __first, _BI1 __last, _BI2 __result)
 700:/Library/DaisyToolchain/0.2.0/arm/arm-none-eabi/include/c++/10.3.1/bits/stl_algobase.h ****     {
 701:/Library/DaisyToolchain/0.2.0/arm/arm-none-eabi/include/c++/10.3.1/bits/stl_algobase.h ****       typedef typename iterator_traits<_BI1>::iterator_category _Category;
 702:/Library/DaisyToolchain/0.2.0/arm/arm-none-eabi/include/c++/10.3.1/bits/stl_algobase.h **** #ifdef __cpp_lib_is_constant_evaluated
 703:/Library/DaisyToolchain/0.2.0/arm/arm-none-eabi/include/c++/10.3.1/bits/stl_algobase.h ****       if (std::is_constant_evaluated())
ARM GAS  /var/folders/s6/2bsynnl15rj0bwtb9pgx4dc00000gn/T//cc76hY55.s 			page 151


 704:/Library/DaisyToolchain/0.2.0/arm/arm-none-eabi/include/c++/10.3.1/bits/stl_algobase.h **** 	return std::__copy_move_backward<_IsMove, false, _Category>::
 705:/Library/DaisyToolchain/0.2.0/arm/arm-none-eabi/include/c++/10.3.1/bits/stl_algobase.h **** 	  __copy_move_b(__first, __last, __result);
 706:/Library/DaisyToolchain/0.2.0/arm/arm-none-eabi/include/c++/10.3.1/bits/stl_algobase.h **** #endif
 707:/Library/DaisyToolchain/0.2.0/arm/arm-none-eabi/include/c++/10.3.1/bits/stl_algobase.h ****       return std::__copy_move_backward<_IsMove,
 708:/Library/DaisyToolchain/0.2.0/arm/arm-none-eabi/include/c++/10.3.1/bits/stl_algobase.h **** 				       __memcpyable<_BI2, _BI1>::__value,
 709:/Library/DaisyToolchain/0.2.0/arm/arm-none-eabi/include/c++/10.3.1/bits/stl_algobase.h **** 				       _Category>::__copy_move_b(__first,
 710:/Library/DaisyToolchain/0.2.0/arm/arm-none-eabi/include/c++/10.3.1/bits/stl_algobase.h **** 								 __last,
 711:/Library/DaisyToolchain/0.2.0/arm/arm-none-eabi/include/c++/10.3.1/bits/stl_algobase.h **** 								 __result);
 712:/Library/DaisyToolchain/0.2.0/arm/arm-none-eabi/include/c++/10.3.1/bits/stl_algobase.h ****     }
 713:/Library/DaisyToolchain/0.2.0/arm/arm-none-eabi/include/c++/10.3.1/bits/stl_algobase.h **** 
 714:/Library/DaisyToolchain/0.2.0/arm/arm-none-eabi/include/c++/10.3.1/bits/stl_algobase.h ****   template<bool _IsMove, typename _BI1, typename _BI2>
 715:/Library/DaisyToolchain/0.2.0/arm/arm-none-eabi/include/c++/10.3.1/bits/stl_algobase.h ****     _GLIBCXX20_CONSTEXPR
 716:/Library/DaisyToolchain/0.2.0/arm/arm-none-eabi/include/c++/10.3.1/bits/stl_algobase.h ****     inline _BI2
 717:/Library/DaisyToolchain/0.2.0/arm/arm-none-eabi/include/c++/10.3.1/bits/stl_algobase.h ****     __copy_move_backward_a1(_BI1 __first, _BI1 __last, _BI2 __result)
 718:/Library/DaisyToolchain/0.2.0/arm/arm-none-eabi/include/c++/10.3.1/bits/stl_algobase.h ****     { return std::__copy_move_backward_a2<_IsMove>(__first, __last, __result); }
 719:/Library/DaisyToolchain/0.2.0/arm/arm-none-eabi/include/c++/10.3.1/bits/stl_algobase.h **** 
 720:/Library/DaisyToolchain/0.2.0/arm/arm-none-eabi/include/c++/10.3.1/bits/stl_algobase.h ****   template<bool _IsMove,
 721:/Library/DaisyToolchain/0.2.0/arm/arm-none-eabi/include/c++/10.3.1/bits/stl_algobase.h **** 	   typename _Tp, typename _Ref, typename _Ptr, typename _OI>
 722:/Library/DaisyToolchain/0.2.0/arm/arm-none-eabi/include/c++/10.3.1/bits/stl_algobase.h ****     _OI
 723:/Library/DaisyToolchain/0.2.0/arm/arm-none-eabi/include/c++/10.3.1/bits/stl_algobase.h ****     __copy_move_backward_a1(_GLIBCXX_STD_C::_Deque_iterator<_Tp, _Ref, _Ptr>,
 724:/Library/DaisyToolchain/0.2.0/arm/arm-none-eabi/include/c++/10.3.1/bits/stl_algobase.h **** 			    _GLIBCXX_STD_C::_Deque_iterator<_Tp, _Ref, _Ptr>,
 725:/Library/DaisyToolchain/0.2.0/arm/arm-none-eabi/include/c++/10.3.1/bits/stl_algobase.h **** 			    _OI);
 726:/Library/DaisyToolchain/0.2.0/arm/arm-none-eabi/include/c++/10.3.1/bits/stl_algobase.h **** 
 727:/Library/DaisyToolchain/0.2.0/arm/arm-none-eabi/include/c++/10.3.1/bits/stl_algobase.h ****   template<bool _IsMove,
 728:/Library/DaisyToolchain/0.2.0/arm/arm-none-eabi/include/c++/10.3.1/bits/stl_algobase.h **** 	   typename _ITp, typename _IRef, typename _IPtr, typename _OTp>
 729:/Library/DaisyToolchain/0.2.0/arm/arm-none-eabi/include/c++/10.3.1/bits/stl_algobase.h ****     _GLIBCXX_STD_C::_Deque_iterator<_OTp, _OTp&, _OTp*>
 730:/Library/DaisyToolchain/0.2.0/arm/arm-none-eabi/include/c++/10.3.1/bits/stl_algobase.h ****     __copy_move_backward_a1(
 731:/Library/DaisyToolchain/0.2.0/arm/arm-none-eabi/include/c++/10.3.1/bits/stl_algobase.h **** 			_GLIBCXX_STD_C::_Deque_iterator<_ITp, _IRef, _IPtr>,
 732:/Library/DaisyToolchain/0.2.0/arm/arm-none-eabi/include/c++/10.3.1/bits/stl_algobase.h **** 			_GLIBCXX_STD_C::_Deque_iterator<_ITp, _IRef, _IPtr>,
 733:/Library/DaisyToolchain/0.2.0/arm/arm-none-eabi/include/c++/10.3.1/bits/stl_algobase.h **** 			_GLIBCXX_STD_C::_Deque_iterator<_OTp, _OTp&, _OTp*>);
 734:/Library/DaisyToolchain/0.2.0/arm/arm-none-eabi/include/c++/10.3.1/bits/stl_algobase.h **** 
 735:/Library/DaisyToolchain/0.2.0/arm/arm-none-eabi/include/c++/10.3.1/bits/stl_algobase.h ****   template<bool _IsMove, typename _II, typename _Tp>
 736:/Library/DaisyToolchain/0.2.0/arm/arm-none-eabi/include/c++/10.3.1/bits/stl_algobase.h ****     typename __gnu_cxx::__enable_if<
 737:/Library/DaisyToolchain/0.2.0/arm/arm-none-eabi/include/c++/10.3.1/bits/stl_algobase.h ****       __is_random_access_iter<_II>::__value,
 738:/Library/DaisyToolchain/0.2.0/arm/arm-none-eabi/include/c++/10.3.1/bits/stl_algobase.h ****       _GLIBCXX_STD_C::_Deque_iterator<_Tp, _Tp&, _Tp*> >::__type
 739:/Library/DaisyToolchain/0.2.0/arm/arm-none-eabi/include/c++/10.3.1/bits/stl_algobase.h ****     __copy_move_backward_a1(_II, _II,
 740:/Library/DaisyToolchain/0.2.0/arm/arm-none-eabi/include/c++/10.3.1/bits/stl_algobase.h **** 			    _GLIBCXX_STD_C::_Deque_iterator<_Tp, _Tp&, _Tp*>);
 741:/Library/DaisyToolchain/0.2.0/arm/arm-none-eabi/include/c++/10.3.1/bits/stl_algobase.h **** 
 742:/Library/DaisyToolchain/0.2.0/arm/arm-none-eabi/include/c++/10.3.1/bits/stl_algobase.h ****   template<bool _IsMove, typename _II, typename _OI>
 743:/Library/DaisyToolchain/0.2.0/arm/arm-none-eabi/include/c++/10.3.1/bits/stl_algobase.h ****     _GLIBCXX20_CONSTEXPR
 744:/Library/DaisyToolchain/0.2.0/arm/arm-none-eabi/include/c++/10.3.1/bits/stl_algobase.h ****     inline _OI
 745:/Library/DaisyToolchain/0.2.0/arm/arm-none-eabi/include/c++/10.3.1/bits/stl_algobase.h ****     __copy_move_backward_a(_II __first, _II __last, _OI __result)
 746:/Library/DaisyToolchain/0.2.0/arm/arm-none-eabi/include/c++/10.3.1/bits/stl_algobase.h ****     {
 747:/Library/DaisyToolchain/0.2.0/arm/arm-none-eabi/include/c++/10.3.1/bits/stl_algobase.h ****       return std::__niter_wrap(__result,
 748:/Library/DaisyToolchain/0.2.0/arm/arm-none-eabi/include/c++/10.3.1/bits/stl_algobase.h **** 		std::__copy_move_backward_a1<_IsMove>
 749:/Library/DaisyToolchain/0.2.0/arm/arm-none-eabi/include/c++/10.3.1/bits/stl_algobase.h **** 		  (std::__niter_base(__first), std::__niter_base(__last),
 750:/Library/DaisyToolchain/0.2.0/arm/arm-none-eabi/include/c++/10.3.1/bits/stl_algobase.h **** 		   std::__niter_base(__result)));
 751:/Library/DaisyToolchain/0.2.0/arm/arm-none-eabi/include/c++/10.3.1/bits/stl_algobase.h ****     }
 752:/Library/DaisyToolchain/0.2.0/arm/arm-none-eabi/include/c++/10.3.1/bits/stl_algobase.h **** 
 753:/Library/DaisyToolchain/0.2.0/arm/arm-none-eabi/include/c++/10.3.1/bits/stl_algobase.h ****   template<bool _IsMove,
 754:/Library/DaisyToolchain/0.2.0/arm/arm-none-eabi/include/c++/10.3.1/bits/stl_algobase.h **** 	   typename _Ite, typename _Seq, typename _Cat, typename _OI>
 755:/Library/DaisyToolchain/0.2.0/arm/arm-none-eabi/include/c++/10.3.1/bits/stl_algobase.h ****     _OI
 756:/Library/DaisyToolchain/0.2.0/arm/arm-none-eabi/include/c++/10.3.1/bits/stl_algobase.h ****     __copy_move_backward_a(
 757:/Library/DaisyToolchain/0.2.0/arm/arm-none-eabi/include/c++/10.3.1/bits/stl_algobase.h **** 		const ::__gnu_debug::_Safe_iterator<_Ite, _Seq, _Cat>&,
 758:/Library/DaisyToolchain/0.2.0/arm/arm-none-eabi/include/c++/10.3.1/bits/stl_algobase.h **** 		const ::__gnu_debug::_Safe_iterator<_Ite, _Seq, _Cat>&,
 759:/Library/DaisyToolchain/0.2.0/arm/arm-none-eabi/include/c++/10.3.1/bits/stl_algobase.h **** 		_OI);
 760:/Library/DaisyToolchain/0.2.0/arm/arm-none-eabi/include/c++/10.3.1/bits/stl_algobase.h **** 
ARM GAS  /var/folders/s6/2bsynnl15rj0bwtb9pgx4dc00000gn/T//cc76hY55.s 			page 152


 761:/Library/DaisyToolchain/0.2.0/arm/arm-none-eabi/include/c++/10.3.1/bits/stl_algobase.h ****   template<bool _IsMove,
 762:/Library/DaisyToolchain/0.2.0/arm/arm-none-eabi/include/c++/10.3.1/bits/stl_algobase.h **** 	   typename _II, typename _Ite, typename _Seq, typename _Cat>
 763:/Library/DaisyToolchain/0.2.0/arm/arm-none-eabi/include/c++/10.3.1/bits/stl_algobase.h ****     __gnu_debug::_Safe_iterator<_Ite, _Seq, _Cat>
 764:/Library/DaisyToolchain/0.2.0/arm/arm-none-eabi/include/c++/10.3.1/bits/stl_algobase.h ****     __copy_move_backward_a(_II, _II,
 765:/Library/DaisyToolchain/0.2.0/arm/arm-none-eabi/include/c++/10.3.1/bits/stl_algobase.h **** 		const ::__gnu_debug::_Safe_iterator<_Ite, _Seq, _Cat>&);
 766:/Library/DaisyToolchain/0.2.0/arm/arm-none-eabi/include/c++/10.3.1/bits/stl_algobase.h **** 
 767:/Library/DaisyToolchain/0.2.0/arm/arm-none-eabi/include/c++/10.3.1/bits/stl_algobase.h ****   template<bool _IsMove,
 768:/Library/DaisyToolchain/0.2.0/arm/arm-none-eabi/include/c++/10.3.1/bits/stl_algobase.h **** 	   typename _IIte, typename _ISeq, typename _ICat,
 769:/Library/DaisyToolchain/0.2.0/arm/arm-none-eabi/include/c++/10.3.1/bits/stl_algobase.h **** 	   typename _OIte, typename _OSeq, typename _OCat>
 770:/Library/DaisyToolchain/0.2.0/arm/arm-none-eabi/include/c++/10.3.1/bits/stl_algobase.h ****     ::__gnu_debug::_Safe_iterator<_OIte, _OSeq, _OCat>
 771:/Library/DaisyToolchain/0.2.0/arm/arm-none-eabi/include/c++/10.3.1/bits/stl_algobase.h ****     __copy_move_backward_a(
 772:/Library/DaisyToolchain/0.2.0/arm/arm-none-eabi/include/c++/10.3.1/bits/stl_algobase.h **** 		const ::__gnu_debug::_Safe_iterator<_IIte, _ISeq, _ICat>&,
 773:/Library/DaisyToolchain/0.2.0/arm/arm-none-eabi/include/c++/10.3.1/bits/stl_algobase.h **** 		const ::__gnu_debug::_Safe_iterator<_IIte, _ISeq, _ICat>&,
 774:/Library/DaisyToolchain/0.2.0/arm/arm-none-eabi/include/c++/10.3.1/bits/stl_algobase.h **** 		const ::__gnu_debug::_Safe_iterator<_OIte, _OSeq, _OCat>&);
 775:/Library/DaisyToolchain/0.2.0/arm/arm-none-eabi/include/c++/10.3.1/bits/stl_algobase.h **** 
 776:/Library/DaisyToolchain/0.2.0/arm/arm-none-eabi/include/c++/10.3.1/bits/stl_algobase.h ****   /**
 777:/Library/DaisyToolchain/0.2.0/arm/arm-none-eabi/include/c++/10.3.1/bits/stl_algobase.h ****    *  @brief Copies the range [first,last) into result.
 778:/Library/DaisyToolchain/0.2.0/arm/arm-none-eabi/include/c++/10.3.1/bits/stl_algobase.h ****    *  @ingroup mutating_algorithms
 779:/Library/DaisyToolchain/0.2.0/arm/arm-none-eabi/include/c++/10.3.1/bits/stl_algobase.h ****    *  @param  __first  A bidirectional iterator.
 780:/Library/DaisyToolchain/0.2.0/arm/arm-none-eabi/include/c++/10.3.1/bits/stl_algobase.h ****    *  @param  __last   A bidirectional iterator.
 781:/Library/DaisyToolchain/0.2.0/arm/arm-none-eabi/include/c++/10.3.1/bits/stl_algobase.h ****    *  @param  __result A bidirectional iterator.
 782:/Library/DaisyToolchain/0.2.0/arm/arm-none-eabi/include/c++/10.3.1/bits/stl_algobase.h ****    *  @return   result - (last - first)
 783:/Library/DaisyToolchain/0.2.0/arm/arm-none-eabi/include/c++/10.3.1/bits/stl_algobase.h ****    *
 784:/Library/DaisyToolchain/0.2.0/arm/arm-none-eabi/include/c++/10.3.1/bits/stl_algobase.h ****    *  The function has the same effect as copy, but starts at the end of the
 785:/Library/DaisyToolchain/0.2.0/arm/arm-none-eabi/include/c++/10.3.1/bits/stl_algobase.h ****    *  range and works its way to the start, returning the start of the result.
 786:/Library/DaisyToolchain/0.2.0/arm/arm-none-eabi/include/c++/10.3.1/bits/stl_algobase.h ****    *  This inline function will boil down to a call to @c memmove whenever
 787:/Library/DaisyToolchain/0.2.0/arm/arm-none-eabi/include/c++/10.3.1/bits/stl_algobase.h ****    *  possible.  Failing that, if random access iterators are passed, then the
 788:/Library/DaisyToolchain/0.2.0/arm/arm-none-eabi/include/c++/10.3.1/bits/stl_algobase.h ****    *  loop count will be known (and therefore a candidate for compiler
 789:/Library/DaisyToolchain/0.2.0/arm/arm-none-eabi/include/c++/10.3.1/bits/stl_algobase.h ****    *  optimizations such as unrolling).
 790:/Library/DaisyToolchain/0.2.0/arm/arm-none-eabi/include/c++/10.3.1/bits/stl_algobase.h ****    *
 791:/Library/DaisyToolchain/0.2.0/arm/arm-none-eabi/include/c++/10.3.1/bits/stl_algobase.h ****    *  Result may not be in the range (first,last].  Use copy instead.  Note
 792:/Library/DaisyToolchain/0.2.0/arm/arm-none-eabi/include/c++/10.3.1/bits/stl_algobase.h ****    *  that the start of the output range may overlap [first,last).
 793:/Library/DaisyToolchain/0.2.0/arm/arm-none-eabi/include/c++/10.3.1/bits/stl_algobase.h ****   */
 794:/Library/DaisyToolchain/0.2.0/arm/arm-none-eabi/include/c++/10.3.1/bits/stl_algobase.h ****   template<typename _BI1, typename _BI2>
 795:/Library/DaisyToolchain/0.2.0/arm/arm-none-eabi/include/c++/10.3.1/bits/stl_algobase.h ****     _GLIBCXX20_CONSTEXPR
 796:/Library/DaisyToolchain/0.2.0/arm/arm-none-eabi/include/c++/10.3.1/bits/stl_algobase.h ****     inline _BI2
 797:/Library/DaisyToolchain/0.2.0/arm/arm-none-eabi/include/c++/10.3.1/bits/stl_algobase.h ****     copy_backward(_BI1 __first, _BI1 __last, _BI2 __result)
 2097              		.loc 20 797 5 is_stmt 1 view .LVU542
 2098              	.LBB764:
 2099              	.LBI764:
 745:/Library/DaisyToolchain/0.2.0/arm/arm-none-eabi/include/c++/10.3.1/bits/stl_algobase.h ****     {
 2100              		.loc 20 745 5 view .LVU543
 2101              	.LBB765:
 2102              	.LBI765:
 717:/Library/DaisyToolchain/0.2.0/arm/arm-none-eabi/include/c++/10.3.1/bits/stl_algobase.h ****     { return std::__copy_move_backward_a2<_IsMove>(__first, __last, __result); }
 2103              		.loc 20 717 5 view .LVU544
 2104              	.LBB766:
 2105              	.LBI766:
 699:/Library/DaisyToolchain/0.2.0/arm/arm-none-eabi/include/c++/10.3.1/bits/stl_algobase.h ****     {
 2106              		.loc 20 699 5 view .LVU545
 2107              	.LBB767:
 2108              	.LBB768:
 2109              	.LBI768:
 680:/Library/DaisyToolchain/0.2.0/arm/arm-none-eabi/include/c++/10.3.1/bits/stl_algobase.h **** 	{
 2110              		.loc 20 680 2 view .LVU546
 2111              	.LBB769:
 690:/Library/DaisyToolchain/0.2.0/arm/arm-none-eabi/include/c++/10.3.1/bits/stl_algobase.h **** 	    __builtin_memmove(__result - _Num, __first, sizeof(_Tp) * _Num);
ARM GAS  /var/folders/s6/2bsynnl15rj0bwtb9pgx4dc00000gn/T//cc76hY55.s 			page 153


 2112              		.loc 20 690 4 is_stmt 0 view .LVU547
 2113 02ac 4945     		cmp	r1, r9
 2114 02ae D5D0     		beq	.L102
 689:/Library/DaisyToolchain/0.2.0/arm/arm-none-eabi/include/c++/10.3.1/bits/stl_algobase.h **** 	  if (_Num)
 2115              		.loc 20 689 34 view .LVU548
 2116 02b0 A9EB0102 		sub	r2, r9, r1
 2117              	.LVL161:
 691:/Library/DaisyToolchain/0.2.0/arm/arm-none-eabi/include/c++/10.3.1/bits/stl_algobase.h **** 	  return __result - _Num;
 2118              		.loc 20 691 33 view .LVU549
 2119 02b4 0AF10400 		add	r0, r10, #4
 2120 02b8 801A     		subs	r0, r0, r2
 691:/Library/DaisyToolchain/0.2.0/arm/arm-none-eabi/include/c++/10.3.1/bits/stl_algobase.h **** 	  return __result - _Num;
 2121              		.loc 20 691 23 view .LVU550
 2122 02ba 5844     		add	r0, r0, fp
 2123 02bc FFF7FEFF 		bl	memmove
 2124              	.LVL162:
 691:/Library/DaisyToolchain/0.2.0/arm/arm-none-eabi/include/c++/10.3.1/bits/stl_algobase.h **** 	  return __result - _Num;
 2125              		.loc 20 691 23 view .LVU551
 2126 02c0 CCE7     		b	.L102
 2127              	.LVL163:
 2128              	.L142:
 691:/Library/DaisyToolchain/0.2.0/arm/arm-none-eabi/include/c++/10.3.1/bits/stl_algobase.h **** 	  return __result - _Num;
 2129              		.loc 20 691 23 view .LVU552
 2130              	.LBE769:
 2131              	.LBE768:
 2132              	.LBE767:
 2133              	.LBE766:
 2134              	.LBE765:
 2135              	.LBE764:
 2136              	.LBE763:
 2137              	.LBB770:
 2138              	.LBB755:
 2139              	.LBB729:
 2140              	.LBB727:
 2141              	.LBB723:
 2142              	.LBB721:
 112:/Library/DaisyToolchain/0.2.0/arm/arm-none-eabi/include/c++/10.3.1/ext/new_allocator.h **** 
 2143              		.loc 16 112 26 view .LVU553
 2144 02c2 FFF7FEFF 		bl	_ZSt17__throw_bad_allocv
 2145              	.LVL164:
 2146              	.L139:
 112:/Library/DaisyToolchain/0.2.0/arm/arm-none-eabi/include/c++/10.3.1/ext/new_allocator.h **** 
 2147              		.loc 16 112 26 view .LVU554
 2148              	.LBE721:
 2149              	.LBE723:
 2150              	.LBE727:
 2151              	.LBE729:
 2152              	.LBE755:
 2153              	.LBE770:
 2154              	.LBE777:
 2155              	.LBE778:
 2156              	.LBE779:
 2157              	.LBE780:
 2158              	.LBE798:
 490:/Library/DaisyToolchain/0.2.0/arm/arm-none-eabi/include/c++/10.3.1/bits/deque.tcc **** 	      __N("cannot create std::deque larger than max_size()"));
 2159              		.loc 18 490 24 view .LVU555
 2160 02c6 1848     		ldr	r0, .L143+92
ARM GAS  /var/folders/s6/2bsynnl15rj0bwtb9pgx4dc00000gn/T//cc76hY55.s 			page 154


 2161 02c8 FFF7FEFF 		bl	_ZSt20__throw_length_errorPKc
 2162              	.LVL165:
 2163              	.L144:
 2164              		.align	2
 2165              	.L143:
 2166 02cc 00000000 		.word	currentState
 2167 02d0 00000000 		.word	button2
 2168 02d4 00000000 		.word	.LANCHOR3
 2169 02d8 00000000 		.word	.LC4
 2170 02dc 00000000 		.word	button1
 2171 02e0 00000000 		.word	currentOption
 2172 02e4 00000000 		.word	.LANCHOR7
 2173 02e8 D8000000 		.word	.LC13
 2174 02ec 00000000 		.word	buttonC
 2175 02f0 00000000 		.word	buttonDm
 2176 02f4 00000000 		.word	buttonEm
 2177 02f8 00000000 		.word	buttonF
 2178 02fc 00000000 		.word	buttonG
 2179 0300 00000000 		.word	buttonAm
 2180 0304 00000000 		.word	buttonBdim
 2181 0308 00000000 		.word	.LANCHOR0
 2182 030c 90000000 		.word	.LC11
 2183 0310 18000000 		.word	.LC5
 2184 0314 2C000000 		.word	.LC6
 2185 0318 40000000 		.word	.LC7
 2186 031c 54000000 		.word	.LC8
 2187 0320 68000000 		.word	.LC9
 2188 0324 7C000000 		.word	.LC10
 2189 0328 A8000000 		.word	.LC12
 2190 032c 00000000 		.word	stateStack
 2191              	.LBE800:
 2192              	.LBE802:
 2193              	.LBE806:
 2194              	.LBE810:
 2195              	.LBE827:
 2196              	.LBE832:
 2197              		.cfi_endproc
 2198              	.LFE5022:
 2200              		.section	.text._ZN7SpiritsD0Ev,"axG",%progbits,_ZN7SpiritsD5Ev,comdat
 2201              		.align	1
 2202              		.p2align 2,,3
 2203              		.weak	_ZN7SpiritsD0Ev
 2204              		.syntax unified
 2205              		.thumb
 2206              		.thumb_func
 2208              	_ZN7SpiritsD0Ev:
 2209              	.LVL166:
 2210              	.LFB5667:
 2211              		.loc 9 5 7 is_stmt 1 view -0
 2212              		.cfi_startproc
 2213              		@ args = 0, pretend = 0, frame = 0
 2214              		@ frame_needed = 0, uses_anonymous_args = 0
 2215              	.LBB833:
 2216              	.LBB834:
 2217              		.loc 9 5 7 is_stmt 0 view .LVU557
 2218 0000 064B     		ldr	r3, .L147
 2219              	.LBE834:
ARM GAS  /var/folders/s6/2bsynnl15rj0bwtb9pgx4dc00000gn/T//cc76hY55.s 			page 155


 2220              	.LBE833:
 2221 0002 10B5     		push	{r4, lr}
 2222              		.cfi_def_cfa_offset 8
 2223              		.cfi_offset 4, -8
 2224              		.cfi_offset 14, -4
 2225              		.loc 9 5 7 view .LVU558
 2226 0004 0446     		mov	r4, r0
 2227              	.LVL167:
 2228              	.LBB838:
 2229              	.LBI833:
 2230              		.loc 9 5 7 is_stmt 1 view .LVU559
 2231              	.LBB837:
 2232 0006 0360     		str	r3, [r0]
 2233              	.LVL168:
 2234              	.LBB835:
 2235              	.LBI835:
 2236              		.loc 10 43 5 view .LVU560
 2237              		.loc 10 43 5 is_stmt 0 view .LVU561
 2238              	.LBE835:
 2239              	.LBB836:
 2240              	.LBI836:
 2241              		.loc 11 94 12 is_stmt 1 view .LVU562
 2242              		.loc 11 94 12 is_stmt 0 view .LVU563
 2243              	.LBE836:
 2244              		.loc 9 5 7 view .LVU564
 2245 0008 FFF7FEFF 		bl	_ZN5SoundD2Ev
 2246              	.LVL169:
 2247              		.loc 9 5 7 view .LVU565
 2248              	.LBE837:
 2249              	.LBE838:
 2250 000c 40F20441 		movw	r1, #1028
 2251 0010 2046     		mov	r0, r4
 2252 0012 FFF7FEFF 		bl	_ZdlPvj
 2253              	.LVL170:
 2254 0016 2046     		mov	r0, r4
 2255 0018 10BD     		pop	{r4, pc}
 2256              	.LVL171:
 2257              	.L148:
 2258              		.loc 9 5 7 view .LVU566
 2259 001a 00BF     		.align	2
 2260              	.L147:
 2261 001c 08000000 		.word	_ZTV7Spirits+8
 2262              		.cfi_endproc
 2263              	.LFE5667:
 2265              		.section	.text.startup._GLOBAL__sub_I_spirits,"ax",%progbits
 2266              		.align	1
 2267              		.p2align 2,,3
 2268              		.syntax unified
 2269              		.thumb
 2270              		.thumb_func
 2272              	_GLOBAL__sub_I_spirits:
 2273              	.LFB5668:
 226:TestTFT.cpp   ****     }
 227:TestTFT.cpp   **** }
 2274              		.loc 8 227 1 is_stmt 1 view -0
 2275              		.cfi_startproc
 2276              		@ args = 0, pretend = 0, frame = 0
ARM GAS  /var/folders/s6/2bsynnl15rj0bwtb9pgx4dc00000gn/T//cc76hY55.s 			page 156


 2277              		@ frame_needed = 0, uses_anonymous_args = 0
 2278              	.LBB911:
 2279              	.LBI911:
 2280              		.loc 8 227 1 view .LVU568
 2281              	.LVL172:
 2282              		.loc 8 227 1 is_stmt 0 view .LVU569
 2283              	.LBE911:
 2284 0000 38B5     		push	{r3, r4, r5, lr}
 2285              		.cfi_def_cfa_offset 16
 2286              		.cfi_offset 3, -16
 2287              		.cfi_offset 4, -12
 2288              		.cfi_offset 5, -8
 2289              		.cfi_offset 14, -4
 2290              	.LBB1053:
 2291              	.LBB912:
  26:TestTFT.cpp   **** Spirits sound2;
 2292              		.loc 8 26 9 view .LVU570
 2293 0002 3448     		ldr	r0, .L157
 2294 0004 FFF7FEFF 		bl	_ZN7SpiritsC1Ev
 2295              	.LVL173:
 2296 0008 334A     		ldr	r2, .L157+4
 2297 000a 3449     		ldr	r1, .L157+8
 2298 000c 3148     		ldr	r0, .L157
 2299 000e FFF7FEFF 		bl	__aeabi_atexit
 2300              	.LVL174:
  27:TestTFT.cpp   **** Spirits option3Sound;
 2301              		.loc 8 27 9 view .LVU571
 2302 0012 3348     		ldr	r0, .L157+12
 2303 0014 FFF7FEFF 		bl	_ZN7SpiritsC1Ev
 2304              	.LVL175:
 2305 0018 2F4A     		ldr	r2, .L157+4
 2306 001a 3049     		ldr	r1, .L157+8
 2307 001c 3048     		ldr	r0, .L157+12
 2308 001e FFF7FEFF 		bl	__aeabi_atexit
 2309              	.LVL176:
  28:TestTFT.cpp   **** 
 2310              		.loc 8 28 9 view .LVU572
 2311 0022 3048     		ldr	r0, .L157+16
 2312 0024 FFF7FEFF 		bl	_ZN7SpiritsC1Ev
 2313              	.LVL177:
 2314 0028 2B4A     		ldr	r2, .L157+4
 2315 002a 2C49     		ldr	r1, .L157+8
 2316 002c 2D48     		ldr	r0, .L157+16
 2317 002e FFF7FEFF 		bl	__aeabi_atexit
 2318              	.LVL178:
 2319              	.LBB913:
 2320              	.LBI913:
  21:./libDaisy/src/daisy_seed.h ****     ~DaisySeed() {}
 2321              		.loc 3 21 5 is_stmt 1 view .LVU573
 2322              	.LBB914:
 2323              	.LBB915:
 2324              	.LBI915:
 2325              		.file 21 "./libDaisy/src/per/qspi.h"
   1:./libDaisy/src/per/qspi.h **** #ifndef DSY_QSPI
   2:./libDaisy/src/per/qspi.h **** #define DSY_QSPI /**< Macro */
   3:./libDaisy/src/per/qspi.h **** 
   4:./libDaisy/src/per/qspi.h **** #ifndef UNIT_TEST // for unit tests, a dummy implementation
ARM GAS  /var/folders/s6/2bsynnl15rj0bwtb9pgx4dc00000gn/T//cc76hY55.s 			page 157


   5:./libDaisy/src/per/qspi.h **** 
   6:./libDaisy/src/per/qspi.h **** #include <cstdint>
   7:./libDaisy/src/per/qspi.h **** #include "daisy_core.h" // Added for dsy_gpio_pin typedef
   8:./libDaisy/src/per/qspi.h **** 
   9:./libDaisy/src/per/qspi.h **** #define DSY_QSPI_TEXT       \
  10:./libDaisy/src/per/qspi.h ****     __attribute__((section( \
  11:./libDaisy/src/per/qspi.h ****         ".qspiflash_text"))) /**< used for reading memory in memory_mapped mode. */
  12:./libDaisy/src/per/qspi.h **** #define DSY_QSPI_DATA       \
  13:./libDaisy/src/per/qspi.h ****     __attribute__((section( \
  14:./libDaisy/src/per/qspi.h ****         ".qspiflash_data"))) /**< used for reading memory in memory_mapped mode. */
  15:./libDaisy/src/per/qspi.h **** #define DSY_QSPI_BSS        \
  16:./libDaisy/src/per/qspi.h ****     __attribute__((section( \
  17:./libDaisy/src/per/qspi.h ****         ".qspiflash_bss"))) /**< used for reading memory in memory_mapped mode. */
  18:./libDaisy/src/per/qspi.h **** 
  19:./libDaisy/src/per/qspi.h **** namespace daisy
  20:./libDaisy/src/per/qspi.h **** {
  21:./libDaisy/src/per/qspi.h **** /** @addtogroup serial
  22:./libDaisy/src/per/qspi.h **** @{
  23:./libDaisy/src/per/qspi.h **** */
  24:./libDaisy/src/per/qspi.h **** 
  25:./libDaisy/src/per/qspi.h **** /** 
  26:./libDaisy/src/per/qspi.h ****  Driver for QSPI peripheral to interface with external flash memory. \n 
  27:./libDaisy/src/per/qspi.h ****     Currently supported QSPI Devices: \n 
  28:./libDaisy/src/per/qspi.h ****     * IS25LP080D
  29:./libDaisy/src/per/qspi.h **** */
  30:./libDaisy/src/per/qspi.h **** class QSPIHandle
  31:./libDaisy/src/per/qspi.h **** {
  32:./libDaisy/src/per/qspi.h ****   public:
  33:./libDaisy/src/per/qspi.h ****     enum Result
  34:./libDaisy/src/per/qspi.h ****     {
  35:./libDaisy/src/per/qspi.h ****         OK = 0,
  36:./libDaisy/src/per/qspi.h ****         ERR
  37:./libDaisy/src/per/qspi.h ****     };
  38:./libDaisy/src/per/qspi.h **** 
  39:./libDaisy/src/per/qspi.h ****     /** Indicates the current status of the module. 
  40:./libDaisy/src/per/qspi.h ****          *  Warnings are indicated by a leading W.
  41:./libDaisy/src/per/qspi.h ****          *  Errors are indicated by a leading E and cause an immediate exit.
  42:./libDaisy/src/per/qspi.h ****          * 
  43:./libDaisy/src/per/qspi.h ****          *  \param GOOD - No errors have been reported.
  44:./libDaisy/src/per/qspi.h ****          *  \param E_HAL_ERROR - HAL code did not return HAL_OK.
  45:./libDaisy/src/per/qspi.h ****          *  \param E_SWITCHING_MODES - An error was encountered while switching QSPI peripheral mod
  46:./libDaisy/src/per/qspi.h ****          *  \param E_INVALID_MODE - QSPI should not be written to while the program is executing fr
  47:./libDaisy/src/per/qspi.h ****          */
  48:./libDaisy/src/per/qspi.h ****     enum Status
  49:./libDaisy/src/per/qspi.h ****     {
  50:./libDaisy/src/per/qspi.h ****         GOOD = 0,
  51:./libDaisy/src/per/qspi.h ****         E_HAL_ERROR,
  52:./libDaisy/src/per/qspi.h ****         E_SWITCHING_MODES,
  53:./libDaisy/src/per/qspi.h ****         E_INVALID_MODE,
  54:./libDaisy/src/per/qspi.h ****     };
  55:./libDaisy/src/per/qspi.h **** 
  56:./libDaisy/src/per/qspi.h ****     /** Configuration structure for interfacing with QSPI Driver */
  57:./libDaisy/src/per/qspi.h ****     struct Config
  58:./libDaisy/src/per/qspi.h ****     {
  59:./libDaisy/src/per/qspi.h ****         /** Flash Devices supported. (Both of these are more-or-less the same, just different sizes
  60:./libDaisy/src/per/qspi.h ****         enum Device
  61:./libDaisy/src/per/qspi.h ****         {
ARM GAS  /var/folders/s6/2bsynnl15rj0bwtb9pgx4dc00000gn/T//cc76hY55.s 			page 158


  62:./libDaisy/src/per/qspi.h ****             IS25LP080D,  /**< & */
  63:./libDaisy/src/per/qspi.h ****             IS25LP064A,  /**< & */
  64:./libDaisy/src/per/qspi.h ****             DEVICE_LAST, /**< & */
  65:./libDaisy/src/per/qspi.h ****         };
  66:./libDaisy/src/per/qspi.h **** 
  67:./libDaisy/src/per/qspi.h ****         /** 
  68:./libDaisy/src/per/qspi.h ****         Modes of operation.
  69:./libDaisy/src/per/qspi.h ****         Memory Mapped mode: QSPI configured so that the QSPI can be
  70:./libDaisy/src/per/qspi.h ****         read from starting address 0x90000000. Writing is not
  71:./libDaisy/src/per/qspi.h ****         possible in this mode. \n 
  72:./libDaisy/src/per/qspi.h ****         Indirect Polling mode: Device driver enabled. 
  73:./libDaisy/src/per/qspi.h ****         */
  74:./libDaisy/src/per/qspi.h ****         enum Mode
  75:./libDaisy/src/per/qspi.h ****         {
  76:./libDaisy/src/per/qspi.h ****             MEMORY_MAPPED,    /**< & */
  77:./libDaisy/src/per/qspi.h ****             INDIRECT_POLLING, /**< & */
  78:./libDaisy/src/per/qspi.h ****             MODE_LAST,
  79:./libDaisy/src/per/qspi.h ****         };
  80:./libDaisy/src/per/qspi.h **** 
  81:./libDaisy/src/per/qspi.h ****         //SCK,  CE# (active low)
  82:./libDaisy/src/per/qspi.h ****         struct
  83:./libDaisy/src/per/qspi.h ****         {
  84:./libDaisy/src/per/qspi.h ****             dsy_gpio_pin io0; /**< & */
  85:./libDaisy/src/per/qspi.h ****             dsy_gpio_pin io1; /**< & */
  86:./libDaisy/src/per/qspi.h ****             dsy_gpio_pin io2; /**< & */
  87:./libDaisy/src/per/qspi.h ****             dsy_gpio_pin io3; /**< & */
  88:./libDaisy/src/per/qspi.h ****             dsy_gpio_pin clk; /**< & */
  89:./libDaisy/src/per/qspi.h ****             dsy_gpio_pin ncs; /**< & */
  90:./libDaisy/src/per/qspi.h ****         } pin_config;
  91:./libDaisy/src/per/qspi.h **** 
  92:./libDaisy/src/per/qspi.h ****         Device device;
  93:./libDaisy/src/per/qspi.h ****         Mode   mode;
  94:./libDaisy/src/per/qspi.h ****     };
  95:./libDaisy/src/per/qspi.h **** 
  96:./libDaisy/src/per/qspi.h ****     /** 
  97:./libDaisy/src/per/qspi.h ****         Initializes QSPI peripheral, and Resets, and prepares memory for access.
  98:./libDaisy/src/per/qspi.h ****         \param config should be populated with the mode, device and pin_config before calling this 
  99:./libDaisy/src/per/qspi.h ****         \return Result::OK or Result::ERR
 100:./libDaisy/src/per/qspi.h ****         */
 101:./libDaisy/src/per/qspi.h ****     Result Init(const Config& config);
 102:./libDaisy/src/per/qspi.h **** 
 103:./libDaisy/src/per/qspi.h ****     /** Returns the current config. */
 104:./libDaisy/src/per/qspi.h ****     const Config& GetConfig() const;
 105:./libDaisy/src/per/qspi.h **** 
 106:./libDaisy/src/per/qspi.h ****     // Couldn't this just be called before anything else in init? That
 107:./libDaisy/src/per/qspi.h ****     // would make manually calling it unnecessary.
 108:./libDaisy/src/per/qspi.h ****     /** 
 109:./libDaisy/src/per/qspi.h ****         Deinitializes the peripheral
 110:./libDaisy/src/per/qspi.h ****         This should be called before reinitializing QSPI in a different mode.
 111:./libDaisy/src/per/qspi.h ****         \return Result::OK or Result::ERR
 112:./libDaisy/src/per/qspi.h ****         */
 113:./libDaisy/src/per/qspi.h ****     Result DeInit();
 114:./libDaisy/src/per/qspi.h **** 
 115:./libDaisy/src/per/qspi.h ****     /** 
 116:./libDaisy/src/per/qspi.h ****         Writes a single page to to the specified address on the QSPI chip.
 117:./libDaisy/src/per/qspi.h ****         For IS25LP*, page size is 256 bytes.
 118:./libDaisy/src/per/qspi.h ****         \param address Address to write to
ARM GAS  /var/folders/s6/2bsynnl15rj0bwtb9pgx4dc00000gn/T//cc76hY55.s 			page 159


 119:./libDaisy/src/per/qspi.h ****         \param size Buffer size
 120:./libDaisy/src/per/qspi.h ****         \param buffer Buffer to write
 121:./libDaisy/src/per/qspi.h ****         \return Result::OK or Result::ERR
 122:./libDaisy/src/per/qspi.h ****         */
 123:./libDaisy/src/per/qspi.h ****     Result WritePage(uint32_t address, uint32_t size, uint8_t* buffer);
 124:./libDaisy/src/per/qspi.h **** 
 125:./libDaisy/src/per/qspi.h ****     /** 
 126:./libDaisy/src/per/qspi.h ****         Writes data in buffer to to the QSPI. Starting at address to address+size 
 127:./libDaisy/src/per/qspi.h ****         \param address Address to write to
 128:./libDaisy/src/per/qspi.h ****         \param size Buffer size
 129:./libDaisy/src/per/qspi.h ****         \param buffer Buffer to write
 130:./libDaisy/src/per/qspi.h ****         \return Result::OK or Result::ERR
 131:./libDaisy/src/per/qspi.h ****         */
 132:./libDaisy/src/per/qspi.h ****     Result Write(uint32_t address, uint32_t size, uint8_t* buffer);
 133:./libDaisy/src/per/qspi.h **** 
 134:./libDaisy/src/per/qspi.h ****     /** 
 135:./libDaisy/src/per/qspi.h ****         Erases the area specified on the chip.
 136:./libDaisy/src/per/qspi.h ****         Erasures will happen by 4K, 32K or 64K increments.
 137:./libDaisy/src/per/qspi.h ****         Smallest erase possible is 4kB at a time. (on IS25LP*)
 138:./libDaisy/src/per/qspi.h ****         \param start_addr Address to begin erasing from
 139:./libDaisy/src/per/qspi.h ****         \param end_addr  Address to stop erasing at
 140:./libDaisy/src/per/qspi.h ****         \return Result::OK or Result::ERR
 141:./libDaisy/src/per/qspi.h ****         */
 142:./libDaisy/src/per/qspi.h ****     Result Erase(uint32_t start_addr, uint32_t end_addr);
 143:./libDaisy/src/per/qspi.h **** 
 144:./libDaisy/src/per/qspi.h ****     /**  
 145:./libDaisy/src/per/qspi.h ****          Erases a single sector of the chip.  
 146:./libDaisy/src/per/qspi.h ****         TODO: Document the size of this function. 
 147:./libDaisy/src/per/qspi.h ****         \param address Address of sector to erase
 148:./libDaisy/src/per/qspi.h ****         \return Result::OK or Result::ERR
 149:./libDaisy/src/per/qspi.h ****         */
 150:./libDaisy/src/per/qspi.h ****     Result EraseSector(uint32_t address);
 151:./libDaisy/src/per/qspi.h **** 
 152:./libDaisy/src/per/qspi.h ****     /** Returns the current class status. Useful for debugging.
 153:./libDaisy/src/per/qspi.h ****      *  \returns Status
 154:./libDaisy/src/per/qspi.h ****      */
 155:./libDaisy/src/per/qspi.h ****     Status GetStatus();
 156:./libDaisy/src/per/qspi.h **** 
 157:./libDaisy/src/per/qspi.h ****     /** Returns a pointer to the actual memory used 
 158:./libDaisy/src/per/qspi.h ****      *  The memory at this address is read-only
 159:./libDaisy/src/per/qspi.h ****      *  to write to it use the Write function.
 160:./libDaisy/src/per/qspi.h ****      * 
 161:./libDaisy/src/per/qspi.h ****      *  \param offset returns the pointer starting this 
 162:./libDaisy/src/per/qspi.h ****      *                many bytes into the memory
 163:./libDaisy/src/per/qspi.h ****     */
 164:./libDaisy/src/per/qspi.h ****     void* GetData(uint32_t offset = 0);
 165:./libDaisy/src/per/qspi.h **** 
 166:./libDaisy/src/per/qspi.h ****     QSPIHandle() : pimpl_(nullptr) {}
 2326              		.loc 21 166 5 view .LVU574
 2327              	.LBB916:
 2328              	.LBB917:
 2329              		.loc 21 166 34 is_stmt 0 view .LVU575
 2330 0032 0023     		movs	r3, #0
 2331 0034 2C48     		ldr	r0, .L157+20
 2332              	.LBE917:
 2333              	.LBE916:
 2334              	.LBE915:
ARM GAS  /var/folders/s6/2bsynnl15rj0bwtb9pgx4dc00000gn/T//cc76hY55.s 			page 160


 2335              	.LBE914:
 2336              	.LBE913:
  30:TestTFT.cpp   **** int projectBPM = 120;
 2337              		.loc 8 30 11 view .LVU576
 2338 0036 284A     		ldr	r2, .L157+4
 2339 0038 2C49     		ldr	r1, .L157+24
 2340              	.LBB934:
 2341              	.LBB933:
 2342              	.LBB920:
 2343              	.LBB919:
 2344              	.LBB918:
 2345              		.loc 21 166 34 view .LVU577
 2346 003a 0360     		str	r3, [r0]
 2347              	.LVL179:
 2348              		.loc 21 166 34 view .LVU578
 2349              	.LBE918:
 2350              	.LBE919:
 2351              	.LBE920:
 2352              	.LBB921:
 2353              	.LBI921:
  95:./libDaisy/src/hid/audio.h ****     ~AudioHandle() {}
 2354              		.loc 7 95 5 is_stmt 1 view .LVU579
 2355              	.LBB922:
 2356              	.LBB923:
  95:./libDaisy/src/hid/audio.h ****     ~AudioHandle() {}
 2357              		.loc 7 95 35 is_stmt 0 view .LVU580
 2358 003c 4361     		str	r3, [r0, #20]
 2359              	.LVL180:
  95:./libDaisy/src/hid/audio.h ****     ~AudioHandle() {}
 2360              		.loc 7 95 35 view .LVU581
 2361              	.LBE923:
 2362              	.LBE922:
 2363              	.LBE921:
 2364              	.LBB924:
 2365              	.LBI924:
 109:./libDaisy/src/per/adc.h ****     ~AdcHandle() {}
 2366              		.loc 6 109 5 is_stmt 1 view .LVU582
 109:./libDaisy/src/per/adc.h ****     ~AdcHandle() {}
 2367              		.loc 6 109 5 is_stmt 0 view .LVU583
 2368              	.LBE924:
 2369              	.LBB925:
 2370              	.LBI925:
 2371              		.file 22 "./libDaisy/src/per/dac.h"
   1:./libDaisy/src/per/dac.h **** #pragma once
   2:./libDaisy/src/per/dac.h **** #ifndef DSY_DAC_H
   3:./libDaisy/src/per/dac.h **** #define DSY_DAC_H
   4:./libDaisy/src/per/dac.h **** 
   5:./libDaisy/src/per/dac.h **** #include "daisy_core.h"
   6:./libDaisy/src/per/dac.h **** 
   7:./libDaisy/src/per/dac.h **** namespace daisy
   8:./libDaisy/src/per/dac.h **** {
   9:./libDaisy/src/per/dac.h **** /** @brief DAC handle for Built-in DAC Peripheral 
  10:./libDaisy/src/per/dac.h ****  *  @ingroup per_analog
  11:./libDaisy/src/per/dac.h ****  ** 
  12:./libDaisy/src/per/dac.h ****  ** For now only Normal Mode is supported,
  13:./libDaisy/src/per/dac.h ****  ** Sample and hold mode provides reduced power consumption, but requires a bit more setup.
  14:./libDaisy/src/per/dac.h ****  **
ARM GAS  /var/folders/s6/2bsynnl15rj0bwtb9pgx4dc00000gn/T//cc76hY55.s 			page 161


  15:./libDaisy/src/per/dac.h ****  ** For now connecting the DAC through other internal peripherals is also not supported.
  16:./libDaisy/src/per/dac.h ****  **
  17:./libDaisy/src/per/dac.h ****  ** Since the DAC channels have dedicated pins we don't need to pass in a pin config like with
  18:./libDaisy/src/per/dac.h ****  ** other modules. However, it is still important to not try to use the DAC pins for anything else.
  19:./libDaisy/src/per/dac.h ****  ** DAC Channel 1 is on PA4, and DAC Channel 2 is on PA5
  20:./libDaisy/src/per/dac.h ****  ***/
  21:./libDaisy/src/per/dac.h **** class DacHandle
  22:./libDaisy/src/per/dac.h **** {
  23:./libDaisy/src/per/dac.h ****   public:
  24:./libDaisy/src/per/dac.h ****     /** Return Values for the DacHandle class */
  25:./libDaisy/src/per/dac.h ****     enum class Result
  26:./libDaisy/src/per/dac.h ****     {
  27:./libDaisy/src/per/dac.h ****         OK,
  28:./libDaisy/src/per/dac.h ****         ERR,
  29:./libDaisy/src/per/dac.h ****     };
  30:./libDaisy/src/per/dac.h **** 
  31:./libDaisy/src/per/dac.h ****     /** Selects which channel(s) will be configured for use. */
  32:./libDaisy/src/per/dac.h ****     enum class Channel
  33:./libDaisy/src/per/dac.h ****     {
  34:./libDaisy/src/per/dac.h ****         ONE,
  35:./libDaisy/src/per/dac.h ****         TWO,
  36:./libDaisy/src/per/dac.h ****         BOTH,
  37:./libDaisy/src/per/dac.h ****     };
  38:./libDaisy/src/per/dac.h **** 
  39:./libDaisy/src/per/dac.h ****     /** Sets the Mode for the DAC channels.
  40:./libDaisy/src/per/dac.h ****      **
  41:./libDaisy/src/per/dac.h ****      ** Polling mode uses the blocking mode to transmit a single value at a time.
  42:./libDaisy/src/per/dac.h ****      **
  43:./libDaisy/src/per/dac.h ****      ** DMA mode uses a buffer, and periodically transmits it triggering a 
  44:./libDaisy/src/per/dac.h ****      ** callback to fill the buffer when it is ready for more samples.
  45:./libDaisy/src/per/dac.h ****      ***/
  46:./libDaisy/src/per/dac.h ****     enum class Mode
  47:./libDaisy/src/per/dac.h ****     {
  48:./libDaisy/src/per/dac.h ****         POLLING,
  49:./libDaisy/src/per/dac.h ****         DMA,
  50:./libDaisy/src/per/dac.h ****     };
  51:./libDaisy/src/per/dac.h **** 
  52:./libDaisy/src/per/dac.h ****     /** Sets the number of bits per sample transmitted out of the DAC.
  53:./libDaisy/src/per/dac.h ****      ** The output range will be: 0V - VDDA
  54:./libDaisy/src/per/dac.h ****      ** The resolution will be roughly: bitdepth / (VDDA - 0V) 
  55:./libDaisy/src/per/dac.h ****      ***/
  56:./libDaisy/src/per/dac.h ****     enum class BitDepth
  57:./libDaisy/src/per/dac.h ****     {
  58:./libDaisy/src/per/dac.h ****         BITS_8,
  59:./libDaisy/src/per/dac.h ****         BITS_12
  60:./libDaisy/src/per/dac.h ****     };
  61:./libDaisy/src/per/dac.h **** 
  62:./libDaisy/src/per/dac.h ****     /** Sets whether the DAC output is buffered for higher drive ability. */
  63:./libDaisy/src/per/dac.h ****     enum class BufferState
  64:./libDaisy/src/per/dac.h ****     {
  65:./libDaisy/src/per/dac.h ****         ENABLED,
  66:./libDaisy/src/per/dac.h ****         DISABLED,
  67:./libDaisy/src/per/dac.h ****     };
  68:./libDaisy/src/per/dac.h **** 
  69:./libDaisy/src/per/dac.h ****     /** Configuration structure for initializing the DAC structure. */
  70:./libDaisy/src/per/dac.h ****     struct Config
  71:./libDaisy/src/per/dac.h ****     {
ARM GAS  /var/folders/s6/2bsynnl15rj0bwtb9pgx4dc00000gn/T//cc76hY55.s 			page 162


  72:./libDaisy/src/per/dac.h ****         /** Target Samplerate in Hz used to configure the internal 
  73:./libDaisy/src/per/dac.h ****          ** timebase for DMA mode. Does nothing in POLLING mode.
  74:./libDaisy/src/per/dac.h ****          ** If the value is 0 at Init time this will default to 48000Hz 
  75:./libDaisy/src/per/dac.h ****          ** otherwise the driver will attempt meet the target.*/
  76:./libDaisy/src/per/dac.h ****         uint32_t target_samplerate;
  77:./libDaisy/src/per/dac.h **** 
  78:./libDaisy/src/per/dac.h ****         Channel     chn;
  79:./libDaisy/src/per/dac.h ****         Mode        mode;
  80:./libDaisy/src/per/dac.h ****         BitDepth    bitdepth;
  81:./libDaisy/src/per/dac.h ****         BufferState buff_state;
  82:./libDaisy/src/per/dac.h ****     };
  83:./libDaisy/src/per/dac.h **** 
  84:./libDaisy/src/per/dac.h ****     DacHandle() : pimpl_(nullptr) {}
 2372              		.loc 22 84 5 is_stmt 1 view .LVU584
 2373              	.LBB926:
 2374              	.LBB927:
 2375              		.loc 22 84 33 is_stmt 0 view .LVU585
 2376 003e 0362     		str	r3, [r0, #32]
 2377              	.LVL181:
 2378              		.loc 22 84 33 view .LVU586
 2379              	.LBE927:
 2380              	.LBE926:
 2381              	.LBE925:
 2382              	.LBB928:
 2383              	.LBI928:
  40:./libDaisy/src/hid/usb.h **** 
 2384              		.loc 5 40 5 is_stmt 1 view .LVU587
  40:./libDaisy/src/hid/usb.h **** 
 2385              		.loc 5 40 5 is_stmt 0 view .LVU588
 2386              	.LBE928:
 2387              	.LBB929:
 2388              	.LBI929:
  96:./libDaisy/src/sys/system.h ****     ~System() {}
 2389              		.loc 4 96 5 is_stmt 1 view .LVU589
  96:./libDaisy/src/sys/system.h ****     ~System() {}
 2390              		.loc 4 96 5 is_stmt 0 view .LVU590
 2391              	.LBE929:
 2392              	.LBB930:
 2393              	.LBI930:
 2394              		.file 23 "./libDaisy/src/per/sai.h"
   1:./libDaisy/src/per/sai.h **** #pragma once
   2:./libDaisy/src/per/sai.h **** #ifndef DSY_SAI_H
   3:./libDaisy/src/per/sai.h **** #define DSY_SAI_H
   4:./libDaisy/src/per/sai.h **** 
   5:./libDaisy/src/per/sai.h **** #include "daisy_core.h"
   6:./libDaisy/src/per/sai.h **** 
   7:./libDaisy/src/per/sai.h **** namespace daisy
   8:./libDaisy/src/per/sai.h **** {
   9:./libDaisy/src/per/sai.h **** /** 
  10:./libDaisy/src/per/sai.h ****  * Support for I2S Audio Protocol with different bit-depth, samplerate options
  11:./libDaisy/src/per/sai.h ****  * Allows for master or slave, as well as freedom of selecting direction, 
  12:./libDaisy/src/per/sai.h ****  * and other behavior for each peripheral, and block.
  13:./libDaisy/src/per/sai.h ****  * 
  14:./libDaisy/src/per/sai.h ****  * DMA Transfer commands must use buffers located within non-cached memory or use cache maintenance
  15:./libDaisy/src/per/sai.h ****  * To declare an unitialized global element in the DMA memory section:
  16:./libDaisy/src/per/sai.h ****  *    int32_t DSY_DMA_BUFFER_SECTOR my_buffer[96];
  17:./libDaisy/src/per/sai.h ****  *
ARM GAS  /var/folders/s6/2bsynnl15rj0bwtb9pgx4dc00000gn/T//cc76hY55.s 			page 163


  18:./libDaisy/src/per/sai.h ****  * Callback functions will be called once per half of the buffer. In the above example, 
  19:./libDaisy/src/per/sai.h ****  * the callback function would be called once for every 48 samples.
  20:./libDaisy/src/per/sai.h ****  * 
  21:./libDaisy/src/per/sai.h ****  * Use SAI Handle like this:
  22:./libDaisy/src/per/sai.h ****  * 
  23:./libDaisy/src/per/sai.h ****  *  SaiHandle::Config sai_config;
  24:./libDaisy/src/per/sai.h ****  *  sai_config.periph          = SaiHandle::Config::Peripheral::SAI_1;
  25:./libDaisy/src/per/sai.h ****  *  sai_config.sr              = SaiHandle::Config::SampleRate::SAI_48KHZ;
  26:./libDaisy/src/per/sai.h ****  *  sai_config.bit_depth       = SaiHandle::Config::BitDepth::SAI_24BIT;
  27:./libDaisy/src/per/sai.h ****  *  sai_config.a_sync          = SaiHandle::Config::Sync::MASTER;
  28:./libDaisy/src/per/sai.h ****  *  sai_config.b_sync          = SaiHandle::Config::Sync::SLAVE;
  29:./libDaisy/src/per/sai.h ****  *  sai_config.a_dir           = SaiHandle::Config::Direction::RECEIVE;
  30:./libDaisy/src/per/sai.h ****  *  sai_config.b_dir           = SaiHandle::Config::Direction::TRANSMIT;
  31:./libDaisy/src/per/sai.h ****  *  sai_config.pin_config.fs   = {DSY_GPIOE, 4};
  32:./libDaisy/src/per/sai.h ****  *  sai_config.pin_config.mclk = {DSY_GPIOE, 2};
  33:./libDaisy/src/per/sai.h ****  *  sai_config.pin_config.sck  = {DSY_GPIOE, 5};
  34:./libDaisy/src/per/sai.h ****  *  sai_config.pin_config.sa   = {DSY_GPIOE, 6};
  35:./libDaisy/src/per/sai.h ****  *  sai_config.pin_config.sb   = {DSY_GPIOE, 3};
  36:./libDaisy/src/per/sai.h ****  *  // Then Initialize
  37:./libDaisy/src/per/sai.h ****  *  SaiHandle sai;
  38:./libDaisy/src/per/sai.h ****  *  sai.Init(sai_config);
  39:./libDaisy/src/per/sai.h ****  *  // Now you can use it:
  40:./libDaisy/src/per/sai.h ****  *  sai.StartDma(. . .);
  41:./libDaisy/src/per/sai.h ****  */
  42:./libDaisy/src/per/sai.h **** class SaiHandle
  43:./libDaisy/src/per/sai.h **** {
  44:./libDaisy/src/per/sai.h ****   public:
  45:./libDaisy/src/per/sai.h ****     /** Contains settings for initialising an SAI Interface */
  46:./libDaisy/src/per/sai.h ****     struct Config
  47:./libDaisy/src/per/sai.h ****     {
  48:./libDaisy/src/per/sai.h ****         /** Specifies the internal peripheral to use (mapped to different hardware pins) */
  49:./libDaisy/src/per/sai.h ****         enum class Peripheral
  50:./libDaisy/src/per/sai.h ****         {
  51:./libDaisy/src/per/sai.h ****             SAI_1,
  52:./libDaisy/src/per/sai.h ****             SAI_2,
  53:./libDaisy/src/per/sai.h ****         };
  54:./libDaisy/src/per/sai.h **** 
  55:./libDaisy/src/per/sai.h ****         /** Rate at which samples will be streaming to/from the device. */
  56:./libDaisy/src/per/sai.h ****         enum class SampleRate
  57:./libDaisy/src/per/sai.h ****         {
  58:./libDaisy/src/per/sai.h ****             SAI_8KHZ,
  59:./libDaisy/src/per/sai.h ****             SAI_16KHZ,
  60:./libDaisy/src/per/sai.h ****             SAI_32KHZ,
  61:./libDaisy/src/per/sai.h ****             SAI_48KHZ,
  62:./libDaisy/src/per/sai.h ****             SAI_96KHZ,
  63:./libDaisy/src/per/sai.h ****         };
  64:./libDaisy/src/per/sai.h **** 
  65:./libDaisy/src/per/sai.h ****         /** Bit Depth that the hardware expects to be transferred to/from the device. */
  66:./libDaisy/src/per/sai.h ****         enum class BitDepth
  67:./libDaisy/src/per/sai.h ****         {
  68:./libDaisy/src/per/sai.h ****             SAI_16BIT,
  69:./libDaisy/src/per/sai.h ****             SAI_24BIT,
  70:./libDaisy/src/per/sai.h ****             SAI_32BIT,
  71:./libDaisy/src/per/sai.h ****         };
  72:./libDaisy/src/per/sai.h **** 
  73:./libDaisy/src/per/sai.h ****         /** Specifies whether a particular block is the master or the slave 
  74:./libDaisy/src/per/sai.h ****          ** If both are set to slave, no MCLK signal will be used, and it is
ARM GAS  /var/folders/s6/2bsynnl15rj0bwtb9pgx4dc00000gn/T//cc76hY55.s 			page 164


  75:./libDaisy/src/per/sai.h ****          ** expected that the codec will have its own xtal.
  76:./libDaisy/src/per/sai.h ****          */
  77:./libDaisy/src/per/sai.h ****         enum class Sync
  78:./libDaisy/src/per/sai.h ****         {
  79:./libDaisy/src/per/sai.h ****             MASTER,
  80:./libDaisy/src/per/sai.h ****             SLAVE,
  81:./libDaisy/src/per/sai.h ****         };
  82:./libDaisy/src/per/sai.h **** 
  83:./libDaisy/src/per/sai.h ****         /** Specifies the direction for each peripheral block. */
  84:./libDaisy/src/per/sai.h ****         enum class Direction
  85:./libDaisy/src/per/sai.h ****         {
  86:./libDaisy/src/per/sai.h ****             TRANSMIT,
  87:./libDaisy/src/per/sai.h ****             RECEIVE,
  88:./libDaisy/src/per/sai.h ****         };
  89:./libDaisy/src/per/sai.h **** 
  90:./libDaisy/src/per/sai.h ****         Peripheral periph;
  91:./libDaisy/src/per/sai.h ****         struct
  92:./libDaisy/src/per/sai.h ****         {
  93:./libDaisy/src/per/sai.h ****             dsy_gpio_pin mclk, fs, sck, sa, sb;
  94:./libDaisy/src/per/sai.h ****         } pin_config;
  95:./libDaisy/src/per/sai.h ****         SampleRate sr;
  96:./libDaisy/src/per/sai.h ****         BitDepth   bit_depth;
  97:./libDaisy/src/per/sai.h ****         Sync       a_sync, b_sync;
  98:./libDaisy/src/per/sai.h ****         Direction  a_dir, b_dir;
  99:./libDaisy/src/per/sai.h ****     };
 100:./libDaisy/src/per/sai.h **** 
 101:./libDaisy/src/per/sai.h ****     /** Return values for SAI functions */
 102:./libDaisy/src/per/sai.h ****     enum class Result
 103:./libDaisy/src/per/sai.h ****     {
 104:./libDaisy/src/per/sai.h ****         OK,
 105:./libDaisy/src/per/sai.h ****         ERR,
 106:./libDaisy/src/per/sai.h ****     };
 107:./libDaisy/src/per/sai.h **** 
 108:./libDaisy/src/per/sai.h ****     SaiHandle() : pimpl_(nullptr) {}
 2395              		.loc 23 108 5 is_stmt 1 view .LVU591
 2396              	.LBB931:
 2397              	.LBB932:
 2398              		.loc 23 108 33 is_stmt 0 view .LVU592
 2399 0040 C363     		str	r3, [r0, #60]
 2400              	.LVL182:
 2401              		.loc 23 108 33 view .LVU593
 2402              	.LBE932:
 2403              	.LBE931:
 2404              	.LBE930:
 2405              	.LBE933:
 2406              	.LBE934:
  30:TestTFT.cpp   **** int projectBPM = 120;
 2407              		.loc 8 30 11 view .LVU594
 2408 0042 FFF7FEFF 		bl	__aeabi_atexit
 2409              	.LVL183:
 2410              	.LBB935:
 2411              	.LBI935:
 2412              		.file 24 "Frame.h"
   1:Frame.h       **** //------------------------------------------------------------------------
   2:Frame.h       **** // Copyright(c) 2024 Dad Design.
   3:Frame.h       **** //      Gestion d'une frame de pixel
   4:Frame.h       **** //      Les pixels sont organiss en bloc de transmission
ARM GAS  /var/folders/s6/2bsynnl15rj0bwtb9pgx4dc00000gn/T//cc76hY55.s 			page 165


   5:Frame.h       **** //      pour une mise  jour optimis de l'cran
   6:Frame.h       **** //------------------------------------------------------------------------
   7:Frame.h       **** #pragma once
   8:Frame.h       **** #include <stdint.h>
   9:Frame.h       **** #include "TFT_SPI.h"
  10:Frame.h       **** #include "Debug.h"
  11:Frame.h       **** 
  12:Frame.h       **** #define NB_BLOC (FRAME_GRILLE*FRAME_GRILLE)
  13:Frame.h       **** #if TFT_COLOR == 16
  14:Frame.h       ****     #define TAILLE_BLOC (TFT_WIDTH * TFT_HEIGHT * 2) / NB_BLOC
  15:Frame.h       **** #else
  16:Frame.h       ****     #define TAILLE_BLOC (TFT_WIDTH * TFT_HEIGHT * 3) / NB_BLOC
  17:Frame.h       **** #endif
  18:Frame.h       **** 
  19:Frame.h       **** //***********************************************************************************
  20:Frame.h       **** // Cmd_CASET
  21:Frame.h       **** //   Commande SPI de slction des colones  
  22:Frame.h       **** //*********************************************************************************** 
  23:Frame.h       **** class Cmd_CASET {
  24:Frame.h       ****     public :
  25:Frame.h       ****     friend class cRBG_Frame;
  26:Frame.h       ****     // --------------------------------------------------------------------------
  27:Frame.h       ****     // Constructeur
  28:Frame.h       ****     Cmd_CASET(){
  29:Frame.h       ****         m_Commande = TFT_CASET;
  30:Frame.h       ****     }
  31:Frame.h       **** 
  32:Frame.h       ****     // --------------------------------------------------------------------------
  33:Frame.h       ****     // Dfinition de l'abcisse de la fenetre
  34:Frame.h       ****     void setData(uint16_t x, uint16_t dx){
  35:Frame.h       ****         m_Data[0] = x >> 8;
  36:Frame.h       ****         m_Data[1] = x & 0xFF;
  37:Frame.h       ****         m_Data[2] = dx >> 8;
  38:Frame.h       ****         m_Data[3] = dx & 0xFF;
  39:Frame.h       ****     }
  40:Frame.h       ****     
  41:Frame.h       ****     // --------------------------------------------------------------------------
  42:Frame.h       ****     // Donnes de la classe
  43:Frame.h       ****     protected :
  44:Frame.h       ****     uint8_t m_Commande;
  45:Frame.h       ****     uint8_t m_Data[4];
  46:Frame.h       **** };
  47:Frame.h       **** 
  48:Frame.h       **** //***********************************************************************************
  49:Frame.h       **** // Cmd_RASET
  50:Frame.h       **** //   Commande SPI de selection des ranges  
  51:Frame.h       **** //*********************************************************************************** 
  52:Frame.h       **** class Cmd_RASET {
  53:Frame.h       ****     public :
  54:Frame.h       ****     friend class cRBG_Frame;
  55:Frame.h       **** 
  56:Frame.h       ****     // --------------------------------------------------------------------------
  57:Frame.h       ****     // Constructeur
  58:Frame.h       ****     Cmd_RASET(){
  59:Frame.h       ****         m_Commande = TFT_RASET;
  60:Frame.h       ****     }
  61:Frame.h       ****     
ARM GAS  /var/folders/s6/2bsynnl15rj0bwtb9pgx4dc00000gn/T//cc76hY55.s 			page 166


  62:Frame.h       ****     // --------------------------------------------------------------------------
  63:Frame.h       ****     // Dfinition de l'ordonne de la fentre
  64:Frame.h       ****     void setData(uint16_t y, uint16_t dy){
  65:Frame.h       ****         m_Data[0] = y >> 8;
  66:Frame.h       ****         m_Data[1] = y & 0xFF;
  67:Frame.h       ****         m_Data[2] = dy >> 8;
  68:Frame.h       ****         m_Data[3] = dy & 0xFF;
  69:Frame.h       ****     }
  70:Frame.h       **** 
  71:Frame.h       ****     // --------------------------------------------------------------------------
  72:Frame.h       ****     // Donnes de la classe
  73:Frame.h       ****     protected :
  74:Frame.h       ****     uint8_t m_Commande;
  75:Frame.h       ****     uint8_t m_Data[4];
  76:Frame.h       **** };
  77:Frame.h       **** 
  78:Frame.h       **** //***********************************************************************************
  79:Frame.h       **** // Cmd_RAMWR
  80:Frame.h       **** //   Commande SPI d'ecriture des pixels 
  81:Frame.h       **** //***********************************************************************************
  82:Frame.h       **** class cRBG_Frame;
  83:Frame.h       **** class Cmd_RAMWR {
  84:Frame.h       ****     public :
  85:Frame.h       ****     friend class cRBG_Frame;
  86:Frame.h       **** 
  87:Frame.h       ****     // --------------------------------------------------------------------------
  88:Frame.h       ****     // Constructeur
  89:Frame.h       ****     Cmd_RAMWR(){
  90:Frame.h       ****         m_Commande = TFT_RAMWR;
  91:Frame.h       ****     }
  92:Frame.h       **** 
  93:Frame.h       ****     // --------------------------------------------------------------------------
  94:Frame.h       ****     // Dfinition des pixels de la frame  transfrer
  95:Frame.h       ****     void setData(uint16_t x, uint16_t y, uint16_t dx, uint16_t dy, cRBG_Frame *pFrame);
  96:Frame.h       **** 
  97:Frame.h       ****     // --------------------------------------------------------------------------
  98:Frame.h       ****     // Donnes de la classe
  99:Frame.h       ****     protected :
 100:Frame.h       ****     uint8_t m_Commande;
 101:Frame.h       ****     uint8_t m_Data[TAILLE_BLOC];
 102:Frame.h       **** };
 103:Frame.h       **** 
 104:Frame.h       **** //***********************************************************************************
 105:Frame.h       **** // cColor 
 106:Frame.h       **** //*********************************************************************************** 
 107:Frame.h       **** struct cColor { 
 108:Frame.h       ****     // Constructeur
 109:Frame.h       ****     cColor(uint8_t R, uint8_t G, uint8_t B, uint8_t Trans=255){
 110:Frame.h       ****         m_R = R;
 111:Frame.h       ****         m_G = G;
 112:Frame.h       ****         m_B = B;
 113:Frame.h       ****         m_Trans = Trans;
 114:Frame.h       ****     }
 115:Frame.h       **** 
 116:Frame.h       ****     uint8_t m_R;
 117:Frame.h       ****     uint8_t m_G;
 118:Frame.h       ****     uint8_t m_B;
ARM GAS  /var/folders/s6/2bsynnl15rj0bwtb9pgx4dc00000gn/T//cc76hY55.s 			page 167


 119:Frame.h       ****     uint8_t m_Trans;
 120:Frame.h       **** };
 121:Frame.h       **** 
 122:Frame.h       **** //***********************************************************************************
 123:Frame.h       **** // RGB
 124:Frame.h       **** // Dfinition d'un pixel RGB 
 125:Frame.h       **** //*********************************************************************************** 
 126:Frame.h       **** struct RGB {
 127:Frame.h       ****     friend class cRBG_Frame;
 128:Frame.h       **** 	// --------------------------------------------------------------------------
 129:Frame.h       **** 	// Mise  jour d'un pixel et indication que le bloc a chang d'tat
 130:Frame.h       ****     void inline set(cColor Color){
 131:Frame.h       ****         R = Color.m_R;
 132:Frame.h       ****         G = Color.m_G;
 133:Frame.h       ****         B = Color.m_B;
 134:Frame.h       ****         *m_pChange = true;
 135:Frame.h       ****     }
 136:Frame.h       **** 
 137:Frame.h       ****     // --------------------------------------------------------------------------
 138:Frame.h       **** 	// Lecture de la composante Rouge 
 139:Frame.h       ****     uint8_t inline getR(){
 140:Frame.h       ****         return R;
 141:Frame.h       ****     }
 142:Frame.h       ****     // --------------------------------------------------------------------------
 143:Frame.h       **** 	// Lecture de la composante Verte 
 144:Frame.h       ****     uint8_t inline getG(){
 145:Frame.h       ****         return G;
 146:Frame.h       ****     }
 147:Frame.h       **** 
 148:Frame.h       ****     // --------------------------------------------------------------------------
 149:Frame.h       **** 	// Lecture de la composante Bleue 
 150:Frame.h       ****     uint8_t inline getB(){
 151:Frame.h       ****         return B;
 152:Frame.h       ****     }
 153:Frame.h       **** 
 154:Frame.h       ****     // --------------------------------------------------------------------------
 155:Frame.h       ****     // Donnes de la classe
 156:Frame.h       ****     protected :
 157:Frame.h       ****     uint8_t R;          // Composante Rouge
 158:Frame.h       ****     uint8_t G;          // Composante Verte
 159:Frame.h       ****     uint8_t B;          // Composante Bleue
 160:Frame.h       ****     bool *m_pChange;    // Indicateur de changement d'tat (pointe sur un tableau de bloc) 
 161:Frame.h       **** };
 162:Frame.h       **** 
 163:Frame.h       **** //***********************************************************************************
 164:Frame.h       **** // cRBG_Frame
 165:Frame.h       **** //  Gestion de la framme
 166:Frame.h       **** //*********************************************************************************** 
 167:Frame.h       **** 
 168:Frame.h       **** //   Pour le fonctionnement du DMA cette structure doit tre instancie dans la
 169:Frame.h       **** //   mmoire DMA_BUFFER_MEM_SECTION
 170:Frame.h       **** struct FIFO_Data {
 2413              		.loc 24 170 8 is_stmt 1 view .LVU595
 2414              	.LBB936:
 2415              		.loc 24 170 8 view .LVU596
 2416 0046 2A4B     		ldr	r3, .L157+28
 2417 0048 03F13201 		add	r1, r3, #50
ARM GAS  /var/folders/s6/2bsynnl15rj0bwtb9pgx4dc00000gn/T//cc76hY55.s 			page 168


 2418              	.LBE936:
 2419              	.LBE935:
  30:TestTFT.cpp   **** int projectBPM = 120;
 2420              		.loc 8 30 11 is_stmt 0 view .LVU597
 2421 004c 1A46     		mov	r2, r3
 2422              	.L150:
 2423              	.LVL184:
 2424              	.LBB948:
 2425              	.LBB947:
 2426              	.LBB937:
 2427              	.LBI937:
  28:Frame.h       ****         m_Commande = TFT_CASET;
 2428              		.loc 24 28 5 is_stmt 1 view .LVU598
 2429              	.LBB938:
  29:Frame.h       ****     }
 2430              		.loc 24 29 9 view .LVU599
  29:Frame.h       ****     }
 2431              		.loc 24 29 20 is_stmt 0 view .LVU600
 2432 004e 2A20     		movs	r0, #42
 2433 0050 02F8050B 		strb	r0, [r2], #5
 2434              	.LVL185:
  29:Frame.h       ****     }
 2435              		.loc 24 29 20 view .LVU601
 2436              	.LBE938:
 2437              	.LBE937:
 2438              		.loc 24 170 8 is_stmt 1 view .LVU602
 2439              		.loc 24 170 8 view .LVU603
 2440 0054 8A42     		cmp	r2, r1
 2441 0056 FAD1     		bne	.L150
 2442 0058 254A     		ldr	r2, .L157+28
 2443              	.L151:
 2444              	.LVL186:
 2445              	.LBB939:
 2446              	.LBI939:
  58:Frame.h       ****         m_Commande = TFT_RASET;
 2447              		.loc 24 58 5 view .LVU604
 2448              	.LBB940:
  59:Frame.h       ****     }
 2449              		.loc 24 59 9 view .LVU605
 2450              	.LBE940:
 2451              	.LBE939:
 2452              		.loc 24 170 8 is_stmt 0 view .LVU606
 2453 005a 0532     		adds	r2, r2, #5
 2454              	.LVL187:
 2455              	.LBB943:
 2456              	.LBB941:
  59:Frame.h       ****     }
 2457              		.loc 24 59 20 view .LVU607
 2458 005c 2B20     		movs	r0, #43
 2459              	.LBE941:
 2460              	.LBE943:
 2461              		.loc 24 170 8 view .LVU608
 2462 005e 8A42     		cmp	r2, r1
 2463              	.LBB944:
 2464              	.LBB942:
  59:Frame.h       ****     }
 2465              		.loc 24 59 20 view .LVU609
ARM GAS  /var/folders/s6/2bsynnl15rj0bwtb9pgx4dc00000gn/T//cc76hY55.s 			page 169


 2466 0060 82F82D00 		strb	r0, [r2, #45]
 2467              	.LVL188:
  59:Frame.h       ****     }
 2468              		.loc 24 59 20 view .LVU610
 2469              	.LBE942:
 2470              	.LBE944:
 2471              		.loc 24 170 8 is_stmt 1 view .LVU611
 2472              		.loc 24 170 8 view .LVU612
 2473 0064 F9D1     		bne	.L151
 2474 0066 2349     		ldr	r1, .L157+32
 2475              	.L152:
 2476              	.LVL189:
 2477              	.LBB945:
 2478              	.LBI945:
  89:Frame.h       ****         m_Commande = TFT_RAMWR;
 2479              		.loc 24 89 5 view .LVU613
 2480              	.LBB946:
  90:Frame.h       ****     }
 2481              		.loc 24 90 9 view .LVU614
  90:Frame.h       ****     }
 2482              		.loc 24 90 20 is_stmt 0 view .LVU615
 2483 0068 2C22     		movs	r2, #44
 2484 006a 83F86420 		strb	r2, [r3, #100]
 2485              	.LVL190:
  90:Frame.h       ****     }
 2486              		.loc 24 90 20 view .LVU616
 2487              	.LBE946:
 2488              	.LBE945:
 2489              		.loc 24 170 8 is_stmt 1 view .LVU617
 2490              		.loc 24 170 8 view .LVU618
 2491 006e 03F20163 		addw	r3, r3, #1537
 2492 0072 8B42     		cmp	r3, r1
 2493 0074 F8D1     		bne	.L152
 2494              	.LVL191:
 2495              		.loc 24 170 8 is_stmt 0 view .LVU619
 2496              	.LBE947:
 2497              	.LBE948:
 2498              	.LBB949:
 2499              	.LBI949:
 131:GFX.h         **** 
 2500              		.loc 12 131 5 is_stmt 1 view .LVU620
 2501              	.LBB950:
 2502              	.LBB951:
 2503              	.LBB952:
 2504              	.LBI952:
 171:Frame.h       ****     Cmd_CASET m_CmdCASET[SIZE_FIFO];
 172:Frame.h       ****     Cmd_RASET m_CmdRASET[SIZE_FIFO];
 173:Frame.h       ****     Cmd_RAMWR m_CmdRAWWR[SIZE_FIFO];
 174:Frame.h       **** };
 175:Frame.h       **** 
 176:Frame.h       **** // ================================
 177:Frame.h       **** // cRBG_Frame
 178:Frame.h       **** class cRBG_Frame  : protected TFT_SPI {
 179:Frame.h       ****     public:
 180:Frame.h       ****     // --------------------------------------------------------------------------
 181:Frame.h       ****     // Constructeur 
 182:Frame.h       ****     // FIFO_Data doit tre instancie dans la mmoire DMA_BUFFER_MEM_SECTION
ARM GAS  /var/folders/s6/2bsynnl15rj0bwtb9pgx4dc00000gn/T//cc76hY55.s 			page 170


 183:Frame.h       ****     cRBG_Frame(){
 2505              		.loc 24 183 5 view .LVU621
 2506              	.LBB953:
 2507              	.LBB954:
 2508              	.LBB955:
 2509              	.LBI955:
 2510              		.file 25 "TFT_SPI.h"
   1:TFT_SPI.h     **** //------------------------------------------------------------------------
   2:TFT_SPI.h     **** // Copyright(c) 2024 Dad Design.
   3:TFT_SPI.h     **** //      Gestion d'une liaison SP vers un ecran 
   4:TFT_SPI.h     **** //------------------------------------------------------------------------
   5:TFT_SPI.h     **** #pragma once
   6:TFT_SPI.h     **** #include "daisy_seed.h"
   7:TFT_SPI.h     **** #include "per/spi.h"
   8:TFT_SPI.h     **** #include "per/gpio.h"
   9:TFT_SPI.h     **** #include "sys/system.h"
  10:TFT_SPI.h     **** #include "UserConfig.h"
  11:TFT_SPI.h     **** #include "ST7789_Defines.h"
  12:TFT_SPI.h     **** 
  13:TFT_SPI.h     **** using namespace daisy;
  14:TFT_SPI.h     **** extern DaisySeed hw;
  15:TFT_SPI.h     **** 
  16:TFT_SPI.h     **** enum class SPIMode {
  17:TFT_SPI.h     ****     Mode0,
  18:TFT_SPI.h     ****     Mode1,
  19:TFT_SPI.h     ****     Mode2,
  20:TFT_SPI.h     ****     Mode3
  21:TFT_SPI.h     **** };
  22:TFT_SPI.h     **** 
  23:TFT_SPI.h     **** enum class Rotation{
  24:TFT_SPI.h     ****     Degre_0,
  25:TFT_SPI.h     ****     Degre_90,
  26:TFT_SPI.h     ****     Degre_180,
  27:TFT_SPI.h     ****     Degre_270
  28:TFT_SPI.h     **** };
  29:TFT_SPI.h     **** 
  30:TFT_SPI.h     **** // Configuration des GPIO utiliss
  31:TFT_SPI.h     **** #define _TFT_SPI_PORT SpiHandle::Config::Peripheral::TFT_SPI_PORT
  32:TFT_SPI.h     **** #define _TFT_SPI_MODE SPIMode::TFT_SPI_MODE
  33:TFT_SPI.h     **** 
  34:TFT_SPI.h     **** // Configuration des GPIO utiliss
  35:TFT_SPI.h     **** #define _TFT_MOSI seed::TFT_MOSI
  36:TFT_SPI.h     **** #define _TFT_SCLK seed::TFT_SCLK
  37:TFT_SPI.h     **** #define _TFT_DC   seed::TFT_DC
  38:TFT_SPI.h     **** #define _TFT_RST  seed::TFT_RST 
  39:TFT_SPI.h     **** 
  40:TFT_SPI.h     **** //***********************************************************************************
  41:TFT_SPI.h     **** // TFT_SPI
  42:TFT_SPI.h     **** //  Gestion de la liaison SPI
  43:TFT_SPI.h     **** //*********************************************************************************** 
  44:TFT_SPI.h     **** class TFT_SPI {
 2511              		.loc 25 44 7 view .LVU622
 2512              	.LBB956:
 2513              	.LBI956:
 2514              		.file 26 "./libDaisy/src/per/spi.h"
   1:./libDaisy/src/per/spi.h **** #pragma once
   2:./libDaisy/src/per/spi.h **** #ifndef DSY_SPI_H
ARM GAS  /var/folders/s6/2bsynnl15rj0bwtb9pgx4dc00000gn/T//cc76hY55.s 			page 171


   3:./libDaisy/src/per/spi.h **** #define DSY_SPI_H
   4:./libDaisy/src/per/spi.h **** 
   5:./libDaisy/src/per/spi.h **** #include "daisy_core.h"
   6:./libDaisy/src/per/spi.h **** 
   7:./libDaisy/src/per/spi.h **** /* TODO:
   8:./libDaisy/src/per/spi.h **** - Add documentation
   9:./libDaisy/src/per/spi.h **** - Add IT
  10:./libDaisy/src/per/spi.h **** */
  11:./libDaisy/src/per/spi.h **** 
  12:./libDaisy/src/per/spi.h **** namespace daisy
  13:./libDaisy/src/per/spi.h **** {
  14:./libDaisy/src/per/spi.h **** /** @addtogroup serial
  15:./libDaisy/src/per/spi.h **** @{
  16:./libDaisy/src/per/spi.h **** */
  17:./libDaisy/src/per/spi.h **** 
  18:./libDaisy/src/per/spi.h **** /**  Handler for serial peripheral interface */
  19:./libDaisy/src/per/spi.h **** class SpiHandle
  20:./libDaisy/src/per/spi.h **** {
  21:./libDaisy/src/per/spi.h ****   public:
  22:./libDaisy/src/per/spi.h ****     struct Config
  23:./libDaisy/src/per/spi.h ****     {
  24:./libDaisy/src/per/spi.h ****         enum class Peripheral
  25:./libDaisy/src/per/spi.h ****         {
  26:./libDaisy/src/per/spi.h ****             SPI_1,
  27:./libDaisy/src/per/spi.h ****             SPI_2,
  28:./libDaisy/src/per/spi.h ****             SPI_3,
  29:./libDaisy/src/per/spi.h ****             SPI_4,
  30:./libDaisy/src/per/spi.h ****             SPI_5,
  31:./libDaisy/src/per/spi.h ****             SPI_6,
  32:./libDaisy/src/per/spi.h ****         };
  33:./libDaisy/src/per/spi.h **** 
  34:./libDaisy/src/per/spi.h ****         enum class Mode
  35:./libDaisy/src/per/spi.h ****         {
  36:./libDaisy/src/per/spi.h ****             MASTER,
  37:./libDaisy/src/per/spi.h ****             SLAVE,
  38:./libDaisy/src/per/spi.h ****         };
  39:./libDaisy/src/per/spi.h **** 
  40:./libDaisy/src/per/spi.h ****         enum class Direction
  41:./libDaisy/src/per/spi.h ****         {
  42:./libDaisy/src/per/spi.h ****             TWO_LINES,
  43:./libDaisy/src/per/spi.h ****             TWO_LINES_TX_ONLY,
  44:./libDaisy/src/per/spi.h ****             TWO_LINES_RX_ONLY,
  45:./libDaisy/src/per/spi.h ****             ONE_LINE,
  46:./libDaisy/src/per/spi.h ****         };
  47:./libDaisy/src/per/spi.h **** 
  48:./libDaisy/src/per/spi.h ****         enum class ClockPolarity
  49:./libDaisy/src/per/spi.h ****         {
  50:./libDaisy/src/per/spi.h ****             LOW,
  51:./libDaisy/src/per/spi.h ****             HIGH,
  52:./libDaisy/src/per/spi.h ****         };
  53:./libDaisy/src/per/spi.h **** 
  54:./libDaisy/src/per/spi.h ****         enum class ClockPhase
  55:./libDaisy/src/per/spi.h ****         {
  56:./libDaisy/src/per/spi.h ****             ONE_EDGE,
  57:./libDaisy/src/per/spi.h ****             TWO_EDGE,
  58:./libDaisy/src/per/spi.h ****         };
  59:./libDaisy/src/per/spi.h **** 
ARM GAS  /var/folders/s6/2bsynnl15rj0bwtb9pgx4dc00000gn/T//cc76hY55.s 			page 172


  60:./libDaisy/src/per/spi.h ****         enum class NSS
  61:./libDaisy/src/per/spi.h ****         {
  62:./libDaisy/src/per/spi.h ****             SOFT,
  63:./libDaisy/src/per/spi.h ****             HARD_INPUT,
  64:./libDaisy/src/per/spi.h ****             HARD_OUTPUT,
  65:./libDaisy/src/per/spi.h ****         };
  66:./libDaisy/src/per/spi.h **** 
  67:./libDaisy/src/per/spi.h ****         enum class BaudPrescaler
  68:./libDaisy/src/per/spi.h ****         {
  69:./libDaisy/src/per/spi.h ****             PS_2,
  70:./libDaisy/src/per/spi.h ****             PS_4,
  71:./libDaisy/src/per/spi.h ****             PS_8,
  72:./libDaisy/src/per/spi.h ****             PS_16,
  73:./libDaisy/src/per/spi.h ****             PS_32,
  74:./libDaisy/src/per/spi.h ****             PS_64,
  75:./libDaisy/src/per/spi.h ****             PS_128,
  76:./libDaisy/src/per/spi.h ****             PS_256,
  77:./libDaisy/src/per/spi.h ****         };
  78:./libDaisy/src/per/spi.h **** 
  79:./libDaisy/src/per/spi.h ****         struct
  80:./libDaisy/src/per/spi.h ****         {
  81:./libDaisy/src/per/spi.h ****             dsy_gpio_pin sclk; /**< & */
  82:./libDaisy/src/per/spi.h ****             dsy_gpio_pin miso; /**< & */
  83:./libDaisy/src/per/spi.h ****             dsy_gpio_pin mosi; /**< & */
  84:./libDaisy/src/per/spi.h ****             dsy_gpio_pin nss;  /**< & */
  85:./libDaisy/src/per/spi.h ****         } pin_config;
  86:./libDaisy/src/per/spi.h **** 
  87:./libDaisy/src/per/spi.h ****         Config()
  88:./libDaisy/src/per/spi.h ****         {
  89:./libDaisy/src/per/spi.h ****             // user must specify periph, mode, direction, nss, and pin_config
  90:./libDaisy/src/per/spi.h ****             datasize       = 8;
  91:./libDaisy/src/per/spi.h ****             clock_polarity = ClockPolarity::LOW;
  92:./libDaisy/src/per/spi.h ****             clock_phase    = ClockPhase::ONE_EDGE;
  93:./libDaisy/src/per/spi.h ****             baud_prescaler = BaudPrescaler::PS_8;
  94:./libDaisy/src/per/spi.h ****         }
  95:./libDaisy/src/per/spi.h **** 
  96:./libDaisy/src/per/spi.h ****         Peripheral    periph;
  97:./libDaisy/src/per/spi.h ****         Mode          mode;
  98:./libDaisy/src/per/spi.h ****         Direction     direction;
  99:./libDaisy/src/per/spi.h ****         unsigned long datasize;
 100:./libDaisy/src/per/spi.h ****         ClockPolarity clock_polarity;
 101:./libDaisy/src/per/spi.h ****         ClockPhase    clock_phase;
 102:./libDaisy/src/per/spi.h ****         NSS           nss;
 103:./libDaisy/src/per/spi.h ****         BaudPrescaler baud_prescaler;
 104:./libDaisy/src/per/spi.h ****     };
 105:./libDaisy/src/per/spi.h **** 
 106:./libDaisy/src/per/spi.h ****     SpiHandle() : pimpl_(nullptr) {}
 2515              		.loc 26 106 5 view .LVU623
 2516              		.loc 26 106 5 is_stmt 0 view .LVU624
 2517              	.LBE956:
 2518              	.LBB961:
 2519              	.LBI961:
  87:./libDaisy/src/per/spi.h ****         {
 2520              		.loc 26 87 9 is_stmt 1 view .LVU625
 2521              	.LBB962:
 2522              	.LBB963:
  90:./libDaisy/src/per/spi.h ****             clock_polarity = ClockPolarity::LOW;
ARM GAS  /var/folders/s6/2bsynnl15rj0bwtb9pgx4dc00000gn/T//cc76hY55.s 			page 173


 2523              		.loc 26 90 13 view .LVU626
  91:./libDaisy/src/per/spi.h ****             clock_phase    = ClockPhase::ONE_EDGE;
 2524              		.loc 26 91 13 view .LVU627
  92:./libDaisy/src/per/spi.h ****             baud_prescaler = BaudPrescaler::PS_8;
 2525              		.loc 26 92 13 view .LVU628
  93:./libDaisy/src/per/spi.h ****         }
 2526              		.loc 26 93 13 view .LVU629
  93:./libDaisy/src/per/spi.h ****         }
 2527              		.loc 26 93 13 is_stmt 0 view .LVU630
 2528              	.LBE963:
 2529              	.LBE962:
 2530              	.LBE961:
 2531              	.LBB972:
 2532              	.LBI972:
 2533              		.file 27 "./libDaisy/src/per/gpio.h"
   1:./libDaisy/src/per/gpio.h **** #pragma once
   2:./libDaisy/src/per/gpio.h **** #ifndef DSY_GPIO_H
   3:./libDaisy/src/per/gpio.h **** #define DSY_GPIO_H
   4:./libDaisy/src/per/gpio.h **** #include "daisy_core.h"
   5:./libDaisy/src/per/gpio.h **** 
   6:./libDaisy/src/per/gpio.h **** #ifdef __cplusplus
   7:./libDaisy/src/per/gpio.h **** 
   8:./libDaisy/src/per/gpio.h **** namespace daisy
   9:./libDaisy/src/per/gpio.h **** {
  10:./libDaisy/src/per/gpio.h **** /** @brief General Purpose I/O control 
  11:./libDaisy/src/per/gpio.h ****  *  @details peripheral control over a single GPIO
  12:./libDaisy/src/per/gpio.h ****  *  @ingroup peripheral
  13:./libDaisy/src/per/gpio.h ****  *   
  14:./libDaisy/src/per/gpio.h ****  *  Button Input (with internal Pullup resistor)
  15:./libDaisy/src/per/gpio.h ****  *  @include GPIO_Input.cpp 
  16:./libDaisy/src/per/gpio.h ****  * 
  17:./libDaisy/src/per/gpio.h ****  *  Output Example (perfect for blinking an LED)
  18:./libDaisy/src/per/gpio.h ****  *  @include GPIO_Output.cpp
  19:./libDaisy/src/per/gpio.h ****  * 
  20:./libDaisy/src/per/gpio.h **** */
  21:./libDaisy/src/per/gpio.h **** class GPIO
  22:./libDaisy/src/per/gpio.h **** {
  23:./libDaisy/src/per/gpio.h ****   public:
  24:./libDaisy/src/per/gpio.h ****     /** @brief Mode of operation for the specified GPIO */
  25:./libDaisy/src/per/gpio.h ****     enum class Mode
  26:./libDaisy/src/per/gpio.h ****     {
  27:./libDaisy/src/per/gpio.h ****         INPUT,     /**< Input for reading state of pin */
  28:./libDaisy/src/per/gpio.h ****         OUTPUT,    /**< Output w/ push-pull configuration */
  29:./libDaisy/src/per/gpio.h ****         OUTPUT_OD, /**< Output w/ open-drain configuration */
  30:./libDaisy/src/per/gpio.h ****         ANALOG,    /**< Analog for connection to ADC or DAC peripheral */
  31:./libDaisy/src/per/gpio.h ****     };
  32:./libDaisy/src/per/gpio.h **** 
  33:./libDaisy/src/per/gpio.h ****     /** @brief Configures whether an internal Pull up or Pull down resistor is used. 
  34:./libDaisy/src/per/gpio.h ****      *  
  35:./libDaisy/src/per/gpio.h ****      * Internal Pull up/down resistors are typically 40k ohms, and will be between
  36:./libDaisy/src/per/gpio.h ****      * 30k and 50k
  37:./libDaisy/src/per/gpio.h ****      * 
  38:./libDaisy/src/per/gpio.h ****      * When the Pin is configured in Analog mode, the pull up/down resistors are
  39:./libDaisy/src/per/gpio.h ****      * disabled by hardware. 
  40:./libDaisy/src/per/gpio.h ****      */
  41:./libDaisy/src/per/gpio.h ****     enum class Pull
  42:./libDaisy/src/per/gpio.h ****     {
ARM GAS  /var/folders/s6/2bsynnl15rj0bwtb9pgx4dc00000gn/T//cc76hY55.s 			page 174


  43:./libDaisy/src/per/gpio.h ****         NOPULL,   /**< No pull up resistor */
  44:./libDaisy/src/per/gpio.h ****         PULLUP,   /**< Internal pull up enabled */
  45:./libDaisy/src/per/gpio.h ****         PULLDOWN, /**< Internal pull down enabled*/
  46:./libDaisy/src/per/gpio.h ****     };
  47:./libDaisy/src/per/gpio.h **** 
  48:./libDaisy/src/per/gpio.h ****     /** @brief Output speed controls the drive strength, and slew rate of the pin */
  49:./libDaisy/src/per/gpio.h ****     enum class Speed
  50:./libDaisy/src/per/gpio.h ****     {
  51:./libDaisy/src/per/gpio.h ****         LOW,
  52:./libDaisy/src/per/gpio.h ****         MEDIUM,
  53:./libDaisy/src/per/gpio.h ****         HIGH,
  54:./libDaisy/src/per/gpio.h ****         VERY_HIGH,
  55:./libDaisy/src/per/gpio.h ****     };
  56:./libDaisy/src/per/gpio.h **** 
  57:./libDaisy/src/per/gpio.h ****     /** @brief Configuration for a given GPIO */
  58:./libDaisy/src/per/gpio.h ****     struct Config
  59:./libDaisy/src/per/gpio.h ****     {
  60:./libDaisy/src/per/gpio.h ****         Pin   pin;
  61:./libDaisy/src/per/gpio.h ****         Mode  mode;
  62:./libDaisy/src/per/gpio.h ****         Pull  pull;
  63:./libDaisy/src/per/gpio.h ****         Speed speed;
  64:./libDaisy/src/per/gpio.h **** 
  65:./libDaisy/src/per/gpio.h ****         /** Constructor with no arguments will prepare an invalid GPIO set as
  66:./libDaisy/src/per/gpio.h ****          *  an input, with no pullup. 
  67:./libDaisy/src/per/gpio.h ****          */
  68:./libDaisy/src/per/gpio.h ****         Config()
  69:./libDaisy/src/per/gpio.h ****         : pin(), mode(Mode::INPUT), pull(Pull::NOPULL), speed(Speed::LOW)
  70:./libDaisy/src/per/gpio.h ****         {
  71:./libDaisy/src/per/gpio.h ****         }
  72:./libDaisy/src/per/gpio.h ****     };
  73:./libDaisy/src/per/gpio.h **** 
  74:./libDaisy/src/per/gpio.h ****     GPIO() {}
 2534              		.loc 27 74 5 is_stmt 1 view .LVU631
 2535              	.LBB973:
 2536              	.LBB974:
 2537              	.LBI974:
  68:./libDaisy/src/per/gpio.h ****         : pin(), mode(Mode::INPUT), pull(Pull::NOPULL), speed(Speed::LOW)
 2538              		.loc 27 68 9 view .LVU632
 2539              	.LBB975:
 2540              	.LBB976:
 2541              	.LBB977:
 2542              	.LBI977:
 2543              		.file 28 "./libDaisy/src/daisy_core.h"
   1:./libDaisy/src/daisy_core.h **** #pragma once
   2:./libDaisy/src/daisy_core.h **** #ifndef DSY_CORE_HW_H
   3:./libDaisy/src/daisy_core.h **** #define DSY_CORE_HW_H /**< & */
   4:./libDaisy/src/daisy_core.h **** #include <stdint.h>
   5:./libDaisy/src/daisy_core.h **** #include <stdlib.h>
   6:./libDaisy/src/daisy_core.h **** 
   7:./libDaisy/src/daisy_core.h **** #if defined(_MSC_VER)
   8:./libDaisy/src/daisy_core.h **** #define FORCE_INLINE __forceinline /**< & */
   9:./libDaisy/src/daisy_core.h **** #elif defined(__clang__)
  10:./libDaisy/src/daisy_core.h **** #define FORCE_INLINE inline __attribute__((always_inline)) /**< & */
  11:./libDaisy/src/daisy_core.h **** #pragma clang diagnostic ignored "-Wduplicate-decl-specifier"
  12:./libDaisy/src/daisy_core.h **** #elif defined(__GNUC__)
  13:./libDaisy/src/daisy_core.h **** #define FORCE_INLINE inline __attribute__((always_inline)) /**< & */
  14:./libDaisy/src/daisy_core.h **** #else
ARM GAS  /var/folders/s6/2bsynnl15rj0bwtb9pgx4dc00000gn/T//cc76hY55.s 			page 175


  15:./libDaisy/src/daisy_core.h **** #error unknown compiler
  16:./libDaisy/src/daisy_core.h **** #endif
  17:./libDaisy/src/daisy_core.h **** 
  18:./libDaisy/src/daisy_core.h **** /** @addtogroup utility
  19:./libDaisy/src/daisy_core.h ****     @{
  20:./libDaisy/src/daisy_core.h **** */
  21:./libDaisy/src/daisy_core.h **** 
  22:./libDaisy/src/daisy_core.h **** /** Macro for area of memory that is configured as cacheless
  23:./libDaisy/src/daisy_core.h **** This should be used primarily for DMA buffers, and the like.
  24:./libDaisy/src/daisy_core.h **** */
  25:./libDaisy/src/daisy_core.h **** #define DMA_BUFFER_MEM_SECTION __attribute__((section(".sram1_bss")))
  26:./libDaisy/src/daisy_core.h **** /** 
  27:./libDaisy/src/daisy_core.h **** THE DTCM RAM section is also non-cached. However, is not suitable 
  28:./libDaisy/src/daisy_core.h **** for DMA transfers. Performance is on par with internal SRAM w/ 
  29:./libDaisy/src/daisy_core.h **** cache enabled.
  30:./libDaisy/src/daisy_core.h **** */
  31:./libDaisy/src/daisy_core.h **** #define DTCM_MEM_SECTION __attribute__((section(".dtcmram_bss")))
  32:./libDaisy/src/daisy_core.h **** 
  33:./libDaisy/src/daisy_core.h **** #define FBIPMAX 0.999985f             /**< close to 1.0f-LSB at 16 bit */
  34:./libDaisy/src/daisy_core.h **** #define FBIPMIN (-FBIPMAX)            /**< - (1 - LSB) */
  35:./libDaisy/src/daisy_core.h **** #define U82F_SCALE 0.0078740f         /**< 1 / 127 */
  36:./libDaisy/src/daisy_core.h **** #define F2U8_SCALE 127.0f             /**< 128 - 1 */
  37:./libDaisy/src/daisy_core.h **** #define S82F_SCALE 0.0078125f         /**< 1 / (2**7) */
  38:./libDaisy/src/daisy_core.h **** #define F2S8_SCALE 127.0f             /**< (2 ** 7) - 1 */
  39:./libDaisy/src/daisy_core.h **** #define S162F_SCALE 3.0517578125e-05f /**< 1 / (2** 15) */
  40:./libDaisy/src/daisy_core.h **** #define F2S16_SCALE 32767.0f          /**< (2 ** 15) - 1 */
  41:./libDaisy/src/daisy_core.h **** #define F2S24_SCALE 8388608.0f        /**< 2 ** 23 */
  42:./libDaisy/src/daisy_core.h **** #define S242F_SCALE 1.192092896e-07f  /**< 1 / (2 ** 23) */
  43:./libDaisy/src/daisy_core.h **** #define S24SIGN 0x800000              /**< 2 ** 23 */
  44:./libDaisy/src/daisy_core.h **** #define S322F_SCALE 4.6566129e-10f    /**< 1 / (2** 31) */
  45:./libDaisy/src/daisy_core.h **** #define F2S32_SCALE 2147483647.f      /**< (2 ** 31) - 1 */
  46:./libDaisy/src/daisy_core.h **** 
  47:./libDaisy/src/daisy_core.h **** 
  48:./libDaisy/src/daisy_core.h **** /** shorthand macro for simplifying the reading of the left 
  49:./libDaisy/src/daisy_core.h ****  *  channel of a non-interleaved output buffer named out */
  50:./libDaisy/src/daisy_core.h **** #define OUT_L out[0]
  51:./libDaisy/src/daisy_core.h **** 
  52:./libDaisy/src/daisy_core.h **** /** shorthand macro for simplifying the reading of the right 
  53:./libDaisy/src/daisy_core.h ****  *  channel of a non-interleaved output buffer named out */
  54:./libDaisy/src/daisy_core.h **** #define OUT_R out[1]
  55:./libDaisy/src/daisy_core.h **** 
  56:./libDaisy/src/daisy_core.h **** /** shorthand macro for simplifying the reading of the left 
  57:./libDaisy/src/daisy_core.h ****  *  channel of a non-interleaved input buffer named in */
  58:./libDaisy/src/daisy_core.h **** #define IN_L in[0]
  59:./libDaisy/src/daisy_core.h **** 
  60:./libDaisy/src/daisy_core.h **** /** shorthand macro for simplifying the reading of the right 
  61:./libDaisy/src/daisy_core.h ****  *  channel of a non-interleaved input buffer named in */
  62:./libDaisy/src/daisy_core.h **** #define IN_R in[1]
  63:./libDaisy/src/daisy_core.h **** 
  64:./libDaisy/src/daisy_core.h **** /** 
  65:./libDaisy/src/daisy_core.h ****     Computes cube.
  66:./libDaisy/src/daisy_core.h ****     \param x Number to be cubed
  67:./libDaisy/src/daisy_core.h ****     \return x ^ 3
  68:./libDaisy/src/daisy_core.h **** */
  69:./libDaisy/src/daisy_core.h **** FORCE_INLINE float cube(float x)
  70:./libDaisy/src/daisy_core.h **** {
  71:./libDaisy/src/daisy_core.h ****     return (x * x) * x;
ARM GAS  /var/folders/s6/2bsynnl15rj0bwtb9pgx4dc00000gn/T//cc76hY55.s 			page 176


  72:./libDaisy/src/daisy_core.h **** }
  73:./libDaisy/src/daisy_core.h **** 
  74:./libDaisy/src/daisy_core.h **** /** 
  75:./libDaisy/src/daisy_core.h ****     Converts unsigned 8-bit to float
  76:./libDaisy/src/daisy_core.h ****     \param x Number to be scaled.
  77:./libDaisy/src/daisy_core.h ****     \return Scaled number.
  78:./libDaisy/src/daisy_core.h **** */
  79:./libDaisy/src/daisy_core.h **** FORCE_INLINE float u82f(uint8_t x)
  80:./libDaisy/src/daisy_core.h **** {
  81:./libDaisy/src/daisy_core.h ****     return ((float)x - 127.f) * U82F_SCALE;
  82:./libDaisy/src/daisy_core.h **** }
  83:./libDaisy/src/daisy_core.h **** 
  84:./libDaisy/src/daisy_core.h **** /**
  85:./libDaisy/src/daisy_core.h ****     Converts float to unsigned 8-bit
  86:./libDaisy/src/daisy_core.h **** */
  87:./libDaisy/src/daisy_core.h **** FORCE_INLINE uint8_t f2u8(float x)
  88:./libDaisy/src/daisy_core.h **** {
  89:./libDaisy/src/daisy_core.h ****     x = x <= FBIPMIN ? FBIPMIN : x;
  90:./libDaisy/src/daisy_core.h ****     x = x >= FBIPMAX ? FBIPMAX : x;
  91:./libDaisy/src/daisy_core.h ****     return (uint8_t)((x * F2U8_SCALE) + F2U8_SCALE);
  92:./libDaisy/src/daisy_core.h **** }
  93:./libDaisy/src/daisy_core.h **** 
  94:./libDaisy/src/daisy_core.h **** 
  95:./libDaisy/src/daisy_core.h **** /** 
  96:./libDaisy/src/daisy_core.h ****     Converts Signed 8-bit to float
  97:./libDaisy/src/daisy_core.h ****     \param x Number to be scaled.
  98:./libDaisy/src/daisy_core.h ****     \return Scaled number.
  99:./libDaisy/src/daisy_core.h **** */
 100:./libDaisy/src/daisy_core.h **** FORCE_INLINE float s82f(int8_t x)
 101:./libDaisy/src/daisy_core.h **** {
 102:./libDaisy/src/daisy_core.h ****     return (float)x * S82F_SCALE;
 103:./libDaisy/src/daisy_core.h **** }
 104:./libDaisy/src/daisy_core.h **** 
 105:./libDaisy/src/daisy_core.h **** /**
 106:./libDaisy/src/daisy_core.h ****     Converts float to Signed 8-bit
 107:./libDaisy/src/daisy_core.h **** */
 108:./libDaisy/src/daisy_core.h **** FORCE_INLINE int8_t f2s8(float x)
 109:./libDaisy/src/daisy_core.h **** {
 110:./libDaisy/src/daisy_core.h ****     x = x <= FBIPMIN ? FBIPMIN : x;
 111:./libDaisy/src/daisy_core.h ****     x = x >= FBIPMAX ? FBIPMAX : x;
 112:./libDaisy/src/daisy_core.h ****     return (int32_t)(x * F2S8_SCALE);
 113:./libDaisy/src/daisy_core.h **** }
 114:./libDaisy/src/daisy_core.h **** 
 115:./libDaisy/src/daisy_core.h **** /** 
 116:./libDaisy/src/daisy_core.h ****     Converts Signed 16-bit to float
 117:./libDaisy/src/daisy_core.h ****     \param x Number to be scaled.
 118:./libDaisy/src/daisy_core.h ****     \return Scaled number.
 119:./libDaisy/src/daisy_core.h **** */
 120:./libDaisy/src/daisy_core.h **** FORCE_INLINE float s162f(int16_t x)
 121:./libDaisy/src/daisy_core.h **** {
 122:./libDaisy/src/daisy_core.h ****     return (float)x * S162F_SCALE;
 123:./libDaisy/src/daisy_core.h **** }
 124:./libDaisy/src/daisy_core.h **** 
 125:./libDaisy/src/daisy_core.h **** /**
 126:./libDaisy/src/daisy_core.h ****     Converts float to Signed 16-bit
 127:./libDaisy/src/daisy_core.h **** */
 128:./libDaisy/src/daisy_core.h **** FORCE_INLINE int16_t f2s16(float x)
ARM GAS  /var/folders/s6/2bsynnl15rj0bwtb9pgx4dc00000gn/T//cc76hY55.s 			page 177


 129:./libDaisy/src/daisy_core.h **** {
 130:./libDaisy/src/daisy_core.h ****     x = x <= FBIPMIN ? FBIPMIN : x;
 131:./libDaisy/src/daisy_core.h ****     x = x >= FBIPMAX ? FBIPMAX : x;
 132:./libDaisy/src/daisy_core.h ****     return (int32_t)(x * F2S16_SCALE);
 133:./libDaisy/src/daisy_core.h **** }
 134:./libDaisy/src/daisy_core.h **** 
 135:./libDaisy/src/daisy_core.h **** /**
 136:./libDaisy/src/daisy_core.h ****     Converts Signed 24-bit to float
 137:./libDaisy/src/daisy_core.h ****  */
 138:./libDaisy/src/daisy_core.h **** FORCE_INLINE float s242f(int32_t x)
 139:./libDaisy/src/daisy_core.h **** {
 140:./libDaisy/src/daisy_core.h ****     x = (x ^ S24SIGN) - S24SIGN; //sign extend aka ((x<<8)>>8)
 141:./libDaisy/src/daisy_core.h ****     return (float)x * S242F_SCALE;
 142:./libDaisy/src/daisy_core.h **** }
 143:./libDaisy/src/daisy_core.h **** /**
 144:./libDaisy/src/daisy_core.h ****     Converts float to Signed 24-bit
 145:./libDaisy/src/daisy_core.h ****  */
 146:./libDaisy/src/daisy_core.h **** FORCE_INLINE int32_t f2s24(float x)
 147:./libDaisy/src/daisy_core.h **** {
 148:./libDaisy/src/daisy_core.h ****     x = x <= FBIPMIN ? FBIPMIN : x;
 149:./libDaisy/src/daisy_core.h ****     x = x >= FBIPMAX ? FBIPMAX : x;
 150:./libDaisy/src/daisy_core.h ****     return (int32_t)(x * F2S24_SCALE);
 151:./libDaisy/src/daisy_core.h **** }
 152:./libDaisy/src/daisy_core.h **** 
 153:./libDaisy/src/daisy_core.h **** /**
 154:./libDaisy/src/daisy_core.h ****     Converts Signed 32-bit to float
 155:./libDaisy/src/daisy_core.h ****  */
 156:./libDaisy/src/daisy_core.h **** FORCE_INLINE float s322f(int32_t x)
 157:./libDaisy/src/daisy_core.h **** {
 158:./libDaisy/src/daisy_core.h ****     return (float)x * S322F_SCALE;
 159:./libDaisy/src/daisy_core.h **** }
 160:./libDaisy/src/daisy_core.h **** /**
 161:./libDaisy/src/daisy_core.h ****     Converts float to Signed 24-bit
 162:./libDaisy/src/daisy_core.h ****  */
 163:./libDaisy/src/daisy_core.h **** FORCE_INLINE int32_t f2s32(float x)
 164:./libDaisy/src/daisy_core.h **** {
 165:./libDaisy/src/daisy_core.h ****     x = x <= FBIPMIN ? FBIPMIN : x;
 166:./libDaisy/src/daisy_core.h ****     x = x >= FBIPMAX ? FBIPMAX : x;
 167:./libDaisy/src/daisy_core.h ****     return (int32_t)(x * F2S32_SCALE);
 168:./libDaisy/src/daisy_core.h **** }
 169:./libDaisy/src/daisy_core.h **** 
 170:./libDaisy/src/daisy_core.h **** 
 171:./libDaisy/src/daisy_core.h **** /** Enums and a simple struct for defining a hardware pin on the MCU
 172:./libDaisy/src/daisy_core.h ****  *  These correlate with the stm32 datasheet, and are used to configure
 173:./libDaisy/src/daisy_core.h ****  *  the hardware.
 174:./libDaisy/src/daisy_core.h ****  * 
 175:./libDaisy/src/daisy_core.h ****  *  This along with the dsy_gpio_pin class should no longer be used.
 176:./libDaisy/src/daisy_core.h ****  *  They are available for backwards compatability. 
 177:./libDaisy/src/daisy_core.h ****  * 
 178:./libDaisy/src/daisy_core.h ****  *  Please use GPIOPort enum and the Pin struct instead.
 179:./libDaisy/src/daisy_core.h ****  */
 180:./libDaisy/src/daisy_core.h **** typedef enum
 181:./libDaisy/src/daisy_core.h **** {
 182:./libDaisy/src/daisy_core.h ****     DSY_GPIOA, /**< & */
 183:./libDaisy/src/daisy_core.h ****     DSY_GPIOB, /**< & */
 184:./libDaisy/src/daisy_core.h ****     DSY_GPIOC, /**< & */
 185:./libDaisy/src/daisy_core.h ****     DSY_GPIOD, /**< & */
ARM GAS  /var/folders/s6/2bsynnl15rj0bwtb9pgx4dc00000gn/T//cc76hY55.s 			page 178


 186:./libDaisy/src/daisy_core.h ****     DSY_GPIOE, /**< & */
 187:./libDaisy/src/daisy_core.h ****     DSY_GPIOF, /**< & */
 188:./libDaisy/src/daisy_core.h ****     DSY_GPIOG, /**< & */
 189:./libDaisy/src/daisy_core.h ****     DSY_GPIOH, /**< & */
 190:./libDaisy/src/daisy_core.h ****     DSY_GPIOI, /**< & */
 191:./libDaisy/src/daisy_core.h ****     DSY_GPIOJ, /**< & */
 192:./libDaisy/src/daisy_core.h ****     DSY_GPIOK, /**< & */
 193:./libDaisy/src/daisy_core.h ****     DSY_GPIOX, /** This is a non-existant port for unsupported bits of hardware. */
 194:./libDaisy/src/daisy_core.h ****     DSY_GPIO_LAST, /** Final enum member */
 195:./libDaisy/src/daisy_core.h **** } dsy_gpio_port;
 196:./libDaisy/src/daisy_core.h **** 
 197:./libDaisy/src/daisy_core.h **** /** Hardware define pins 
 198:./libDaisy/src/daisy_core.h ****  *  
 199:./libDaisy/src/daisy_core.h ****  *  The dsy_gpio_pin struct should no longer be used, and is only available for
 200:./libDaisy/src/daisy_core.h ****  *  backwards compatability.
 201:./libDaisy/src/daisy_core.h ****  * 
 202:./libDaisy/src/daisy_core.h ****  *  Please use Pin struct instead.
 203:./libDaisy/src/daisy_core.h ****  */
 204:./libDaisy/src/daisy_core.h **** typedef struct
 205:./libDaisy/src/daisy_core.h **** {
 206:./libDaisy/src/daisy_core.h ****     dsy_gpio_port port; /**< & */
 207:./libDaisy/src/daisy_core.h ****     uint8_t       pin;  /**< number 0-15 */
 208:./libDaisy/src/daisy_core.h **** } dsy_gpio_pin;
 209:./libDaisy/src/daisy_core.h **** 
 210:./libDaisy/src/daisy_core.h **** /** Helper for creating pins from port/pin combos easily
 211:./libDaisy/src/daisy_core.h ****  * 
 212:./libDaisy/src/daisy_core.h ****  *  The dsy_gpio_pin struct should no longer be used, and is only available for
 213:./libDaisy/src/daisy_core.h ****  *  backwards compatability.
 214:./libDaisy/src/daisy_core.h ****  * 
 215:./libDaisy/src/daisy_core.h ****  *  Please use Pin struct instead.
 216:./libDaisy/src/daisy_core.h **** */
 217:./libDaisy/src/daisy_core.h **** FORCE_INLINE dsy_gpio_pin dsy_pin(dsy_gpio_port port, uint8_t pin)
 218:./libDaisy/src/daisy_core.h **** {
 219:./libDaisy/src/daisy_core.h ****     dsy_gpio_pin p;
 220:./libDaisy/src/daisy_core.h ****     p.port = port;
 221:./libDaisy/src/daisy_core.h ****     p.pin  = pin;
 222:./libDaisy/src/daisy_core.h ****     return p;
 223:./libDaisy/src/daisy_core.h **** }
 224:./libDaisy/src/daisy_core.h **** 
 225:./libDaisy/src/daisy_core.h **** /** Helper for testing sameness of two dsy_gpio_pins
 226:./libDaisy/src/daisy_core.h ****  *  \return    1 if same, 0 if different
 227:./libDaisy/src/daisy_core.h ****  * 
 228:./libDaisy/src/daisy_core.h ****  *  The dsy_gpio_pin struct should no longer be used, and is only available for
 229:./libDaisy/src/daisy_core.h ****  *  backwards compatability.
 230:./libDaisy/src/daisy_core.h ****  * 
 231:./libDaisy/src/daisy_core.h ****  *  Please use Pin struct instead.
 232:./libDaisy/src/daisy_core.h ****  */
 233:./libDaisy/src/daisy_core.h **** FORCE_INLINE uint8_t dsy_pin_cmp(dsy_gpio_pin *a, dsy_gpio_pin *b)
 234:./libDaisy/src/daisy_core.h **** {
 235:./libDaisy/src/daisy_core.h ****     return ((a->port == b->port) && (a->pin == b->pin));
 236:./libDaisy/src/daisy_core.h **** }
 237:./libDaisy/src/daisy_core.h **** 
 238:./libDaisy/src/daisy_core.h **** #ifdef __cplusplus
 239:./libDaisy/src/daisy_core.h **** 
 240:./libDaisy/src/daisy_core.h **** namespace daisy
 241:./libDaisy/src/daisy_core.h **** {
 242:./libDaisy/src/daisy_core.h **** /** @brief GPIO Port names */
ARM GAS  /var/folders/s6/2bsynnl15rj0bwtb9pgx4dc00000gn/T//cc76hY55.s 			page 179


 243:./libDaisy/src/daisy_core.h **** enum GPIOPort
 244:./libDaisy/src/daisy_core.h **** {
 245:./libDaisy/src/daisy_core.h ****     PORTA, /**< Port A */
 246:./libDaisy/src/daisy_core.h ****     PORTB, /**< Port B */
 247:./libDaisy/src/daisy_core.h ****     PORTC, /**< Port C */
 248:./libDaisy/src/daisy_core.h ****     PORTD, /**< Port D */
 249:./libDaisy/src/daisy_core.h ****     PORTE, /**< Port E */
 250:./libDaisy/src/daisy_core.h ****     PORTF, /**< Port F */
 251:./libDaisy/src/daisy_core.h ****     PORTG, /**< Port G */
 252:./libDaisy/src/daisy_core.h ****     PORTH, /**< Port H */
 253:./libDaisy/src/daisy_core.h ****     PORTI, /**< Port I */
 254:./libDaisy/src/daisy_core.h ****     PORTJ, /**< Port J */
 255:./libDaisy/src/daisy_core.h ****     PORTK, /**< Port K */
 256:./libDaisy/src/daisy_core.h ****     PORTX, /**< Used as a dummy port to signal an invalid pin. */
 257:./libDaisy/src/daisy_core.h **** };
 258:./libDaisy/src/daisy_core.h **** 
 259:./libDaisy/src/daisy_core.h **** /** @brief representation of hardware port/pin combination */
 260:./libDaisy/src/daisy_core.h **** struct Pin
 261:./libDaisy/src/daisy_core.h **** {
 262:./libDaisy/src/daisy_core.h ****     GPIOPort port;
 263:./libDaisy/src/daisy_core.h ****     uint8_t  pin;
 264:./libDaisy/src/daisy_core.h **** 
 265:./libDaisy/src/daisy_core.h ****     /** @brief Constructor creates a valid pin. 
 266:./libDaisy/src/daisy_core.h ****      *  @param pt GPIOPort between PA, and PK corresponding to STM32 Port.
 267:./libDaisy/src/daisy_core.h ****      *  @param pn pin number in range of 0-15
 268:./libDaisy/src/daisy_core.h ****     */
 269:./libDaisy/src/daisy_core.h ****     constexpr Pin(const GPIOPort pt, const uint8_t pn) : port(pt), pin(pn) {}
 270:./libDaisy/src/daisy_core.h **** 
 271:./libDaisy/src/daisy_core.h ****     /** @brief Basic Constructor creates an invalid Pin object */
 272:./libDaisy/src/daisy_core.h ****     constexpr Pin() : port(PORTX), pin(255) {}
 2544              		.loc 28 272 15 view .LVU633
 2545              		.loc 28 272 15 is_stmt 0 view .LVU634
 2546              	.LBE977:
 2547              	.LBE976:
 2548              	.LBE975:
 2549              	.LBE974:
 2550              	.LBE973:
 2551              	.LBE972:
 2552              	.LBB986:
 2553              	.LBI986:
 2554              		.loc 27 74 5 is_stmt 1 view .LVU635
 2555              	.LBB987:
 2556              	.LBB988:
 2557              	.LBI988:
  68:./libDaisy/src/per/gpio.h ****         : pin(), mode(Mode::INPUT), pull(Pull::NOPULL), speed(Speed::LOW)
 2558              		.loc 27 68 9 view .LVU636
 2559              	.LBB989:
 2560              	.LBB990:
 2561              	.LBB991:
 2562              	.LBI991:
 2563              		.loc 28 272 15 view .LVU637
 2564              		.loc 28 272 15 is_stmt 0 view .LVU638
 2565              	.LBE991:
 2566              	.LBE990:
 2567              	.LBE989:
 2568              	.LBE988:
 2569              	.LBE987:
ARM GAS  /var/folders/s6/2bsynnl15rj0bwtb9pgx4dc00000gn/T//cc76hY55.s 			page 180


 2570              	.LBE986:
 2571              	.LBE955:
 184:Frame.h       ****         m_FIFO_in = 0;
 2572              		.loc 24 184 9 is_stmt 1 view .LVU639
 185:Frame.h       ****         m_FIFO_out = 0;
 2573              		.loc 24 185 9 view .LVU640
 186:Frame.h       ****         m_FIFO_NbElements = 0;
 2574              		.loc 24 186 9 view .LVU641
 187:Frame.h       ****         m_Busy = false;
 2575              		.loc 24 187 9 view .LVU642
 2576              		.loc 24 187 9 is_stmt 0 view .LVU643
 2577              	.LBE954:
 2578              	.LBE953:
 2579              	.LBE952:
 2580              	.LBB1025:
 2581              	.LBI1025:
 109:Frame.h       ****         m_R = R;
 2582              		.loc 24 109 5 is_stmt 1 view .LVU644
 2583              	.LBE1025:
 2584              	.LBE951:
 2585              	.LBE950:
 2586              	.LBE949:
 2587              	.LBE912:
 2588              	.LBE1053:
 110:Frame.h       ****         m_G = G;
 2589              		.loc 24 110 9 view .LVU645
 111:Frame.h       ****         m_B = B;
 2590              		.loc 24 111 9 view .LVU646
 112:Frame.h       ****         m_Trans = Trans;
 2591              		.loc 24 112 9 view .LVU647
 113:Frame.h       ****     }
 2592              		.loc 24 113 9 view .LVU648
 2593              	.LBB1054:
 2594              	.LBB1050:
 2595              	.LBB1043:
 2596              	.LBB1039:
 2597              	.LBB1032:
 2598              	.LBB1026:
 2599              	.LBI1026:
 109:Frame.h       ****         m_R = R;
 2600              		.loc 24 109 5 view .LVU649
 2601              	.LBE1026:
 2602              	.LBE1032:
 2603              	.LBE1039:
 2604              	.LBE1043:
 2605              	.LBE1050:
 2606              	.LBE1054:
 110:Frame.h       ****         m_G = G;
 2607              		.loc 24 110 9 view .LVU650
 111:Frame.h       ****         m_B = B;
 2608              		.loc 24 111 9 view .LVU651
 112:Frame.h       ****         m_Trans = Trans;
 2609              		.loc 24 112 9 view .LVU652
 113:Frame.h       ****     }
 2610              		.loc 24 113 9 view .LVU653
 2611              	.LBB1055:
 2612              	.LBB1051:
ARM GAS  /var/folders/s6/2bsynnl15rj0bwtb9pgx4dc00000gn/T//cc76hY55.s 			page 181


 2613              	.LBB1044:
 2614              	.LBB1040:
 2615              	.LBB1033:
 2616              	.LBB1027:
 2617              	.LBB1020:
 2618              	.LBB1015:
 2619              	.LBB1010:
 2620              	.LBB1000:
 2621              	.LBB957:
 2622              	.LBB958:
 2623              		.loc 26 106 33 is_stmt 0 view .LVU654
 2624 0076 204B     		ldr	r3, .L157+36
 2625 0078 0022     		movs	r2, #0
 2626              	.LBE958:
 2627              	.LBE957:
 2628              	.LBE1000:
 2629              	.LBB1001:
 2630              	.LBB968:
 2631              	.LBB964:
  90:./libDaisy/src/per/spi.h ****             clock_polarity = ClockPolarity::LOW;
 2632              		.loc 26 90 28 view .LVU655
 2633 007a 0824     		movs	r4, #8
 2634              	.LBE964:
 2635              	.LBE968:
 2636              	.LBE1001:
 2637              	.LBE1010:
 2638              	.LBE1015:
 2639              	.LBE1020:
 2640              	.LBE1027:
 2641              	.LBE1033:
 131:GFX.h         **** 
 2642              		.loc 12 131 12 view .LVU656
 2643 007c 4FF60B71 		movw	r1, #65291
 2644              	.LBB1034:
 2645              	.LBB1028:
 2646              	.LBB1021:
 2647              	.LBB1016:
 2648              	.LBB1011:
 2649              	.LBB1002:
 2650              	.LBB969:
 2651              	.LBB965:
  93:./libDaisy/src/per/spi.h ****         }
 2652              		.loc 26 93 28 view .LVU657
 2653 0080 0220     		movs	r0, #2
 2654              	.LBE965:
 2655              	.LBE969:
 2656              	.LBE1002:
 2657              	.LBE1011:
 2658              	.LBE1016:
 2659              	.LBE1021:
 2660              	.LBE1028:
 2661              	.LBE1034:
 131:GFX.h         **** 
 2662              		.loc 12 131 12 view .LVU658
 2663 0082 4FF0FF35 		mov	r5, #-1
 2664              	.LBB1035:
 2665              	.LBB1029:
ARM GAS  /var/folders/s6/2bsynnl15rj0bwtb9pgx4dc00000gn/T//cc76hY55.s 			page 182


 2666              	.LBB1022:
 2667              	.LBB1017:
 2668              	.LBB1012:
 2669              	.LBB1003:
 2670              	.LBB960:
 2671              	.LBB959:
 2672              		.loc 26 106 33 view .LVU659
 2673 0086 1A60     		str	r2, [r3]
 2674              	.LBE959:
 2675              	.LBE960:
 2676              	.LBE1003:
 2677              	.LBB1004:
 2678              	.LBB970:
 2679              	.LBB966:
  92:./libDaisy/src/per/spi.h ****             baud_prescaler = BaudPrescaler::PS_8;
 2680              		.loc 26 92 28 view .LVU660
 2681 0088 1A62     		str	r2, [r3, #32]
  93:./libDaisy/src/per/spi.h ****         }
 2682              		.loc 26 93 28 view .LVU661
 2683 008a 9862     		str	r0, [r3, #40]
 2684              	.LBE966:
 2685              	.LBE970:
 2686              	.LBE1004:
 2687              	.LBE1012:
 2688              	.LBE1017:
 2689              	.LBE1022:
 2690              	.LBE1029:
 2691              	.LBE1035:
 131:GFX.h         **** 
 2692              		.loc 12 131 12 view .LVU662
 2693 008c 5A66     		str	r2, [r3, #100]
 2694              	.LBB1036:
 2695 008e C3F8DC20 		str	r2, [r3, #220]
 2696              	.LBE1036:
 2697              	.LBE1040:
 2698              	.LBE1044:
  36:TestTFT.cpp   **** //cFont FreeSans30B(&FreeSansBold30pt7b);
 2699              		.loc 8 36 33 view .LVU663
 2700 0092 1A48     		ldr	r0, .L157+40
 2701              	.LBB1045:
 2702              	.LBB1041:
 2703              	.LBB1037:
 2704              	.LBB1030:
 2705              	.LBB1023:
 2706              	.LBB1018:
 2707              	.LBB1013:
 2708              	.LBB1005:
 2709              	.LBB971:
 2710              	.LBB967:
  91:./libDaisy/src/per/spi.h ****             clock_phase    = ClockPhase::ONE_EDGE;
 2711              		.loc 26 91 28 view .LVU664
 2712 0094 C3E90642 		strd	r4, r2, [r3, #24]
 2713              	.LBE967:
 2714              	.LBE971:
 2715              	.LBE1005:
 2716              	.LBE1013:
 2717              	.LBE1018:
ARM GAS  /var/folders/s6/2bsynnl15rj0bwtb9pgx4dc00000gn/T//cc76hY55.s 			page 183


 2718              	.LBE1023:
 2719              	.LBE1030:
 2720              	.LBE1037:
 131:GFX.h         **** 
 2721              		.loc 12 131 12 view .LVU665
 2722 0098 4FF07F44 		mov	r4, #-16777216
 2723              	.LBB1038:
 2724              	.LBB1031:
 2725              	.LBB1024:
 2726              	.LBB1019:
 2727              	.LBB1014:
 2728              	.LBB1006:
 2729              	.LBB984:
 2730              	.LBB982:
 2731              	.LBB980:
 2732              	.LBB978:
  69:./libDaisy/src/per/gpio.h ****         {
 2733              		.loc 27 69 73 view .LVU666
 2734 009c C3E90B12 		strd	r1, r2, [r3, #44]
 2735              	.LBE978:
 2736              	.LBE980:
 2737              	.LBE982:
 2738              	.LBE984:
 2739              	.LBE1006:
 2740              	.LBB1007:
 2741              	.LBB998:
 2742              	.LBB996:
 2743              	.LBB994:
 2744              	.LBB992:
 2745 00a0 C3E91012 		strd	r1, r2, [r3, #64]
 2746              	.LBE992:
 2747              	.LBE994:
 2748              	.LBE996:
 2749              	.LBE998:
 2750              	.LBE1007:
 2751              	.LBB1008:
 2752              	.LBB985:
 2753              	.LBB983:
 2754              	.LBB981:
 2755              	.LBB979:
 2756 00a4 C3E90D22 		strd	r2, r2, [r3, #52]
 2757              	.LBE979:
 2758              	.LBE981:
 2759              	.LBE983:
 2760              	.LBE985:
 2761              	.LBE1008:
 2762              	.LBB1009:
 2763              	.LBB999:
 2764              	.LBB997:
 2765              	.LBB995:
 2766              	.LBB993:
 2767 00a8 C3E91222 		strd	r2, r2, [r3, #72]
 2768              	.LBE993:
 2769              	.LBE995:
 2770              	.LBE997:
 2771              	.LBE999:
 2772              	.LBE1009:
ARM GAS  /var/folders/s6/2bsynnl15rj0bwtb9pgx4dc00000gn/T//cc76hY55.s 			page 184


 2773              	.LBE1014:
 2774              	.LBE1019:
 2775              	.LBE1024:
 2776              	.LBE1031:
 2777              	.LBE1038:
 131:GFX.h         **** 
 2778              		.loc 12 131 12 view .LVU667
 2779 00ac C3E91522 		strd	r2, r2, [r3, #84]
 2780 00b0 C3E91722 		strd	r2, r2, [r3, #92]
 2781 00b4 C3E93322 		strd	r2, r2, [r3, #204]
 2782 00b8 C3E93522 		strd	r2, r2, [r3, #212]
 2783              	.LBE1041:
 2784              	.LBE1045:
  36:TestTFT.cpp   **** //cFont FreeSans30B(&FreeSansBold30pt7b);
 2785              		.loc 8 36 33 view .LVU668
 2786 00bc 1049     		ldr	r1, .L157+44
 2787              	.LBB1046:
 2788              	.LBB1042:
 131:GFX.h         **** 
 2789              		.loc 12 131 12 view .LVU669
 2790 00be C3E93854 		strd	r5, r4, [r3, #224]
 2791              	.LVL192:
 131:GFX.h         **** 
 2792              		.loc 12 131 12 view .LVU670
 2793              	.LBE1042:
 2794              	.LBE1046:
  36:TestTFT.cpp   **** //cFont FreeSans30B(&FreeSansBold30pt7b);
 2795              		.loc 8 36 33 view .LVU671
 2796 00c2 FFF7FEFF 		bl	_ZN5cFontC1EPK7GFXfont
 2797              	.LVL193:
 2798              	.LBB1047:
 2799              	.LBI1047:
  20:./libDaisy/src/hid/encoder.h ****     ~Encoder() {}
 2800              		.loc 1 20 5 is_stmt 1 view .LVU672
 2801              	.LBB1048:
 2802              	.LBB1049:
 2803              	.LBI1049:
  41:./libDaisy/src/hid/switch.h ****     ~Switch() {}
 2804              		.loc 2 41 5 view .LVU673
  41:./libDaisy/src/hid/switch.h ****     ~Switch() {}
 2805              		.loc 2 41 5 is_stmt 0 view .LVU674
 2806              	.LBE1049:
 2807              	.LBE1048:
 2808              	.LBE1047:
  40:TestTFT.cpp   **** 
 2809              		.loc 8 40 9 view .LVU675
 2810 00c6 044A     		ldr	r2, .L157+4
 2811 00c8 0E49     		ldr	r1, .L157+48
 2812 00ca 0F48     		ldr	r0, .L157+52
 2813              	.LBE1051:
 2814              	.LBE1055:
 2815              		.loc 8 227 1 view .LVU676
 2816 00cc BDE83840 		pop	{r3, r4, r5, lr}
 2817              		.cfi_restore 14
 2818              		.cfi_restore 5
 2819              		.cfi_restore 4
 2820              		.cfi_restore 3
ARM GAS  /var/folders/s6/2bsynnl15rj0bwtb9pgx4dc00000gn/T//cc76hY55.s 			page 185


 2821              		.cfi_def_cfa_offset 0
 2822              	.LBB1056:
 2823              	.LBB1052:
  40:TestTFT.cpp   **** 
 2824              		.loc 8 40 9 view .LVU677
 2825 00d0 FFF7FEBF 		b	__aeabi_atexit
 2826              	.LVL194:
 2827              	.L158:
 2828              		.align	2
 2829              	.L157:
 2830 00d4 00000000 		.word	.LANCHOR0
 2831 00d8 00000000 		.word	__dso_handle
 2832 00dc 00000000 		.word	_ZN7SpiritsD1Ev
 2833 00e0 00000000 		.word	.LANCHOR1
 2834 00e4 00000000 		.word	.LANCHOR2
 2835 00e8 00000000 		.word	.LANCHOR4
 2836 00ec 00000000 		.word	_ZN5daisy9DaisySeedD1Ev
 2837 00f0 00000000 		.word	__Fifo
 2838 00f4 0A3C0000 		.word	__Fifo+15370
 2839 00f8 00000000 		.word	.LANCHOR5
 2840 00fc 00000000 		.word	.LANCHOR9
 2841 0100 00000000 		.word	.LANCHOR8
 2842 0104 00000000 		.word	_ZN5daisy7EncoderD1Ev
 2843 0108 00000000 		.word	.LANCHOR3
 2844              	.LBE1052:
 2845              	.LBE1056:
 2846              		.cfi_endproc
 2847              	.LFE5668:
 2849              		.section	.init_array,"aw",%init_array
 2850              		.align	2
 2851 0000 00000000 		.word	_GLOBAL__sub_I_spirits(target1)
 2852              		.global	encoder
 2853              		.global	lastTriggerTime
 2854              		.global	FreeSans15
 2855              		.global	__Display
 2856              		.global	__FrameBuff
 2857              		.global	__Fifo
 2858              		.global	projectBPM
 2859              		.global	hw
 2860              		.global	option3Sound
 2861              		.global	sound2
 2862              		.global	spirits
 2863              		.section	.bss.FreeSans15,"aw",%nobits
 2864              		.align	2
 2865              		.set	.LANCHOR9,. + 0
 2868              	FreeSans15:
 2869 0000 00000000 		.space	12
 2869      00000000 
 2869      00000000 
 2870              		.section	.bss.__Display,"aw",%nobits
 2871              		.align	2
 2872              		.set	.LANCHOR5,. + 0
 2875              	__Display:
 2876 0000 00000000 		.space	232
 2876      00000000 
 2876      00000000 
 2876      00000000 
ARM GAS  /var/folders/s6/2bsynnl15rj0bwtb9pgx4dc00000gn/T//cc76hY55.s 			page 186


 2876      00000000 
 2877              		.section	.bss.encoder,"aw",%nobits
 2878              		.align	2
 2879              		.set	.LANCHOR3,. + 0
 2882              	encoder:
 2883 0000 00000000 		.space	40
 2883      00000000 
 2883      00000000 
 2883      00000000 
 2883      00000000 
 2884              		.section	.bss.hw,"aw",%nobits
 2885              		.align	2
 2886              		.set	.LANCHOR4,. + 0
 2889              	hw:
 2890 0000 00000000 		.space	64
 2890      00000000 
 2890      00000000 
 2890      00000000 
 2890      00000000 
 2891              		.section	.bss.lastTriggerTime,"aw",%nobits
 2892              		.align	2
 2895              	lastTriggerTime:
 2896 0000 00000000 		.space	4
 2897              		.section	.bss.option3Sound,"aw",%nobits
 2898              		.align	2
 2899              		.set	.LANCHOR2,. + 0
 2902              	option3Sound:
 2903 0000 00000000 		.space	1028
 2903      00000000 
 2903      00000000 
 2903      00000000 
 2903      00000000 
 2904              		.section	.bss.sound2,"aw",%nobits
 2905              		.align	2
 2906              		.set	.LANCHOR1,. + 0
 2909              	sound2:
 2910 0000 00000000 		.space	1028
 2910      00000000 
 2910      00000000 
 2910      00000000 
 2910      00000000 
 2911              		.section	.bss.spirits,"aw",%nobits
 2912              		.align	2
 2913              		.set	.LANCHOR0,. + 0
 2916              	spirits:
 2917 0000 00000000 		.space	1028
 2917      00000000 
 2917      00000000 
 2917      00000000 
 2917      00000000 
 2918              		.section	.data.projectBPM,"aw"
 2919              		.align	2
 2920              		.set	.LANCHOR7,. + 0
 2923              	projectBPM:
 2924 0000 78000000 		.word	120
 2925              		.section	.rodata.CSWTCH.96,"a"
 2926              		.align	2
ARM GAS  /var/folders/s6/2bsynnl15rj0bwtb9pgx4dc00000gn/T//cc76hY55.s 			page 187


 2927              		.set	.LANCHOR6,. + 0
 2930              	CSWTCH.96:
 2931 0000 08000000 		.word	8
 2932 0004 05000000 		.word	5
 2933 0008 03000000 		.word	3
 2934 000c 04000000 		.word	4
 2935 0010 01000000 		.word	1
 2936              		.section	.rodata._ZL14FreeSans15pt7b,"a"
 2937              		.align	2
 2938              		.set	.LANCHOR8,. + 0
 2941              	_ZL14FreeSans15pt7b:
 2942 0000 00000000 		.word	_ZL21FreeSans15pt7bBitmaps
 2943 0004 00000000 		.word	_ZL20FreeSans15pt7bGlyphs
 2944 0008 2000     		.short	32
 2945 000a 7E00     		.short	126
 2946 000c 22       		.byte	34
 2947 000d 000000   		.space	3
 2948              		.section	.rodata._ZL20FreeSans15pt7bGlyphs,"a"
 2949              		.align	2
 2952              	_ZL20FreeSans15pt7bGlyphs:
 2953 0000 0000     		.short	0
 2954 0002 01       		.byte	1
 2955 0003 01       		.byte	1
 2956 0004 0E       		.byte	14
 2957 0005 00       		.byte	0
 2958 0006 00       		.byte	0
 2959 0007 00       		.space	1
 2960 0008 0100     		.short	1
 2961 000a 02       		.byte	2
 2962 000b 0F       		.byte	15
 2963 000c 0E       		.byte	14
 2964 000d 06       		.byte	6
 2965 000e F2       		.byte	-14
 2966 000f 00       		.space	1
 2967 0010 0500     		.short	5
 2968 0012 08       		.byte	8
 2969 0013 07       		.byte	7
 2970 0014 0E       		.byte	14
 2971 0015 03       		.byte	3
 2972 0016 F3       		.byte	-13
 2973 0017 00       		.space	1
 2974 0018 0C00     		.short	12
 2975 001a 0A       		.byte	10
 2976 001b 10       		.byte	16
 2977 001c 0E       		.byte	14
 2978 001d 02       		.byte	2
 2979 001e F2       		.byte	-14
 2980 001f 00       		.space	1
 2981 0020 2000     		.short	32
 2982 0022 08       		.byte	8
 2983 0023 11       		.byte	17
 2984 0024 0E       		.byte	14
 2985 0025 03       		.byte	3
 2986 0026 F2       		.byte	-14
 2987 0027 00       		.space	1
 2988 0028 3100     		.short	49
 2989 002a 0A       		.byte	10
ARM GAS  /var/folders/s6/2bsynnl15rj0bwtb9pgx4dc00000gn/T//cc76hY55.s 			page 188


 2990 002b 0E       		.byte	14
 2991 002c 0E       		.byte	14
 2992 002d 02       		.byte	2
 2993 002e F3       		.byte	-13
 2994 002f 00       		.space	1
 2995 0030 4300     		.short	67
 2996 0032 09       		.byte	9
 2997 0033 0C       		.byte	12
 2998 0034 0E       		.byte	14
 2999 0035 02       		.byte	2
 3000 0036 F5       		.byte	-11
 3001 0037 00       		.space	1
 3002 0038 5100     		.short	81
 3003 003a 03       		.byte	3
 3004 003b 07       		.byte	7
 3005 003c 0E       		.byte	14
 3006 003d 06       		.byte	6
 3007 003e F3       		.byte	-13
 3008 003f 00       		.space	1
 3009 0040 5400     		.short	84
 3010 0042 04       		.byte	4
 3011 0043 11       		.byte	17
 3012 0044 0E       		.byte	14
 3013 0045 07       		.byte	7
 3014 0046 F3       		.byte	-13
 3015 0047 00       		.space	1
 3016 0048 5D00     		.short	93
 3017 004a 04       		.byte	4
 3018 004b 11       		.byte	17
 3019 004c 0E       		.byte	14
 3020 004d 03       		.byte	3
 3021 004e F3       		.byte	-13
 3022 004f 00       		.space	1
 3023 0050 6600     		.short	102
 3024 0052 08       		.byte	8
 3025 0053 08       		.byte	8
 3026 0054 0E       		.byte	14
 3027 0055 03       		.byte	3
 3028 0056 F3       		.byte	-13
 3029 0057 00       		.space	1
 3030 0058 6E00     		.short	110
 3031 005a 0A       		.byte	10
 3032 005b 0B       		.byte	11
 3033 005c 0E       		.byte	14
 3034 005d 02       		.byte	2
 3035 005e F5       		.byte	-11
 3036 005f 00       		.space	1
 3037 0060 7C00     		.short	124
 3038 0062 05       		.byte	5
 3039 0063 06       		.byte	6
 3040 0064 0E       		.byte	14
 3041 0065 03       		.byte	3
 3042 0066 FE       		.byte	-2
 3043 0067 00       		.space	1
 3044 0068 8000     		.short	128
 3045 006a 0A       		.byte	10
 3046 006b 01       		.byte	1
ARM GAS  /var/folders/s6/2bsynnl15rj0bwtb9pgx4dc00000gn/T//cc76hY55.s 			page 189


 3047 006c 0E       		.byte	14
 3048 006d 02       		.byte	2
 3049 006e FA       		.byte	-6
 3050 006f 00       		.space	1
 3051 0070 8200     		.short	130
 3052 0072 04       		.byte	4
 3053 0073 03       		.byte	3
 3054 0074 0E       		.byte	14
 3055 0075 05       		.byte	5
 3056 0076 FE       		.byte	-2
 3057 0077 00       		.space	1
 3058 0078 8400     		.short	132
 3059 007a 08       		.byte	8
 3060 007b 12       		.byte	18
 3061 007c 0E       		.byte	14
 3062 007d 03       		.byte	3
 3063 007e F1       		.byte	-15
 3064 007f 00       		.space	1
 3065 0080 9600     		.short	150
 3066 0082 08       		.byte	8
 3067 0083 0F       		.byte	15
 3068 0084 0E       		.byte	14
 3069 0085 03       		.byte	3
 3070 0086 F2       		.byte	-14
 3071 0087 00       		.space	1
 3072 0088 A500     		.short	165
 3073 008a 08       		.byte	8
 3074 008b 0E       		.byte	14
 3075 008c 0E       		.byte	14
 3076 008d 03       		.byte	3
 3077 008e F3       		.byte	-13
 3078 008f 00       		.space	1
 3079 0090 B300     		.short	179
 3080 0092 09       		.byte	9
 3081 0093 0F       		.byte	15
 3082 0094 0E       		.byte	14
 3083 0095 02       		.byte	2
 3084 0096 F2       		.byte	-14
 3085 0097 00       		.space	1
 3086 0098 C400     		.short	196
 3087 009a 0A       		.byte	10
 3088 009b 0F       		.byte	15
 3089 009c 0E       		.byte	14
 3090 009d 02       		.byte	2
 3091 009e F2       		.byte	-14
 3092 009f 00       		.space	1
 3093 00a0 D700     		.short	215
 3094 00a2 09       		.byte	9
 3095 00a3 0E       		.byte	14
 3096 00a4 0E       		.byte	14
 3097 00a5 02       		.byte	2
 3098 00a6 F3       		.byte	-13
 3099 00a7 00       		.space	1
 3100 00a8 E700     		.short	231
 3101 00aa 0A       		.byte	10
 3102 00ab 0E       		.byte	14
 3103 00ac 0E       		.byte	14
ARM GAS  /var/folders/s6/2bsynnl15rj0bwtb9pgx4dc00000gn/T//cc76hY55.s 			page 190


 3104 00ad 02       		.byte	2
 3105 00ae F3       		.byte	-13
 3106 00af 00       		.space	1
 3107 00b0 F900     		.short	249
 3108 00b2 09       		.byte	9
 3109 00b3 0F       		.byte	15
 3110 00b4 0E       		.byte	14
 3111 00b5 03       		.byte	3
 3112 00b6 F2       		.byte	-14
 3113 00b7 00       		.space	1
 3114 00b8 0A01     		.short	266
 3115 00ba 09       		.byte	9
 3116 00bb 0E       		.byte	14
 3117 00bc 0E       		.byte	14
 3118 00bd 02       		.byte	2
 3119 00be F3       		.byte	-13
 3120 00bf 00       		.space	1
 3121 00c0 1A01     		.short	282
 3122 00c2 08       		.byte	8
 3123 00c3 0F       		.byte	15
 3124 00c4 0E       		.byte	14
 3125 00c5 03       		.byte	3
 3126 00c6 F2       		.byte	-14
 3127 00c7 00       		.space	1
 3128 00c8 2901     		.short	297
 3129 00ca 09       		.byte	9
 3130 00cb 0F       		.byte	15
 3131 00cc 0E       		.byte	14
 3132 00cd 03       		.byte	3
 3133 00ce F2       		.byte	-14
 3134 00cf 00       		.space	1
 3135 00d0 3A01     		.short	314
 3136 00d2 04       		.byte	4
 3137 00d3 0A       		.byte	10
 3138 00d4 0E       		.byte	14
 3139 00d5 05       		.byte	5
 3140 00d6 F7       		.byte	-9
 3141 00d7 00       		.space	1
 3142 00d8 3F01     		.short	319
 3143 00da 05       		.byte	5
 3144 00db 0D       		.byte	13
 3145 00dc 0E       		.byte	14
 3146 00dd 03       		.byte	3
 3147 00de F7       		.byte	-9
 3148 00df 00       		.space	1
 3149 00e0 4801     		.short	328
 3150 00e2 0A       		.byte	10
 3151 00e3 0B       		.byte	11
 3152 00e4 0E       		.byte	14
 3153 00e5 02       		.byte	2
 3154 00e6 F5       		.byte	-11
 3155 00e7 00       		.space	1
 3156 00e8 5601     		.short	342
 3157 00ea 0C       		.byte	12
 3158 00eb 05       		.byte	5
 3159 00ec 0E       		.byte	14
 3160 00ed 01       		.byte	1
ARM GAS  /var/folders/s6/2bsynnl15rj0bwtb9pgx4dc00000gn/T//cc76hY55.s 			page 191


 3161 00ee F8       		.byte	-8
 3162 00ef 00       		.space	1
 3163 00f0 5E01     		.short	350
 3164 00f2 0A       		.byte	10
 3165 00f3 0B       		.byte	11
 3166 00f4 0E       		.byte	14
 3167 00f5 02       		.byte	2
 3168 00f6 F5       		.byte	-11
 3169 00f7 00       		.space	1
 3170 00f8 6C01     		.short	364
 3171 00fa 08       		.byte	8
 3172 00fb 0E       		.byte	14
 3173 00fc 0E       		.byte	14
 3174 00fd 03       		.byte	3
 3175 00fe F3       		.byte	-13
 3176 00ff 00       		.space	1
 3177 0100 7A01     		.short	378
 3178 0102 09       		.byte	9
 3179 0103 10       		.byte	16
 3180 0104 0E       		.byte	14
 3181 0105 02       		.byte	2
 3182 0106 F2       		.byte	-14
 3183 0107 00       		.space	1
 3184 0108 8C01     		.short	396
 3185 010a 0E       		.byte	14
 3186 010b 0D       		.byte	13
 3187 010c 0E       		.byte	14
 3188 010d 00       		.byte	0
 3189 010e F4       		.byte	-12
 3190 010f 00       		.space	1
 3191 0110 A301     		.short	419
 3192 0112 0C       		.byte	12
 3193 0113 0D       		.byte	13
 3194 0114 0E       		.byte	14
 3195 0115 01       		.byte	1
 3196 0116 F4       		.byte	-12
 3197 0117 00       		.space	1
 3198 0118 B701     		.short	439
 3199 011a 0C       		.byte	12
 3200 011b 0E       		.byte	14
 3201 011c 0E       		.byte	14
 3202 011d 01       		.byte	1
 3203 011e F3       		.byte	-13
 3204 011f 00       		.space	1
 3205 0120 CC01     		.short	460
 3206 0122 0B       		.byte	11
 3207 0123 0D       		.byte	13
 3208 0124 0E       		.byte	14
 3209 0125 01       		.byte	1
 3210 0126 F4       		.byte	-12
 3211 0127 00       		.space	1
 3212 0128 DE01     		.short	478
 3213 012a 0B       		.byte	11
 3214 012b 0D       		.byte	13
 3215 012c 0E       		.byte	14
 3216 012d 01       		.byte	1
 3217 012e F4       		.byte	-12
ARM GAS  /var/folders/s6/2bsynnl15rj0bwtb9pgx4dc00000gn/T//cc76hY55.s 			page 192


 3218 012f 00       		.space	1
 3219 0130 F001     		.short	496
 3220 0132 0B       		.byte	11
 3221 0133 0D       		.byte	13
 3222 0134 0E       		.byte	14
 3223 0135 01       		.byte	1
 3224 0136 F4       		.byte	-12
 3225 0137 00       		.space	1
 3226 0138 0202     		.short	514
 3227 013a 0C       		.byte	12
 3228 013b 0E       		.byte	14
 3229 013c 0E       		.byte	14
 3230 013d 01       		.byte	1
 3231 013e F3       		.byte	-13
 3232 013f 00       		.space	1
 3233 0140 1702     		.short	535
 3234 0142 0C       		.byte	12
 3235 0143 0D       		.byte	13
 3236 0144 0E       		.byte	14
 3237 0145 01       		.byte	1
 3238 0146 F4       		.byte	-12
 3239 0147 00       		.space	1
 3240 0148 2B02     		.short	555
 3241 014a 08       		.byte	8
 3242 014b 0D       		.byte	13
 3243 014c 0E       		.byte	14
 3244 014d 03       		.byte	3
 3245 014e F4       		.byte	-12
 3246 014f 00       		.space	1
 3247 0150 3802     		.short	568
 3248 0152 0C       		.byte	12
 3249 0153 0D       		.byte	13
 3250 0154 0E       		.byte	14
 3251 0155 02       		.byte	2
 3252 0156 F4       		.byte	-12
 3253 0157 00       		.space	1
 3254 0158 4C02     		.short	588
 3255 015a 0C       		.byte	12
 3256 015b 0D       		.byte	13
 3257 015c 0E       		.byte	14
 3258 015d 01       		.byte	1
 3259 015e F4       		.byte	-12
 3260 015f 00       		.space	1
 3261 0160 6002     		.short	608
 3262 0162 0C       		.byte	12
 3263 0163 0D       		.byte	13
 3264 0164 0E       		.byte	14
 3265 0165 01       		.byte	1
 3266 0166 F4       		.byte	-12
 3267 0167 00       		.space	1
 3268 0168 7402     		.short	628
 3269 016a 0E       		.byte	14
 3270 016b 0D       		.byte	13
 3271 016c 0E       		.byte	14
 3272 016d 00       		.byte	0
 3273 016e F4       		.byte	-12
 3274 016f 00       		.space	1
ARM GAS  /var/folders/s6/2bsynnl15rj0bwtb9pgx4dc00000gn/T//cc76hY55.s 			page 193


 3275 0170 8B02     		.short	651
 3276 0172 0C       		.byte	12
 3277 0173 0D       		.byte	13
 3278 0174 0E       		.byte	14
 3279 0175 01       		.byte	1
 3280 0176 F4       		.byte	-12
 3281 0177 00       		.space	1
 3282 0178 9F02     		.short	671
 3283 017a 0C       		.byte	12
 3284 017b 0E       		.byte	14
 3285 017c 0E       		.byte	14
 3286 017d 01       		.byte	1
 3287 017e F3       		.byte	-13
 3288 017f 00       		.space	1
 3289 0180 B402     		.short	692
 3290 0182 0B       		.byte	11
 3291 0183 0D       		.byte	13
 3292 0184 0E       		.byte	14
 3293 0185 01       		.byte	1
 3294 0186 F4       		.byte	-12
 3295 0187 00       		.space	1
 3296 0188 C602     		.short	710
 3297 018a 0C       		.byte	12
 3298 018b 11       		.byte	17
 3299 018c 0E       		.byte	14
 3300 018d 01       		.byte	1
 3301 018e F3       		.byte	-13
 3302 018f 00       		.space	1
 3303 0190 E002     		.short	736
 3304 0192 0D       		.byte	13
 3305 0193 0D       		.byte	13
 3306 0194 0E       		.byte	14
 3307 0195 01       		.byte	1
 3308 0196 F4       		.byte	-12
 3309 0197 00       		.space	1
 3310 0198 F602     		.short	758
 3311 019a 0A       		.byte	10
 3312 019b 0E       		.byte	14
 3313 019c 0E       		.byte	14
 3314 019d 02       		.byte	2
 3315 019e F3       		.byte	-13
 3316 019f 00       		.space	1
 3317 01a0 0803     		.short	776
 3318 01a2 0A       		.byte	10
 3319 01a3 0D       		.byte	13
 3320 01a4 0E       		.byte	14
 3321 01a5 02       		.byte	2
 3322 01a6 F4       		.byte	-12
 3323 01a7 00       		.space	1
 3324 01a8 1903     		.short	793
 3325 01aa 0C       		.byte	12
 3326 01ab 0D       		.byte	13
 3327 01ac 0E       		.byte	14
 3328 01ad 01       		.byte	1
 3329 01ae F4       		.byte	-12
 3330 01af 00       		.space	1
 3331 01b0 2D03     		.short	813
ARM GAS  /var/folders/s6/2bsynnl15rj0bwtb9pgx4dc00000gn/T//cc76hY55.s 			page 194


 3332 01b2 0E       		.byte	14
 3333 01b3 0D       		.byte	13
 3334 01b4 0E       		.byte	14
 3335 01b5 00       		.byte	0
 3336 01b6 F4       		.byte	-12
 3337 01b7 00       		.space	1
 3338 01b8 4403     		.short	836
 3339 01ba 0E       		.byte	14
 3340 01bb 0D       		.byte	13
 3341 01bc 0E       		.byte	14
 3342 01bd 00       		.byte	0
 3343 01be F4       		.byte	-12
 3344 01bf 00       		.space	1
 3345 01c0 5B03     		.short	859
 3346 01c2 0C       		.byte	12
 3347 01c3 0D       		.byte	13
 3348 01c4 0E       		.byte	14
 3349 01c5 01       		.byte	1
 3350 01c6 F4       		.byte	-12
 3351 01c7 00       		.space	1
 3352 01c8 6F03     		.short	879
 3353 01ca 0C       		.byte	12
 3354 01cb 0D       		.byte	13
 3355 01cc 0E       		.byte	14
 3356 01cd 01       		.byte	1
 3357 01ce F4       		.byte	-12
 3358 01cf 00       		.space	1
 3359 01d0 8303     		.short	899
 3360 01d2 0A       		.byte	10
 3361 01d3 0D       		.byte	13
 3362 01d4 0E       		.byte	14
 3363 01d5 02       		.byte	2
 3364 01d6 F4       		.byte	-12
 3365 01d7 00       		.space	1
 3366 01d8 9403     		.short	916
 3367 01da 03       		.byte	3
 3368 01db 11       		.byte	17
 3369 01dc 0E       		.byte	14
 3370 01dd 07       		.byte	7
 3371 01de F3       		.byte	-13
 3372 01df 00       		.space	1
 3373 01e0 9B03     		.short	923
 3374 01e2 08       		.byte	8
 3375 01e3 12       		.byte	18
 3376 01e4 0E       		.byte	14
 3377 01e5 03       		.byte	3
 3378 01e6 F1       		.byte	-15
 3379 01e7 00       		.space	1
 3380 01e8 AD03     		.short	941
 3381 01ea 04       		.byte	4
 3382 01eb 11       		.byte	17
 3383 01ec 0E       		.byte	14
 3384 01ed 04       		.byte	4
 3385 01ee F3       		.byte	-13
 3386 01ef 00       		.space	1
 3387 01f0 B603     		.short	950
 3388 01f2 08       		.byte	8
ARM GAS  /var/folders/s6/2bsynnl15rj0bwtb9pgx4dc00000gn/T//cc76hY55.s 			page 195


 3389 01f3 06       		.byte	6
 3390 01f4 0E       		.byte	14
 3391 01f5 03       		.byte	3
 3392 01f6 F3       		.byte	-13
 3393 01f7 00       		.space	1
 3394 01f8 BC03     		.short	956
 3395 01fa 0E       		.byte	14
 3396 01fb 01       		.byte	1
 3397 01fc 0E       		.byte	14
 3398 01fd 00       		.byte	0
 3399 01fe 03       		.byte	3
 3400 01ff 00       		.space	1
 3401 0200 BE03     		.short	958
 3402 0202 04       		.byte	4
 3403 0203 03       		.byte	3
 3404 0204 0E       		.byte	14
 3405 0205 04       		.byte	4
 3406 0206 F2       		.byte	-14
 3407 0207 00       		.space	1
 3408 0208 C003     		.short	960
 3409 020a 0B       		.byte	11
 3410 020b 0A       		.byte	10
 3411 020c 0E       		.byte	14
 3412 020d 02       		.byte	2
 3413 020e F7       		.byte	-9
 3414 020f 00       		.space	1
 3415 0210 CE03     		.short	974
 3416 0212 0C       		.byte	12
 3417 0213 0E       		.byte	14
 3418 0214 0E       		.byte	14
 3419 0215 01       		.byte	1
 3420 0216 F3       		.byte	-13
 3421 0217 00       		.space	1
 3422 0218 E303     		.short	995
 3423 021a 0B       		.byte	11
 3424 021b 0A       		.byte	10
 3425 021c 0E       		.byte	14
 3426 021d 02       		.byte	2
 3427 021e F7       		.byte	-9
 3428 021f 00       		.space	1
 3429 0220 F103     		.short	1009
 3430 0222 0D       		.byte	13
 3431 0223 0E       		.byte	14
 3432 0224 0E       		.byte	14
 3433 0225 01       		.byte	1
 3434 0226 F3       		.byte	-13
 3435 0227 00       		.space	1
 3436 0228 0804     		.short	1032
 3437 022a 0B       		.byte	11
 3438 022b 0A       		.byte	10
 3439 022c 0E       		.byte	14
 3440 022d 01       		.byte	1
 3441 022e F7       		.byte	-9
 3442 022f 00       		.space	1
 3443 0230 1604     		.short	1046
 3444 0232 0B       		.byte	11
 3445 0233 0E       		.byte	14
ARM GAS  /var/folders/s6/2bsynnl15rj0bwtb9pgx4dc00000gn/T//cc76hY55.s 			page 196


 3446 0234 0E       		.byte	14
 3447 0235 02       		.byte	2
 3448 0236 F3       		.byte	-13
 3449 0237 00       		.space	1
 3450 0238 2A04     		.short	1066
 3451 023a 0C       		.byte	12
 3452 023b 0E       		.byte	14
 3453 023c 0E       		.byte	14
 3454 023d 01       		.byte	1
 3455 023e F7       		.byte	-9
 3456 023f 00       		.space	1
 3457 0240 3F04     		.short	1087
 3458 0242 0C       		.byte	12
 3459 0243 0E       		.byte	14
 3460 0244 0E       		.byte	14
 3461 0245 01       		.byte	1
 3462 0246 F3       		.byte	-13
 3463 0247 00       		.space	1
 3464 0248 5404     		.short	1108
 3465 024a 0A       		.byte	10
 3466 024b 0F       		.byte	15
 3467 024c 0E       		.byte	14
 3468 024d 02       		.byte	2
 3469 024e F2       		.byte	-14
 3470 024f 00       		.space	1
 3471 0250 6704     		.short	1127
 3472 0252 08       		.byte	8
 3473 0253 13       		.byte	19
 3474 0254 0E       		.byte	14
 3475 0255 03       		.byte	3
 3476 0256 F2       		.byte	-14
 3477 0257 00       		.space	1
 3478 0258 7A04     		.short	1146
 3479 025a 0C       		.byte	12
 3480 025b 0E       		.byte	14
 3481 025c 0E       		.byte	14
 3482 025d 01       		.byte	1
 3483 025e F3       		.byte	-13
 3484 025f 00       		.space	1
 3485 0260 8F04     		.short	1167
 3486 0262 0A       		.byte	10
 3487 0263 0E       		.byte	14
 3488 0264 0E       		.byte	14
 3489 0265 02       		.byte	2
 3490 0266 F3       		.byte	-13
 3491 0267 00       		.space	1
 3492 0268 A104     		.short	1185
 3493 026a 0E       		.byte	14
 3494 026b 0A       		.byte	10
 3495 026c 0E       		.byte	14
 3496 026d 00       		.byte	0
 3497 026e F7       		.byte	-9
 3498 026f 00       		.space	1
 3499 0270 B304     		.short	1203
 3500 0272 0C       		.byte	12
 3501 0273 0A       		.byte	10
 3502 0274 0E       		.byte	14
ARM GAS  /var/folders/s6/2bsynnl15rj0bwtb9pgx4dc00000gn/T//cc76hY55.s 			page 197


 3503 0275 01       		.byte	1
 3504 0276 F7       		.byte	-9
 3505 0277 00       		.space	1
 3506 0278 C204     		.short	1218
 3507 027a 0A       		.byte	10
 3508 027b 0A       		.byte	10
 3509 027c 0E       		.byte	14
 3510 027d 02       		.byte	2
 3511 027e F7       		.byte	-9
 3512 027f 00       		.space	1
 3513 0280 CF04     		.short	1231
 3514 0282 0C       		.byte	12
 3515 0283 0E       		.byte	14
 3516 0284 0E       		.byte	14
 3517 0285 01       		.byte	1
 3518 0286 F7       		.byte	-9
 3519 0287 00       		.space	1
 3520 0288 E404     		.short	1252
 3521 028a 0D       		.byte	13
 3522 028b 0E       		.byte	14
 3523 028c 0E       		.byte	14
 3524 028d 01       		.byte	1
 3525 028e F7       		.byte	-9
 3526 028f 00       		.space	1
 3527 0290 FB04     		.short	1275
 3528 0292 0B       		.byte	11
 3529 0293 0A       		.byte	10
 3530 0294 0E       		.byte	14
 3531 0295 02       		.byte	2
 3532 0296 F7       		.byte	-9
 3533 0297 00       		.space	1
 3534 0298 0905     		.short	1289
 3535 029a 0A       		.byte	10
 3536 029b 0A       		.byte	10
 3537 029c 0E       		.byte	14
 3538 029d 02       		.byte	2
 3539 029e F7       		.byte	-9
 3540 029f 00       		.space	1
 3541 02a0 1605     		.short	1302
 3542 02a2 0B       		.byte	11
 3543 02a3 0D       		.byte	13
 3544 02a4 0E       		.byte	14
 3545 02a5 01       		.byte	1
 3546 02a6 F4       		.byte	-12
 3547 02a7 00       		.space	1
 3548 02a8 2805     		.short	1320
 3549 02aa 0C       		.byte	12
 3550 02ab 0A       		.byte	10
 3551 02ac 0E       		.byte	14
 3552 02ad 01       		.byte	1
 3553 02ae F7       		.byte	-9
 3554 02af 00       		.space	1
 3555 02b0 3705     		.short	1335
 3556 02b2 0C       		.byte	12
 3557 02b3 0A       		.byte	10
 3558 02b4 0E       		.byte	14
 3559 02b5 01       		.byte	1
ARM GAS  /var/folders/s6/2bsynnl15rj0bwtb9pgx4dc00000gn/T//cc76hY55.s 			page 198


 3560 02b6 F7       		.byte	-9
 3561 02b7 00       		.space	1
 3562 02b8 4605     		.short	1350
 3563 02ba 0C       		.byte	12
 3564 02bb 0A       		.byte	10
 3565 02bc 0E       		.byte	14
 3566 02bd 01       		.byte	1
 3567 02be F7       		.byte	-9
 3568 02bf 00       		.space	1
 3569 02c0 5505     		.short	1365
 3570 02c2 0C       		.byte	12
 3571 02c3 0A       		.byte	10
 3572 02c4 0E       		.byte	14
 3573 02c5 01       		.byte	1
 3574 02c6 F7       		.byte	-9
 3575 02c7 00       		.space	1
 3576 02c8 6405     		.short	1380
 3577 02ca 0C       		.byte	12
 3578 02cb 0E       		.byte	14
 3579 02cc 0E       		.byte	14
 3580 02cd 01       		.byte	1
 3581 02ce F7       		.byte	-9
 3582 02cf 00       		.space	1
 3583 02d0 7905     		.short	1401
 3584 02d2 08       		.byte	8
 3585 02d3 0A       		.byte	10
 3586 02d4 0E       		.byte	14
 3587 02d5 03       		.byte	3
 3588 02d6 F7       		.byte	-9
 3589 02d7 00       		.space	1
 3590 02d8 8305     		.short	1411
 3591 02da 04       		.byte	4
 3592 02db 11       		.byte	17
 3593 02dc 0E       		.byte	14
 3594 02dd 05       		.byte	5
 3595 02de F3       		.byte	-13
 3596 02df 00       		.space	1
 3597 02e0 8C05     		.short	1420
 3598 02e2 01       		.byte	1
 3599 02e3 11       		.byte	17
 3600 02e4 0E       		.byte	14
 3601 02e5 07       		.byte	7
 3602 02e6 F3       		.byte	-13
 3603 02e7 00       		.space	1
 3604 02e8 8F05     		.short	1423
 3605 02ea 04       		.byte	4
 3606 02eb 11       		.byte	17
 3607 02ec 0E       		.byte	14
 3608 02ed 05       		.byte	5
 3609 02ee F3       		.byte	-13
 3610 02ef 00       		.space	1
 3611 02f0 9805     		.short	1432
 3612 02f2 0A       		.byte	10
 3613 02f3 03       		.byte	3
 3614 02f4 0E       		.byte	14
 3615 02f5 02       		.byte	2
 3616 02f6 F9       		.byte	-7
ARM GAS  /var/folders/s6/2bsynnl15rj0bwtb9pgx4dc00000gn/T//cc76hY55.s 			page 199


 3617 02f7 00       		.space	1
 3618              		.section	.rodata._ZL21FreeSans15pt7bBitmaps,"a"
 3619              		.align	2
 3622              	_ZL21FreeSans15pt7bBitmaps:
 3623 0000 003FFF50 		.ascii	"\000?\377P<gfffff\000\001\004A H\022\004\207\374H\022"
 3623      3C676666 
 3623      66666600 
 3623      01044120 
 3623      48120487 
 3624 0017 0487F848 		.ascii	"\004\207\370H\022\004\201 \210\010\030g\301\200\200"
 3624      12048120 
 3624      88081867 
 3624      C18080
 3625 0026 603C0301 		.ascii	"`<\003\001\001\201\302<\010\010\010<\021\004\001\020"
 3625      0181C23C 
 3625      0808083C 
 3625      11040110 
 3626 0036 6C003070 		.ascii	"l\0000p\340\302\003`\210\"\010\201\300\036\020\010\004"
 3626      E0C20360 
 3626      88220881 
 3626      C01E1008 
 3626      04
 3627 0047 010081A6 		.ascii	"\001\000\201\246\222\205!\020\207\260\333m\200\022d"
 3627      92852110 
 3627      87B0DB6D 
 3627      801264
 3628 0056 4C8888CC 		.ascii	"L\210\210\314D\"\020Db1\021\021\0232d\200\010\010\010"
 3628      44221044 
 3628      62311111 
 3628      13326480 
 3628      080808
 3629 0069 EF181824 		.ascii	"\357\030\030$B\004\001\000@\020\004?\360@\020\004\001"
 3629      42040100 
 3629      4010043F 
 3629      F0401004 
 3629      01
 3630 007a 00403398 		.ascii	"\000@3\230\314`\377\300o\360\000\001\001\002\002\004"
 3630      CC60FFC0 
 3630      6FF00001 
 3630      01020204 
 3631 008a 04080810 		.ascii	"\004\010\010\020\020  `@\300\200\200\000~B\201\201\201"
 3631      10202060 
 3631      40C08080 
 3631      007E4281 
 3631      8181
 3632 009c 81818181 		.ascii	"\201\201\201\201\201\201\201B<8\310\010\010\010\010"
 3632      81818142 
 3632      3C38C808 
 3632      080808
 3633 00ab 08080808 		.ascii	"\010\010\010\010\010\010\010\377\000\037\220X\020\010"
 3633      080808FF 
 3633      001F9058 
 3633      1008
 3634 00b9 04060606 		.ascii	"\004\006\006\006\006\006\006\006\004\007\376\000\017"
 3634      06060606 
 3634      0407FE00 
 3634      0F
ARM GAS  /var/folders/s6/2bsynnl15rj0bwtb9pgx4dc00000gn/T//cc76hY55.s 			page 200


 3635 00c6 C4080200 		.ascii	"\304\010\002\000\200 08\001\200 \004\001\000\260c\360"
 3635      80203038 
 3635      01802004 
 3635      0100B063 
 3635      F0
 3636 00d7 07028241 		.ascii	"\007\002\202A!\021\010\204\202A\177\300@ \020|\177\220"
 3636      21110884 
 3636      82417FC0 
 3636      4020107C 
 3636      7F90
 3637 00e9 04010040 		.ascii	"\004\001\000@\037\300\010\002\000@\020\004\002\301\217"
 3637      1FC00802 
 3637      00401004 
 3637      02C18F
 3638 00f8 C00007CC 		.ascii	"\300\000\007\314\004\004\002\002\001v\241``(\024\011"
 3638      04040202 
 3638      0176A160 
 3638      60281409 
 3639 0108 08F8FFC0 		.ascii	"\010\370\377\300@ \020\020\010\004\004\002\001\001\000"
 3639      40201010 
 3639      08040402 
 3639      010100
 3640 0117 80404000 		.ascii	"\200@@\000~\303\201\201\201B<B\201\201\201\201\303~"
 3640      7EC38181 
 3640      81423C42 
 3640      81818181 
 3640      C37E
 3641 0129 001B1050 		.ascii	"\000\033\020P(\014\006\006\205>\200@  03\340o\360\000"
 3641      280C0606 
 3641      853E8040 
 3641      20203033 
 3641      E06FF000 
 3642 013d 06FF39CE 		.ascii	"\006\3779\316\000\000\007s\030\214\000\000\300````0"
 3642      00000773 
 3642      188C0000 
 3642      C0606060 
 3642      6030
 3643 014f 03006006 		.ascii	"\003\000`\006\000`\004\377\360\000\000\000\000\177\340"
 3643      006004FF 
 3643      F0000000 
 3643      007FE0
 3644 015e C0180180 		.ascii	"\300\030\001\200\030\001\20000\030\030\030\010\000\010"
 3644      18018030 
 3644      30181818 
 3644      080008
 3645 016d E6818101 		.ascii	"\346\201\201\001\001\002\014\010\000\000\000\034<\014"
 3645      01020C08 
 3645      0000001C 
 3645      3C0C
 3646 017b 19984814 		.ascii	"\031\230H\024\014\0363\021\210\304c\250\024\002\000"
 3646      0C1E3311 
 3646      88C463A8 
 3646      140200
 3647 018a 807E3F00 		.ascii	"\200~?\000\024\000H\001 \010@!\000\204\004\010\037\340"
 3647      14004801 
 3647      20084021 
 3647      00840408 
ARM GAS  /var/folders/s6/2bsynnl15rj0bwtb9pgx4dc00000gn/T//cc76hY55.s 			page 201


 3647      1FE0
 3648 019c 00820108 		.ascii	"\000\202\001\010\004\370|\377\202\004 \"\002 B\030?"
 3648      04F87CFF 
 3648      82042022 
 3648      02204218 
 3648      3F
 3649 01ad C2022012 		.ascii	"\302\002 \022\001 2\002\377\300\000\001\336 d\002@$"
 3649      01203202 
 3649      FFC00001 
 3649      DE206402 
 3649      4024
 3650 01bf 00800800 		.ascii	"\000\200\010\000\200\004\000@\006\0030`\374\377\010"
 3650      80040040 
 3650      06033060 
 3650      FCFF08
 3651 01ce 19012014 		.ascii	"\031\001 \024\002\200P\012\001@(\005\001 O\360\377\344"
 3651      0280500A 
 3651      01402805 
 3651      01204FF0 
 3651      FFE4
 3652 01e0 04809012 		.ascii	"\004\200\220\022 D\017\201\020 \004\004\200\220\037"
 3652      20440F81 
 3652      10200404 
 3652      80901F
 3653 01ef FEFFE404 		.ascii	"\376\377\344\004\200\220\022 D\017\201\020 \004\000"
 3653      80901220 
 3653      440F8110 
 3653      200400
 3654 01fe 80100FE0 		.ascii	"\200\020\017\340\002\001\336 $\002@\004\000\200\010"
 3654      0201DE20 
 3654      24024004 
 3654      008008
 3655 020d 0083F402 		.ascii	"\000\203\364\002@$\002 !\376y\342\004 B\004 B\004?\302"
 3655      40240220 
 3655      21FE79E2 
 3655      04204204 
 3655      2042043F 
 3656 0222 04204204 		.ascii	"\004 B\004 B\004\371\360\377\010\010\010\010\010\010"
 3656      204204F9 
 3656      F0FF0808 
 3656      08080808 
 3657 0232 08080808 		.ascii	"\010\010\010\010\010\377\017\360\010\000\200\010\000"
 3657      08FF0FF0 
 3657      08008008 
 3657      00
 3658 023f 80080088 		.ascii	"\200\010\000\210\010\200\210\010\200\214\020>\000\370"
 3658      08808808 
 3658      808C103E 
 3658      00F8
 3659 024d F2042182 		.ascii	"\362\004!\2020&\002\3002\002\020 \202\010 B\004\370"
 3659      302602C0 
 3659      32021020 
 3659      82082042 
 3659      04F8
 3660 025f 307E0100 		.ascii	"0~\001\000\020\001\000\020\001\000\020\001\000\020\021"
 3660      10010010 
 3660      01001001 
ARM GAS  /var/folders/s6/2bsynnl15rj0bwtb9pgx4dc00000gn/T//cc76hY55.s 			page 202


 3660      001011
 3661 026e 01101101 		.ascii	"\001\020\021\001\377\360p<\300\242\202\212\022$H\222"
 3661      FFF0703C 
 3661      C0A2828A 
 3661      12244892 
 3662 027e 224888C2 		.ascii	"\"H\210\302#\010\200\"\000\210\002\370|\340\365\002"
 3662      23088022 
 3662      008802F8 
 3662      7CE0F502 
 3663 028e 5024824C 		.ascii	"P$\202L$BB$\"A$\032@\244\006\370`\000\001\370 D\002"
 3663      24424224 
 3663      2241241A 
 3663      40A406F8 
 3663      600001F8 
 3664 02a5 40280180 		.ascii	"@(\001\200\030\001\200\030\001@$\002 A\370\377\204\010"
 3664      18018018 
 3664      01402402 
 3664      2041F8FF 
 3664      8408
 3665 02b7 81901202 		.ascii	"\201\220\022\002@\210a\360 \004\000\200\020\017\340"
 3665      408861F0 
 3665      20040080 
 3665      100FE0
 3666 02c6 0001F820 		.ascii	"\000\001\370 D\002@(\001\200\030\001\200\030\001@$\002"
 3666      44024028 
 3666      01801801 
 3666      80180140 
 3666      2402
 3667 02d8 2041F80C 		.ascii	" A\370\014\001\363\020@\377\201\002\010\010@B\004\020"
 3667      01F31040 
 3667      FF810208 
 3667      08404204 
 3667      10
 3668 02e9 60FC0420 		.ascii	"`\374\004  \201\002\010\030@O\201\200\000\017\344\011"
 3668      20810208 
 3668      18404F81 
 3668      80000FE4 
 3668      09
 3669 02fa 02401003 		.ascii	"\002@\020\003\000\034\000\200\030\006\001\300\257\300"
 3669      001C0080 
 3669      180601C0 
 3669      AFC0
 3670 0308 FFE11844 		.ascii	"\377\341\030D\020\004\001\000@\020\004\001\000@\020"
 3670      10040100 
 3670      40100401 
 3670      004010
 3671 0317 7F80F8F4 		.ascii	"\177\200\370\364\002@$\002@$\002@$\002@$\002 C\014\037"
 3671      02402402 
 3671      40240240 
 3671      24024024 
 3671      0220430C 
 3672 032c 80F87C80 		.ascii	"\200\370|\200B\001\004\010\020 @\200\204\002\020\004"
 3672      42010408 
 3672      10204080 
 3672      84021004 
 3673 033c 80120048 		.ascii	"\200\022\000H\000\300\003\000x|\200\"\001\010\304#\020"
 3673      00C00300 
ARM GAS  /var/folders/s6/2bsynnl15rj0bwtb9pgx4dc00000gn/T//cc76hY55.s 			page 203


 3673      787C8022 
 3673      0108C423 
 3673      10
 3674 034d 8A424909 		.ascii	"\212BI\011$$\220\241A\204\006\030\020 \360\362\004\020"
 3674      242490A1 
 3674      41840618 
 3674      1020F0F2 
 3674      0410
 3675 035f C1880900 		.ascii	"\301\210\011\000`\006\000\360\011\001\010 F\006\360"
 3675      600600F0 
 3675      09010820 
 3675      4606F0
 3676 036e F0F0F204 		.ascii	"\360\360\362\004\020\301\010\011\000p\006\000 \002\000"
 3676      10C10809 
 3676      00700600 
 3676      200200
 3677 037d 20020020 		.ascii	" \002\000 ?\300\177\220$\021\010\006\001\000\200`\020"
 3677      3FC07F90 
 3677      24110806 
 3677      01008060 
 3677      10
 3678 038e 48140701 		.ascii	"H\024\007\001\377\300\362I$\222I$\340\000\200\200@@"
 3678      FFC0F249 
 3678      24924924 
 3678      E0008080 
 3678      4040
 3679 03a0 20201010 		.ascii	"  \020\020\010\010\004\004\002\002\001\001\001\361\021"
 3679      08080404 
 3679      02020101 
 3679      01F111
 3680 03af 11111111 		.ascii	"\021\021\021\021\021\021\360\030<$B\201\000\377\374"
 3680      1111F018 
 3680      3C244281 
 3680      00FFFC
 3681 03be 84203E08 		.ascii	"\204 >\010 \002\000C\371\201 $\004\203\217\234\300\004"
 3681      20020043 
 3681      F9812024 
 3681      04838F9C 
 3681      C004
 3682 03d0 00400400 		.ascii	"\000@\004\000O\205\004`&\002@\024\001`\026\002Pl\370"
 3682      4F850460 
 3682      26024014 
 3682      01601602 
 3682      506CF8
 3683 03e3 1F4C1901 		.ascii	"\037L\031\001@(\001\000 \006\000`G\360\000\340\001\000"
 3683      40280100 
 3683      20060060 
 3683      47F000E0 
 3683      0100
 3684 03f5 080041F2 		.ascii	"\010\000A\362\020Q\001\210\004\200$\001\020\010\200"
 3684      10510188 
 3684      04802401 
 3684      100880
 3685 0404 C20A0F9C 		.ascii	"\302\012\017\234\037\204\031\001\240\037\376\000\020"
 3685      1F841901 
 3685      A01FFE00 
 3685      10
ARM GAS  /var/folders/s6/2bsynnl15rj0bwtb9pgx4dc00000gn/T//cc76hY55.s 			page 204


 3686 0411 02002023 		.ascii	"\002\000 #\370\007\341\000@\010\007\370 \004\000\200"
 3686      F807E100 
 3686      400807F8 
 3686      20040080 
 3687 0421 10020040 		.ascii	"\020\002\000@\010\001\001\377\000\037r\014@D\004\200"
 3687      080101FF 
 3687      001F720C 
 3687      40440480 
 3688 0431 40044044 		.ascii	"@\004@D\0141@\344\000@\004\000@\370\340\002\000 \002"
 3688      0C3140E4 
 3688      00400400 
 3688      40F8E002 
 3688      002002
 3689 0444 002F830C 		.ascii	"\000/\203\014 B\004 B\004 B\004 O\217\010\002\000\200"
 3689      20420420 
 3689      42042042 
 3689      04204F8F 
 3689      08020080 
 3690 0458 00001F00 		.ascii	"\000\000\037\000@\020\004\001\000@\020\004\001\017\374"
 3690      40100401 
 3690      00401004 
 3690      010FFC
 3691 0467 06060600 		.ascii	"\006\006\006\000\000\177\001\001\001\001\001\001\001"
 3691      007F0101 
 3691      01010101 
 3691      01
 3692 0474 01010101 		.ascii	"\001\001\001\001\002~`\002\000 \002\000#\302\020\"\002"
 3692      027E6002 
 3692      00200200 
 3692      23C21022 
 3692      02
 3693 0485 40380340 		.ascii	"@8\003@\"\002\020 \216\037|\001\000@\020\004\001\000"
 3693      22021020 
 3693      8E1F7C01 
 3693      00401004 
 3693      0100
 3694 0497 40100401 		.ascii	"@\020\004\001\000@\020\004?\360\376\360\316B\020\210"
 3694      00401004 
 3694      3FF0FEF0 
 3694      CE421088 
 3695 04a7 42210884 		.ascii	"B!\010\204\"\020\210B!\013\3060o\203\014 B\004 B\004"
 3695      22108842 
 3695      210BC630 
 3695      6F830C20 
 3695      42042042 
 3696 04bc 20420420 		.ascii	" B\004 O\217\037\030l\006\001\200`\030\006\001@\217"
 3696      4F8F1F18 
 3696      6C060180 
 3696      60180601 
 3696      408F
 3697 04ce C0CF8504 		.ascii	"\300\317\205\004`&\001@\024\001`&\002X\304p@\004\000"
 3697      60260140 
 3697      14016026 
 3697      0258C470 
 3697      400400
 3698 04e1 400F801F 		.ascii	"@\017\200\0371\005\020\030\200H\002\000\021\001\214"
 3698      31051018 
ARM GAS  /var/folders/s6/2bsynnl15rj0bwtb9pgx4dc00000gn/T//cc76hY55.s 			page 205


 3698      80480200 
 3698      11018C
 3699 04f0 0C31A071 		.ascii	"\0141\240q\000\010\000@\002\000\370q\302\304`\010\001"
 3699      00080040 
 3699      0200F871 
 3699      C2C46008 
 3699      01
 3700 0501 00200400 		.ascii	"\000 \004\000\200\020\037\360?\230d\011\200>\000`\016"
 3700      80101FF0 
 3700      3F986409 
 3700      803E0060 
 3700      0E
 3701 0512 01C0AFC0 		.ascii	"\001\300\257\300 \004\000\200\177\302\000@\010\001\000"
 3701      20040080 
 3701      7FC20040 
 3701      080100
 3702 0521 20040080 		.ascii	" \004\000\200\010\001\374\341\302\004 B\004 B\004 B"
 3702      0801FCE1 
 3702      C2042042 
 3702      04204204 
 3702      2042
 3703 0533 0420C1F7 		.ascii	"\004 \301\367\360\366\002 B\004\020\201\010\011\000"
 3703      F0F60220 
 3703      42041081 
 3703      080900
 3704 0542 90050060 		.ascii	"\220\005\000`\340t\002@$b\006\"\324)B\2240\301\010p"
 3704      E0740240 
 3704      24620622 
 3704      D4294294 
 3704      30C10870 
 3705 0556 E2041080 		.ascii	"\342\004\020\200\220\006\000`\011\001\010 o\217\360"
 3705      90060060 
 3705      09010820 
 3705      6F8FF0
 3706 0565 F4022042 		.ascii	"\364\002 B\004\020\201\010\011\000\220\006\000`\004"
 3706      04108108 
 3706      09009006 
 3706      006004
 3707 0574 00400807 		.ascii	"\000@\010\007\340\377\203\202\004\010\020 @\300\377"
 3707      E0FF8382 
 3707      04081020 
 3707      40C0FF
 3708 0583 32222224 		.ascii	"2\"\"$\304\"\"\"\020\377\377\000\304\"\"\"2\"\"$\200"
 3708      C4222222 
 3708      10FFFF00 
 3708      C4222222 
 3708      32222224 
 3709 0598 78732830 		.ascii	"xs(0"
 3710              		.section	.sdram_bss_framebuff,"aw"
 3711              		.align	2
 3714              	__FrameBuff:
 3715 0000 00000000 		.space	614400
 3715      00000000 
 3715      00000000 
 3715      00000000 
 3715      00000000 
 3716              		.section	.sram1_bss,"aw"
ARM GAS  /var/folders/s6/2bsynnl15rj0bwtb9pgx4dc00000gn/T//cc76hY55.s 			page 206


 3717              		.align	2
 3720              	__Fifo:
 3721 0000 00000000 		.space	15470
 3721      00000000 
 3721      00000000 
 3721      00000000 
 3721      00000000 
 3722              		.text
 3723              	.Letext0:
 3724              		.file 29 "/Library/DaisyToolchain/0.2.0/arm/arm-none-eabi/include/machine/_default_types.h"
 3725              		.file 30 "/Library/DaisyToolchain/0.2.0/arm/arm-none-eabi/include/sys/_stdint.h"
 3726              		.file 31 "/Library/DaisyToolchain/0.2.0/arm/arm-none-eabi/include/stdint.h"
 3727              		.file 32 "/Library/DaisyToolchain/0.2.0/arm/lib/gcc/arm-none-eabi/10.3.1/include/stddef.h"
 3728              		.file 33 "/Library/DaisyToolchain/0.2.0/arm/arm-none-eabi/include/c++/10.3.1/cmath"
 3729              		.file 34 "/Library/DaisyToolchain/0.2.0/arm/arm-none-eabi/include/c++/10.3.1/bits/std_abs.h"
 3730              		.file 35 "/Library/DaisyToolchain/0.2.0/arm/arm-none-eabi/include/c++/10.3.1/cstdlib"
 3731              		.file 36 "/Library/DaisyToolchain/0.2.0/arm/arm-none-eabi/include/c++/10.3.1/cstdint"
 3732              		.file 37 "/Library/DaisyToolchain/0.2.0/arm/arm-none-eabi/include/c++/10.3.1/type_traits"
 3733              		.file 38 "/Library/DaisyToolchain/0.2.0/arm/arm-none-eabi/include/c++/10.3.1/arm-none-eabi/thumb/v
 3734              		.file 39 "/Library/DaisyToolchain/0.2.0/arm/arm-none-eabi/include/c++/10.3.1/bits/stl_pair.h"
 3735              		.file 40 "/Library/DaisyToolchain/0.2.0/arm/arm-none-eabi/include/c++/10.3.1/bits/stl_iterator_bas
 3736              		.file 41 "/Library/DaisyToolchain/0.2.0/arm/arm-none-eabi/include/c++/10.3.1/debug/debug.h"
 3737              		.file 42 "/Library/DaisyToolchain/0.2.0/arm/arm-none-eabi/include/c++/10.3.1/bits/algorithmfwd.h"
 3738              		.file 43 "/Library/DaisyToolchain/0.2.0/arm/arm-none-eabi/include/c++/10.3.1/bits/exception_ptr.h"
 3739              		.file 44 "/Library/DaisyToolchain/0.2.0/arm/arm-none-eabi/include/c++/10.3.1/cstdarg"
 3740              		.file 45 "/Library/DaisyToolchain/0.2.0/arm/arm-none-eabi/include/c++/10.3.1/cstdio"
 3741              		.file 46 "/Library/DaisyToolchain/0.2.0/arm/arm-none-eabi/include/c++/10.3.1/cstring"
 3742              		.file 47 "/Library/DaisyToolchain/0.2.0/arm/arm-none-eabi/include/c++/10.3.1/cwchar"
 3743              		.file 48 "/Library/DaisyToolchain/0.2.0/arm/arm-none-eabi/include/c++/10.3.1/clocale"
 3744              		.file 49 "/Library/DaisyToolchain/0.2.0/arm/arm-none-eabi/include/c++/10.3.1/bits/basic_string.h"
 3745              		.file 50 "/Library/DaisyToolchain/0.2.0/arm/arm-none-eabi/include/c++/10.3.1/bits/stl_iterator.h"
 3746              		.file 51 "/Library/DaisyToolchain/0.2.0/arm/arm-none-eabi/include/c++/10.3.1/bits/uses_allocator.h
 3747              		.file 52 "/Library/DaisyToolchain/0.2.0/arm/arm-none-eabi/include/c++/10.3.1/bits/ptr_traits.h"
 3748              		.file 53 "/Library/DaisyToolchain/0.2.0/arm/arm-none-eabi/include/c++/10.3.1/bits/cpp_type_traits.
 3749              		.file 54 "/Library/DaisyToolchain/0.2.0/arm/arm-none-eabi/include/c++/10.3.1/bits/move.h"
 3750              		.file 55 "/Library/DaisyToolchain/0.2.0/arm/arm-none-eabi/include/c++/10.3.1/bits/functexcept.h"
 3751              		.file 56 "/Library/DaisyToolchain/0.2.0/arm/arm-none-eabi/include/c++/10.3.1/bits/predefined_ops.h
 3752              		.file 57 "/Library/DaisyToolchain/0.2.0/arm/arm-none-eabi/include/c++/10.3.1/ext/alloc_traits.h"
 3753              		.file 58 "/Library/DaisyToolchain/0.2.0/arm/arm-none-eabi/include/sys/_types.h"
 3754              		.file 59 "/Library/DaisyToolchain/0.2.0/arm/arm-none-eabi/include/sys/reent.h"
 3755              		.file 60 "/Library/DaisyToolchain/0.2.0/arm/arm-none-eabi/include/sys/lock.h"
 3756              		.file 61 "/Library/DaisyToolchain/0.2.0/arm/arm-none-eabi/include/math.h"
 3757              		.file 62 "/Library/DaisyToolchain/0.2.0/arm/arm-none-eabi/include/stdlib.h"
 3758              		.file 63 "/Library/DaisyToolchain/0.2.0/arm/arm-none-eabi/include/c++/10.3.1/math.h"
 3759              		.file 64 "/Library/DaisyToolchain/0.2.0/arm/arm-none-eabi/include/c++/10.3.1/stdlib.h"
 3760              		.file 65 "./libDaisy/src/per/tim.h"
 3761              		.file 66 "./libDaisy/src/hid/logger_impl.h"
 3762              		.file 67 "./libDaisy/src/util/wav_format.h"
 3763              		.file 68 "./libDaisy/src/dev/max11300.h"
 3764              		.file 69 "./libDaisy/src/hid/logger.h"
 3765              		.file 70 "./libDaisy/src/dev/sdram.h"
 3766              		.file 71 "/Library/DaisyToolchain/0.2.0/arm/lib/gcc/arm-none-eabi/10.3.1/include/stdarg.h"
 3767              		.file 72 "/Library/DaisyToolchain/0.2.0/arm/arm-none-eabi/include/stdio.h"
 3768              		.file 73 "/Library/DaisyToolchain/0.2.0/arm/arm-none-eabi/include/string.h"
 3769              		.file 74 "./libDaisy/src/dev/sr_595.h"
 3770              		.file 75 "Vanilla20pt.h"
 3771              		.file 76 "Pap.h"
ARM GAS  /var/folders/s6/2bsynnl15rj0bwtb9pgx4dc00000gn/T//cc76hY55.s 			page 207


 3772              		.file 77 "Buttons.h"
 3773              		.file 78 "./DaisySP/Source/Utility/dsp.h"
 3774              		.file 79 "./DaisySP/Source/Synthesis/oscillator.h"
 3775              		.file 80 "/Library/DaisyToolchain/0.2.0/arm/arm-none-eabi/include/wchar.h"
 3776              		.file 81 "/Library/DaisyToolchain/0.2.0/arm/arm-none-eabi/include/locale.h"
 3777              		.file 82 "Menu.h"
 3778              		.file 83 "<built-in>"
ARM GAS  /var/folders/s6/2bsynnl15rj0bwtb9pgx4dc00000gn/T//cc76hY55.s 			page 208


DEFINED SYMBOLS
                            *ABS*:0000000000000000 TestTFT.cpp
/var/folders/s6/2bsynnl15rj0bwtb9pgx4dc00000gn/T//cc76hY55.s:19     .text._ZN5daisy7EncoderD2Ev:0000000000000000 $t
/var/folders/s6/2bsynnl15rj0bwtb9pgx4dc00000gn/T//cc76hY55.s:26     .text._ZN5daisy7EncoderD2Ev:0000000000000000 _ZN5daisy7EncoderD2Ev
/var/folders/s6/2bsynnl15rj0bwtb9pgx4dc00000gn/T//cc76hY55.s:26     .text._ZN5daisy7EncoderD2Ev:0000000000000000 _ZN5daisy7EncoderD1Ev
/var/folders/s6/2bsynnl15rj0bwtb9pgx4dc00000gn/T//cc76hY55.s:49     .text._ZN5daisy9DaisySeedD2Ev:0000000000000000 $t
/var/folders/s6/2bsynnl15rj0bwtb9pgx4dc00000gn/T//cc76hY55.s:56     .text._ZN5daisy9DaisySeedD2Ev:0000000000000000 _ZN5daisy9DaisySeedD2Ev
/var/folders/s6/2bsynnl15rj0bwtb9pgx4dc00000gn/T//cc76hY55.s:56     .text._ZN5daisy9DaisySeedD2Ev:0000000000000000 _ZN5daisy9DaisySeedD1Ev
/var/folders/s6/2bsynnl15rj0bwtb9pgx4dc00000gn/T//cc76hY55.s:97     .text._Z13AudioCallbackPKPKfPPfj:0000000000000000 $t
/var/folders/s6/2bsynnl15rj0bwtb9pgx4dc00000gn/T//cc76hY55.s:104    .text._Z13AudioCallbackPKPKfPPfj:0000000000000000 _Z13AudioCallbackPKPKfPPfj
/var/folders/s6/2bsynnl15rj0bwtb9pgx4dc00000gn/T//cc76hY55.s:215    .text._Z13AudioCallbackPKPKfPPfj:0000000000000054 $d
/var/folders/s6/2bsynnl15rj0bwtb9pgx4dc00000gn/T//cc76hY55.s:222    .text._ZN7SpiritsD2Ev:0000000000000000 $t
/var/folders/s6/2bsynnl15rj0bwtb9pgx4dc00000gn/T//cc76hY55.s:229    .text._ZN7SpiritsD2Ev:0000000000000000 _ZN7SpiritsD2Ev
/var/folders/s6/2bsynnl15rj0bwtb9pgx4dc00000gn/T//cc76hY55.s:274    .text._ZN7SpiritsD2Ev:0000000000000010 $d
/var/folders/s6/2bsynnl15rj0bwtb9pgx4dc00000gn/T//cc76hY55.s:229    .text._ZN7SpiritsD2Ev:0000000000000000 _ZN7SpiritsD1Ev
/var/folders/s6/2bsynnl15rj0bwtb9pgx4dc00000gn/T//cc76hY55.s:281    .text._Z11InitEncoderv:0000000000000000 $t
/var/folders/s6/2bsynnl15rj0bwtb9pgx4dc00000gn/T//cc76hY55.s:288    .text._Z11InitEncoderv:0000000000000000 _Z11InitEncoderv
/var/folders/s6/2bsynnl15rj0bwtb9pgx4dc00000gn/T//cc76hY55.s:324    .text._Z11InitEncoderv:0000000000000034 $d
/var/folders/s6/2bsynnl15rj0bwtb9pgx4dc00000gn/T//cc76hY55.s:330    .rodata._Z12InitHardwarev.str1.4:0000000000000000 $d
/var/folders/s6/2bsynnl15rj0bwtb9pgx4dc00000gn/T//cc76hY55.s:334    .text._Z12InitHardwarev:0000000000000000 $t
/var/folders/s6/2bsynnl15rj0bwtb9pgx4dc00000gn/T//cc76hY55.s:341    .text._Z12InitHardwarev:0000000000000000 _Z12InitHardwarev
/var/folders/s6/2bsynnl15rj0bwtb9pgx4dc00000gn/T//cc76hY55.s:527    .text._Z12InitHardwarev:00000000000000c8 $d
/var/folders/s6/2bsynnl15rj0bwtb9pgx4dc00000gn/T//cc76hY55.s:3720   .sram1_bss:0000000000000000 __Fifo
/var/folders/s6/2bsynnl15rj0bwtb9pgx4dc00000gn/T//cc76hY55.s:3714   .sdram_bss_framebuff:0000000000000000 __FrameBuff
/var/folders/s6/2bsynnl15rj0bwtb9pgx4dc00000gn/T//cc76hY55.s:544    .rodata._Z10UpdateMenuv.str1.4:0000000000000000 $d
/var/folders/s6/2bsynnl15rj0bwtb9pgx4dc00000gn/T//cc76hY55.s:552    .text._Z10UpdateMenuv:0000000000000000 $t
/var/folders/s6/2bsynnl15rj0bwtb9pgx4dc00000gn/T//cc76hY55.s:559    .text._Z10UpdateMenuv:0000000000000000 _Z10UpdateMenuv
/var/folders/s6/2bsynnl15rj0bwtb9pgx4dc00000gn/T//cc76hY55.s:950    .text._Z10UpdateMenuv:0000000000000108 $d
/var/folders/s6/2bsynnl15rj0bwtb9pgx4dc00000gn/T//cc76hY55.s:967    .rodata.main.str1.4:0000000000000000 $d
/var/folders/s6/2bsynnl15rj0bwtb9pgx4dc00000gn/T//cc76hY55.s:998    .text.startup.main:0000000000000000 $t
/var/folders/s6/2bsynnl15rj0bwtb9pgx4dc00000gn/T//cc76hY55.s:1005   .text.startup.main:0000000000000000 main
/var/folders/s6/2bsynnl15rj0bwtb9pgx4dc00000gn/T//cc76hY55.s:2166   .text.startup.main:00000000000002cc $d
/var/folders/s6/2bsynnl15rj0bwtb9pgx4dc00000gn/T//cc76hY55.s:2201   .text._ZN7SpiritsD0Ev:0000000000000000 $t
/var/folders/s6/2bsynnl15rj0bwtb9pgx4dc00000gn/T//cc76hY55.s:2208   .text._ZN7SpiritsD0Ev:0000000000000000 _ZN7SpiritsD0Ev
/var/folders/s6/2bsynnl15rj0bwtb9pgx4dc00000gn/T//cc76hY55.s:2261   .text._ZN7SpiritsD0Ev:000000000000001c $d
/var/folders/s6/2bsynnl15rj0bwtb9pgx4dc00000gn/T//cc76hY55.s:2266   .text.startup._GLOBAL__sub_I_spirits:0000000000000000 $t
/var/folders/s6/2bsynnl15rj0bwtb9pgx4dc00000gn/T//cc76hY55.s:2272   .text.startup._GLOBAL__sub_I_spirits:0000000000000000 _GLOBAL__sub_I_spirits
/var/folders/s6/2bsynnl15rj0bwtb9pgx4dc00000gn/T//cc76hY55.s:2830   .text.startup._GLOBAL__sub_I_spirits:00000000000000d4 $d
/var/folders/s6/2bsynnl15rj0bwtb9pgx4dc00000gn/T//cc76hY55.s:2850   .init_array:0000000000000000 $d
/var/folders/s6/2bsynnl15rj0bwtb9pgx4dc00000gn/T//cc76hY55.s:2882   .bss.encoder:0000000000000000 encoder
/var/folders/s6/2bsynnl15rj0bwtb9pgx4dc00000gn/T//cc76hY55.s:2895   .bss.lastTriggerTime:0000000000000000 lastTriggerTime
/var/folders/s6/2bsynnl15rj0bwtb9pgx4dc00000gn/T//cc76hY55.s:2868   .bss.FreeSans15:0000000000000000 FreeSans15
/var/folders/s6/2bsynnl15rj0bwtb9pgx4dc00000gn/T//cc76hY55.s:2875   .bss.__Display:0000000000000000 __Display
/var/folders/s6/2bsynnl15rj0bwtb9pgx4dc00000gn/T//cc76hY55.s:2923   .data.projectBPM:0000000000000000 projectBPM
/var/folders/s6/2bsynnl15rj0bwtb9pgx4dc00000gn/T//cc76hY55.s:2889   .bss.hw:0000000000000000 hw
/var/folders/s6/2bsynnl15rj0bwtb9pgx4dc00000gn/T//cc76hY55.s:2902   .bss.option3Sound:0000000000000000 option3Sound
/var/folders/s6/2bsynnl15rj0bwtb9pgx4dc00000gn/T//cc76hY55.s:2909   .bss.sound2:0000000000000000 sound2
/var/folders/s6/2bsynnl15rj0bwtb9pgx4dc00000gn/T//cc76hY55.s:2916   .bss.spirits:0000000000000000 spirits
/var/folders/s6/2bsynnl15rj0bwtb9pgx4dc00000gn/T//cc76hY55.s:2864   .bss.FreeSans15:0000000000000000 $d
/var/folders/s6/2bsynnl15rj0bwtb9pgx4dc00000gn/T//cc76hY55.s:2871   .bss.__Display:0000000000000000 $d
/var/folders/s6/2bsynnl15rj0bwtb9pgx4dc00000gn/T//cc76hY55.s:2878   .bss.encoder:0000000000000000 $d
/var/folders/s6/2bsynnl15rj0bwtb9pgx4dc00000gn/T//cc76hY55.s:2885   .bss.hw:0000000000000000 $d
/var/folders/s6/2bsynnl15rj0bwtb9pgx4dc00000gn/T//cc76hY55.s:2892   .bss.lastTriggerTime:0000000000000000 $d
/var/folders/s6/2bsynnl15rj0bwtb9pgx4dc00000gn/T//cc76hY55.s:2898   .bss.option3Sound:0000000000000000 $d
/var/folders/s6/2bsynnl15rj0bwtb9pgx4dc00000gn/T//cc76hY55.s:2905   .bss.sound2:0000000000000000 $d
/var/folders/s6/2bsynnl15rj0bwtb9pgx4dc00000gn/T//cc76hY55.s:2912   .bss.spirits:0000000000000000 $d
/var/folders/s6/2bsynnl15rj0bwtb9pgx4dc00000gn/T//cc76hY55.s:2919   .data.projectBPM:0000000000000000 $d
ARM GAS  /var/folders/s6/2bsynnl15rj0bwtb9pgx4dc00000gn/T//cc76hY55.s 			page 209


/var/folders/s6/2bsynnl15rj0bwtb9pgx4dc00000gn/T//cc76hY55.s:2926   .rodata.CSWTCH.96:0000000000000000 $d
/var/folders/s6/2bsynnl15rj0bwtb9pgx4dc00000gn/T//cc76hY55.s:2930   .rodata.CSWTCH.96:0000000000000000 CSWTCH.96
/var/folders/s6/2bsynnl15rj0bwtb9pgx4dc00000gn/T//cc76hY55.s:2937   .rodata._ZL14FreeSans15pt7b:0000000000000000 $d
/var/folders/s6/2bsynnl15rj0bwtb9pgx4dc00000gn/T//cc76hY55.s:2941   .rodata._ZL14FreeSans15pt7b:0000000000000000 _ZL14FreeSans15pt7b
/var/folders/s6/2bsynnl15rj0bwtb9pgx4dc00000gn/T//cc76hY55.s:3622   .rodata._ZL21FreeSans15pt7bBitmaps:0000000000000000 _ZL21FreeSans15pt7bBitmaps
/var/folders/s6/2bsynnl15rj0bwtb9pgx4dc00000gn/T//cc76hY55.s:2952   .rodata._ZL20FreeSans15pt7bGlyphs:0000000000000000 _ZL20FreeSans15pt7bGlyphs
/var/folders/s6/2bsynnl15rj0bwtb9pgx4dc00000gn/T//cc76hY55.s:2949   .rodata._ZL20FreeSans15pt7bGlyphs:0000000000000000 $d
/var/folders/s6/2bsynnl15rj0bwtb9pgx4dc00000gn/T//cc76hY55.s:3619   .rodata._ZL21FreeSans15pt7bBitmaps:0000000000000000 $d
/var/folders/s6/2bsynnl15rj0bwtb9pgx4dc00000gn/T//cc76hY55.s:3711   .sdram_bss_framebuff:0000000000000000 $d
/var/folders/s6/2bsynnl15rj0bwtb9pgx4dc00000gn/T//cc76hY55.s:3717   .sram1_bss:0000000000000000 $d
                           .group:0000000000000000 _ZN5daisy7EncoderD5Ev
                           .group:0000000000000000 _ZN5daisy9DaisySeedD5Ev
                           .group:0000000000000000 _ZN7SpiritsD5Ev

UNDEFINED SYMBOLS
_ZN7Spirits7ProcessEv
_ZN5SoundD2Ev
_ZTV7Spirits
_ZN5daisy7Encoder4InitE12dsy_gpio_pinS1_S1_f
_ZN5daisy9DaisySeed9ConfigureEv
_ZN5daisy9DaisySeed4InitEb
_ZN5daisy9DaisySeed17SetAudioBlockSizeEj
_ZN5daisy9DaisySeed18SetAudioSampleRateENS_9SaiHandle6Config10SampleRateE
_ZN5daisy9DaisySeed10StartAudioEPFvPKPKfPPfjE
_ZN5daisy9UsbHandle4InitENS0_9UsbPeriphE
_ZN5daisy9DaisySeed15AudioSampleRateEv
_ZN7Spirits4InitEf
_ZN10cRBG_Frame8setFrameEP3RGBP9FIFO_Datatt
_ZN10cRBG_Frame16setFrameRotationE8Rotation
_Z11InitButtonsv
_ZN5daisy6System5DelayEm
_ZN5daisy6LoggerILNS_17LoggerDestinationE1EE9PrintLineEPKcz
_Z11DisplayMenuv
currentState
buttonC
currentOption
buttonDm
buttonEm
buttonF
buttonG
buttonAm
buttonBdim
_Z8InitMenuv
_Z19HandleMenuSelectionb
_Z16HandleBackButtonv
_ZN5daisy6System7DelayUsEm
_Z13UpdateButtonsv
_ZN5daisy7Encoder8DebounceEv
_ZN7Spirits7TriggerEi
_Znwj
memmove
_ZdlPvj
_ZSt17__throw_bad_allocv
_ZSt20__throw_length_errorPKc
button2
button1
stateStack
ARM GAS  /var/folders/s6/2bsynnl15rj0bwtb9pgx4dc00000gn/T//cc76hY55.s 			page 210


_ZN7SpiritsC1Ev
__aeabi_atexit
_ZN5cFontC1EPK7GFXfont
__dso_handle
